   1              		.syntax unified
   2              		.cpu cortex-m4
   3              		.eabi_attribute 27, 3
   4              		.fpu fpv4-sp-d16
   5              		.eabi_attribute 20, 1
   6              		.eabi_attribute 21, 1
   7              		.eabi_attribute 23, 3
   8              		.eabi_attribute 24, 1
   9              		.eabi_attribute 25, 1
  10              		.eabi_attribute 26, 1
  11              		.eabi_attribute 30, 6
  12              		.eabi_attribute 34, 1
  13              		.eabi_attribute 18, 4
  14              		.thumb
  15              		.file	"stm32f30x_tim.c"
  16              		.text
  17              	.Ltext0:
  18              		.cfi_sections	.debug_frame
  19              		.align	2
  20              		.global	TIM_DeInit
  21              		.thumb
  22              		.thumb_func
  24              	TIM_DeInit:
  25              	.LFB111:
  26              		.file 1 "../src/stm32f30x_tim.c"
   1:../src/stm32f30x_tim.c **** /**
   2:../src/stm32f30x_tim.c ****   ******************************************************************************
   3:../src/stm32f30x_tim.c ****   * @file    stm32f30x_tim.c
   4:../src/stm32f30x_tim.c ****   * @author  MCD Application Team
   5:../src/stm32f30x_tim.c ****   * @version V1.0.1
   6:../src/stm32f30x_tim.c ****   * @date    23-October-2012
   7:../src/stm32f30x_tim.c ****   * @brief   This file provides firmware functions to manage the following 
   8:../src/stm32f30x_tim.c ****   *          functionalities of the TIM peripheral:
   9:../src/stm32f30x_tim.c ****   *            + TimeBase management
  10:../src/stm32f30x_tim.c ****   *            + Output Compare management
  11:../src/stm32f30x_tim.c ****   *            + Input Capture management
  12:../src/stm32f30x_tim.c ****   *            + Advanced-control timers (TIM1 and TIM8) specific features  
  13:../src/stm32f30x_tim.c ****   *            + Interrupts, DMA and flags management
  14:../src/stm32f30x_tim.c ****   *            + Clocks management
  15:../src/stm32f30x_tim.c ****   *            + Synchronization management
  16:../src/stm32f30x_tim.c ****   *            + Specific interface management
  17:../src/stm32f30x_tim.c ****   *            + Specific remapping management      
  18:../src/stm32f30x_tim.c ****   *              
  19:../src/stm32f30x_tim.c ****   @verbatim
  20:../src/stm32f30x_tim.c ****     
  21:../src/stm32f30x_tim.c ****   ==============================================================================
  22:../src/stm32f30x_tim.c ****                        ##### How to use this driver #####
  23:../src/stm32f30x_tim.c ****   ==============================================================================
  24:../src/stm32f30x_tim.c ****    [..] This driver provides functions to configure and program the TIM 
  25:../src/stm32f30x_tim.c ****         of all stm32f30x devices.
  26:../src/stm32f30x_tim.c ****         These functions are split in 9 groups: 
  27:../src/stm32f30x_tim.c ****      
  28:../src/stm32f30x_tim.c ****         (#) TIM TimeBase management: this group includes all needed functions 
  29:../src/stm32f30x_tim.c ****             to configure the TM Timebase unit:
  30:../src/stm32f30x_tim.c ****                  (++) Set/Get Prescaler
  31:../src/stm32f30x_tim.c ****                  (++) Set/Get Autoreload  
  32:../src/stm32f30x_tim.c ****                  (++) Counter modes configuration
  33:../src/stm32f30x_tim.c ****                  (++) Set Clock division  
  34:../src/stm32f30x_tim.c ****                  (++) Select the One Pulse mode
  35:../src/stm32f30x_tim.c ****                  (++) Update Request Configuration
  36:../src/stm32f30x_tim.c ****                  (++) Update Disable Configuration
  37:../src/stm32f30x_tim.c ****                  (++) Auto-Preload Configuration 
  38:../src/stm32f30x_tim.c ****                  (++) Enable/Disable the counter     
  39:../src/stm32f30x_tim.c ****                    
  40:../src/stm32f30x_tim.c ****        (#) TIM Output Compare management: this group includes all needed 
  41:../src/stm32f30x_tim.c ****            functions to configure the Capture/Compare unit used in Output 
  42:../src/stm32f30x_tim.c ****            compare mode: 
  43:../src/stm32f30x_tim.c ****                  (++) Configure each channel, independently, in Output Compare mode
  44:../src/stm32f30x_tim.c ****                  (++) Select the output compare modes
  45:../src/stm32f30x_tim.c ****                  (++) Select the Polarities of each channel
  46:../src/stm32f30x_tim.c ****                  (++) Set/Get the Capture/Compare register values
  47:../src/stm32f30x_tim.c ****                  (++) Select the Output Compare Fast mode 
  48:../src/stm32f30x_tim.c ****                  (++) Select the Output Compare Forced mode  
  49:../src/stm32f30x_tim.c ****                  (++) Output Compare-Preload Configuration 
  50:../src/stm32f30x_tim.c ****                  (++) Clear Output Compare Reference
  51:../src/stm32f30x_tim.c ****                  (++) Select the OCREF Clear signal
  52:../src/stm32f30x_tim.c ****                  (++) Enable/Disable the Capture/Compare Channels    
  53:../src/stm32f30x_tim.c ****                     
  54:../src/stm32f30x_tim.c ****         (#) TIM Input Capture management: this group includes all needed 
  55:../src/stm32f30x_tim.c ****             functions to configure the Capture/Compare unit used in 
  56:../src/stm32f30x_tim.c ****             Input Capture mode:
  57:../src/stm32f30x_tim.c ****                  (++) Configure each channel in input capture mode
  58:../src/stm32f30x_tim.c ****                  (++) Configure Channel1/2 in PWM Input mode
  59:../src/stm32f30x_tim.c ****                  (++) Set the Input Capture Prescaler
  60:../src/stm32f30x_tim.c ****                  (++) Get the Capture/Compare values      
  61:../src/stm32f30x_tim.c ****                      
  62:../src/stm32f30x_tim.c ****         (#) Advanced-control timers (TIM1 and TIM8) specific features
  63:../src/stm32f30x_tim.c ****                  (++) Configures the Break input, dead time, Lock level, the OSSI,
  64:../src/stm32f30x_tim.c ****                       the OSSR State and the AOE(automatic output enable)
  65:../src/stm32f30x_tim.c ****                  (++) Enable/Disable the TIM peripheral Main Outputs
  66:../src/stm32f30x_tim.c ****                  (++) Select the Commutation event
  67:../src/stm32f30x_tim.c ****                  (++) Set/Reset the Capture Compare Preload Control bit
  68:../src/stm32f30x_tim.c ****                                
  69:../src/stm32f30x_tim.c ****         (#) TIM interrupts, DMA and flags management
  70:../src/stm32f30x_tim.c ****                  (++) Enable/Disable interrupt sources
  71:../src/stm32f30x_tim.c ****                  (++) Get flags status
  72:../src/stm32f30x_tim.c ****                  (++) Clear flags/ Pending bits
  73:../src/stm32f30x_tim.c ****                  (++) Enable/Disable DMA requests 
  74:../src/stm32f30x_tim.c ****                  (++) Configure DMA burst mode
  75:../src/stm32f30x_tim.c ****                  (++) Select CaptureCompare DMA request  
  76:../src/stm32f30x_tim.c ****                 
  77:../src/stm32f30x_tim.c ****         (#) TIM clocks management: this group includes all needed functions 
  78:../src/stm32f30x_tim.c ****             to configure the clock controller unit:
  79:../src/stm32f30x_tim.c ****                  (++) Select internal/External clock
  80:../src/stm32f30x_tim.c ****                  (++) Select the external clock mode: ETR(Mode1/Mode2), TIx or ITRx
  81:../src/stm32f30x_tim.c ****          
  82:../src/stm32f30x_tim.c ****         (#) TIM synchronization management: this group includes all needed 
  83:../src/stm32f30x_tim.c ****             functions to configure the Synchronization unit:
  84:../src/stm32f30x_tim.c ****                  (++) Select Input Trigger  
  85:../src/stm32f30x_tim.c ****                  (++) Select Output Trigger  
  86:../src/stm32f30x_tim.c ****                  (++) Select Master Slave Mode 
  87:../src/stm32f30x_tim.c ****                  (++) ETR Configuration when used as external trigger   
  88:../src/stm32f30x_tim.c ****        
  89:../src/stm32f30x_tim.c ****         (#) TIM specific interface management, this group includes all 
  90:../src/stm32f30x_tim.c ****             needed functions to use the specific TIM interface:
  91:../src/stm32f30x_tim.c ****                  (++) Encoder Interface Configuration
  92:../src/stm32f30x_tim.c ****                  (++) Select Hall Sensor   
  93:../src/stm32f30x_tim.c ****            
  94:../src/stm32f30x_tim.c ****         (#) TIM specific remapping management includes the Remapping 
  95:../src/stm32f30x_tim.c ****             configuration of specific timers               
  96:../src/stm32f30x_tim.c ****      
  97:../src/stm32f30x_tim.c ****   @endverbatim
  98:../src/stm32f30x_tim.c ****       
  99:../src/stm32f30x_tim.c ****   ******************************************************************************
 100:../src/stm32f30x_tim.c ****   * @attention
 101:../src/stm32f30x_tim.c ****   *
 102:../src/stm32f30x_tim.c ****   * <h2><center>&copy; COPYRIGHT 2012 STMicroelectronics</center></h2>
 103:../src/stm32f30x_tim.c ****   *
 104:../src/stm32f30x_tim.c ****   * Licensed under MCD-ST Liberty SW License Agreement V2, (the "License");
 105:../src/stm32f30x_tim.c ****   * You may not use this file except in compliance with the License.
 106:../src/stm32f30x_tim.c ****   * You may obtain a copy of the License at:
 107:../src/stm32f30x_tim.c ****   *
 108:../src/stm32f30x_tim.c ****   *        http://www.st.com/software_license_agreement_liberty_v2
 109:../src/stm32f30x_tim.c ****   *
 110:../src/stm32f30x_tim.c ****   * Unless required by applicable law or agreed to in writing, software 
 111:../src/stm32f30x_tim.c ****   * distributed under the License is distributed on an "AS IS" BASIS, 
 112:../src/stm32f30x_tim.c ****   * WITHOUT WARRANTIES OR CONDITIONS OF ANY KIND, either express or implied.
 113:../src/stm32f30x_tim.c ****   * See the License for the specific language governing permissions and
 114:../src/stm32f30x_tim.c ****   * limitations under the License.
 115:../src/stm32f30x_tim.c ****   *
 116:../src/stm32f30x_tim.c ****   ******************************************************************************
 117:../src/stm32f30x_tim.c ****   */
 118:../src/stm32f30x_tim.c **** 
 119:../src/stm32f30x_tim.c **** /* Includes ------------------------------------------------------------------*/
 120:../src/stm32f30x_tim.c **** #include "stm32f30x_tim.h"
 121:../src/stm32f30x_tim.c **** #include "stm32f30x_rcc.h"
 122:../src/stm32f30x_tim.c **** 
 123:../src/stm32f30x_tim.c **** /** @addtogroup STM32F30x_StdPeriph_Driver
 124:../src/stm32f30x_tim.c ****   * @{
 125:../src/stm32f30x_tim.c ****   */
 126:../src/stm32f30x_tim.c **** 
 127:../src/stm32f30x_tim.c **** /** @defgroup TIM 
 128:../src/stm32f30x_tim.c ****   * @brief TIM driver modules
 129:../src/stm32f30x_tim.c ****   * @{
 130:../src/stm32f30x_tim.c ****   */
 131:../src/stm32f30x_tim.c **** 
 132:../src/stm32f30x_tim.c **** /* Private typedef -----------------------------------------------------------*/
 133:../src/stm32f30x_tim.c **** /* Private define ------------------------------------------------------------*/
 134:../src/stm32f30x_tim.c **** 
 135:../src/stm32f30x_tim.c **** /* ---------------------- TIM registers bit mask ------------------------ */
 136:../src/stm32f30x_tim.c **** #define SMCR_ETR_MASK      ((uint16_t)0x00FF) 
 137:../src/stm32f30x_tim.c **** #define CCMR_OFFSET        ((uint16_t)0x0018)
 138:../src/stm32f30x_tim.c **** #define CCER_CCE_SET       ((uint16_t)0x0001)  
 139:../src/stm32f30x_tim.c **** #define	CCER_CCNE_SET      ((uint16_t)0x0004) 
 140:../src/stm32f30x_tim.c **** #define CCMR_OC13M_MASK    ((uint32_t)0xFFFEFF8F)
 141:../src/stm32f30x_tim.c **** #define CCMR_OC24M_MASK    ((uint32_t)0xFEFF8FFF) 
 142:../src/stm32f30x_tim.c **** 
 143:../src/stm32f30x_tim.c **** /* Private macro -------------------------------------------------------------*/
 144:../src/stm32f30x_tim.c **** /* Private variables ---------------------------------------------------------*/
 145:../src/stm32f30x_tim.c **** /* Private function prototypes -----------------------------------------------*/
 146:../src/stm32f30x_tim.c **** static void TI1_Config(TIM_TypeDef* TIMx, uint16_t TIM_ICPolarity, uint16_t TIM_ICSelection,
 147:../src/stm32f30x_tim.c ****                        uint16_t TIM_ICFilter);
 148:../src/stm32f30x_tim.c **** static void TI2_Config(TIM_TypeDef* TIMx, uint16_t TIM_ICPolarity, uint16_t TIM_ICSelection,
 149:../src/stm32f30x_tim.c ****                        uint16_t TIM_ICFilter);
 150:../src/stm32f30x_tim.c **** static void TI3_Config(TIM_TypeDef* TIMx, uint16_t TIM_ICPolarity, uint16_t TIM_ICSelection,
 151:../src/stm32f30x_tim.c ****                        uint16_t TIM_ICFilter);
 152:../src/stm32f30x_tim.c **** static void TI4_Config(TIM_TypeDef* TIMx, uint16_t TIM_ICPolarity, uint16_t TIM_ICSelection,
 153:../src/stm32f30x_tim.c ****                        uint16_t TIM_ICFilter);
 154:../src/stm32f30x_tim.c **** 
 155:../src/stm32f30x_tim.c **** /* Private functions ---------------------------------------------------------*/
 156:../src/stm32f30x_tim.c **** 
 157:../src/stm32f30x_tim.c **** /** @defgroup TIM_Private_Functions
 158:../src/stm32f30x_tim.c ****   * @{
 159:../src/stm32f30x_tim.c ****   */
 160:../src/stm32f30x_tim.c **** 
 161:../src/stm32f30x_tim.c **** /** @defgroup TIM_Group1 TimeBase management functions
 162:../src/stm32f30x_tim.c ****  *  @brief   TimeBase management functions 
 163:../src/stm32f30x_tim.c ****  *
 164:../src/stm32f30x_tim.c **** @verbatim   
 165:../src/stm32f30x_tim.c ****  ===============================================================================
 166:../src/stm32f30x_tim.c ****                    ##### TimeBase management functions #####
 167:../src/stm32f30x_tim.c ****  ===============================================================================  
 168:../src/stm32f30x_tim.c ****   
 169:../src/stm32f30x_tim.c ****              
 170:../src/stm32f30x_tim.c ****     *** TIM Driver: how to use it in Timing(Time base) Mode ***
 171:../src/stm32f30x_tim.c ****     ============================================================ 
 172:../src/stm32f30x_tim.c ****     [..]
 173:../src/stm32f30x_tim.c ****     To use the Timer in Timing(Time base) mode, the following steps are mandatory:
 174:../src/stm32f30x_tim.c ****        
 175:../src/stm32f30x_tim.c ****     (#) Enable TIM clock using 
 176:../src/stm32f30x_tim.c ****         RCC_APBxPeriphClockCmd(RCC_APBxPeriph_TIMx, ENABLE) function               
 177:../src/stm32f30x_tim.c ****     (#) Fill the TIM_TimeBaseInitStruct with the desired parameters.   
 178:../src/stm32f30x_tim.c ****     (#) Call TIM_TimeBaseInit(TIMx, &TIM_TimeBaseInitStruct) to configure 
 179:../src/stm32f30x_tim.c ****         the Time Base unit
 180:../src/stm32f30x_tim.c ****         with the corresponding configuration        
 181:../src/stm32f30x_tim.c ****     (#) Enable the NVIC if you need to generate the update interrupt.        
 182:../src/stm32f30x_tim.c ****     (#) Enable the corresponding interrupt using the function 
 183:../src/stm32f30x_tim.c ****         TIM_ITConfig(TIMx, TIM_IT_Update)      
 184:../src/stm32f30x_tim.c ****     (#) Call the TIM_Cmd(ENABLE) function to enable the TIM counter.
 185:../src/stm32f30x_tim.c ****     [..]                  
 186:../src/stm32f30x_tim.c ****     (@) All other functions can be used separately to modify, if needed,
 187:../src/stm32f30x_tim.c ****         a specific feature of the Timer. 
 188:../src/stm32f30x_tim.c **** 
 189:../src/stm32f30x_tim.c **** @endverbatim
 190:../src/stm32f30x_tim.c ****   * @{
 191:../src/stm32f30x_tim.c ****   */
 192:../src/stm32f30x_tim.c ****   
 193:../src/stm32f30x_tim.c **** /**
 194:../src/stm32f30x_tim.c ****   * @brief  Deinitializes the TIMx peripheral registers to their default reset values.
 195:../src/stm32f30x_tim.c ****   * @param  TIMx: where x can be 1, 2, 3, 4, 6 ,7 ,8, 15, 16 or 17 to select the TIM peripheral.
 196:../src/stm32f30x_tim.c ****   * @retval None
 197:../src/stm32f30x_tim.c **** 
 198:../src/stm32f30x_tim.c ****   */
 199:../src/stm32f30x_tim.c **** void TIM_DeInit(TIM_TypeDef* TIMx)
 200:../src/stm32f30x_tim.c **** {
  27              		.loc 1 200 0
  28              		.cfi_startproc
  29              		@ args = 0, pretend = 0, frame = 8
  30              		@ frame_needed = 1, uses_anonymous_args = 0
  31 0000 80B5     		push	{r7, lr}
  32              	.LCFI0:
  33              		.cfi_def_cfa_offset 8
  34              		.cfi_offset 7, -8
  35              		.cfi_offset 14, -4
  36 0002 82B0     		sub	sp, sp, #8
  37              	.LCFI1:
  38              		.cfi_def_cfa_offset 16
  39 0004 00AF     		add	r7, sp, #0
  40              	.LCFI2:
  41              		.cfi_def_cfa_register 7
  42 0006 7860     		str	r0, [r7, #4]
 201:../src/stm32f30x_tim.c ****   /* Check the parameters */
 202:../src/stm32f30x_tim.c ****   assert_param(IS_TIM_ALL_PERIPH(TIMx)); 
 203:../src/stm32f30x_tim.c ****  
 204:../src/stm32f30x_tim.c ****   if (TIMx == TIM1)
  43              		.loc 1 204 0
  44 0008 7A68     		ldr	r2, [r7, #4]
  45 000a 4FF43053 		mov	r3, #11264
  46 000e C4F20103 		movt	r3, 16385
  47 0012 9A42     		cmp	r2, r3
  48 0014 0CD1     		bne	.L2
 205:../src/stm32f30x_tim.c ****   {
 206:../src/stm32f30x_tim.c ****     RCC_APB2PeriphResetCmd(RCC_APB2Periph_TIM1, ENABLE);
  49              		.loc 1 206 0
  50 0016 4FF40060 		mov	r0, #2048
  51 001a 4FF00101 		mov	r1, #1
  52 001e FFF7FEFF 		bl	RCC_APB2PeriphResetCmd
 207:../src/stm32f30x_tim.c ****     RCC_APB2PeriphResetCmd(RCC_APB2Periph_TIM1, DISABLE);  
  53              		.loc 1 207 0
  54 0022 4FF40060 		mov	r0, #2048
  55 0026 4FF00001 		mov	r1, #0
  56 002a FFF7FEFF 		bl	RCC_APB2PeriphResetCmd
  57 002e AFE0     		b	.L1
  58              	.L2:
 208:../src/stm32f30x_tim.c ****   } 
 209:../src/stm32f30x_tim.c ****   else if (TIMx == TIM2) 
  59              		.loc 1 209 0
  60 0030 7B68     		ldr	r3, [r7, #4]
  61 0032 B3F1804F 		cmp	r3, #1073741824
  62 0036 0CD1     		bne	.L4
 210:../src/stm32f30x_tim.c ****   {     
 211:../src/stm32f30x_tim.c ****     RCC_APB1PeriphResetCmd(RCC_APB1Periph_TIM2, ENABLE);
  63              		.loc 1 211 0
  64 0038 4FF00100 		mov	r0, #1
  65 003c 4FF00101 		mov	r1, #1
  66 0040 FFF7FEFF 		bl	RCC_APB1PeriphResetCmd
 212:../src/stm32f30x_tim.c ****     RCC_APB1PeriphResetCmd(RCC_APB1Periph_TIM2, DISABLE);
  67              		.loc 1 212 0
  68 0044 4FF00100 		mov	r0, #1
  69 0048 4FF00001 		mov	r1, #0
  70 004c FFF7FEFF 		bl	RCC_APB1PeriphResetCmd
  71 0050 9EE0     		b	.L1
  72              	.L4:
 213:../src/stm32f30x_tim.c ****   }  
 214:../src/stm32f30x_tim.c ****   else if (TIMx == TIM3)
  73              		.loc 1 214 0
  74 0052 7A68     		ldr	r2, [r7, #4]
  75 0054 4FF48063 		mov	r3, #1024
  76 0058 C4F20003 		movt	r3, 16384
  77 005c 9A42     		cmp	r2, r3
  78 005e 0CD1     		bne	.L5
 215:../src/stm32f30x_tim.c ****   { 
 216:../src/stm32f30x_tim.c ****     RCC_APB1PeriphResetCmd(RCC_APB1Periph_TIM3, ENABLE);
  79              		.loc 1 216 0
  80 0060 4FF00200 		mov	r0, #2
  81 0064 4FF00101 		mov	r1, #1
  82 0068 FFF7FEFF 		bl	RCC_APB1PeriphResetCmd
 217:../src/stm32f30x_tim.c ****     RCC_APB1PeriphResetCmd(RCC_APB1Periph_TIM3, DISABLE);
  83              		.loc 1 217 0
  84 006c 4FF00200 		mov	r0, #2
  85 0070 4FF00001 		mov	r1, #0
  86 0074 FFF7FEFF 		bl	RCC_APB1PeriphResetCmd
  87 0078 8AE0     		b	.L1
  88              	.L5:
 218:../src/stm32f30x_tim.c ****   }  
 219:../src/stm32f30x_tim.c ****   else if (TIMx == TIM4)
  89              		.loc 1 219 0
  90 007a 7A68     		ldr	r2, [r7, #4]
  91 007c 4FF40063 		mov	r3, #2048
  92 0080 C4F20003 		movt	r3, 16384
  93 0084 9A42     		cmp	r2, r3
  94 0086 0CD1     		bne	.L6
 220:../src/stm32f30x_tim.c ****   { 
 221:../src/stm32f30x_tim.c ****     RCC_APB1PeriphResetCmd(RCC_APB1Periph_TIM4, ENABLE);
  95              		.loc 1 221 0
  96 0088 4FF00400 		mov	r0, #4
  97 008c 4FF00101 		mov	r1, #1
  98 0090 FFF7FEFF 		bl	RCC_APB1PeriphResetCmd
 222:../src/stm32f30x_tim.c ****     RCC_APB1PeriphResetCmd(RCC_APB1Periph_TIM4, DISABLE);
  99              		.loc 1 222 0
 100 0094 4FF00400 		mov	r0, #4
 101 0098 4FF00001 		mov	r1, #0
 102 009c FFF7FEFF 		bl	RCC_APB1PeriphResetCmd
 103 00a0 76E0     		b	.L1
 104              	.L6:
 223:../src/stm32f30x_tim.c ****   }   
 224:../src/stm32f30x_tim.c ****   else if (TIMx == TIM6)  
 105              		.loc 1 224 0
 106 00a2 7A68     		ldr	r2, [r7, #4]
 107 00a4 4FF48053 		mov	r3, #4096
 108 00a8 C4F20003 		movt	r3, 16384
 109 00ac 9A42     		cmp	r2, r3
 110 00ae 0CD1     		bne	.L7
 225:../src/stm32f30x_tim.c ****   {    
 226:../src/stm32f30x_tim.c ****     RCC_APB1PeriphResetCmd(RCC_APB1Periph_TIM6, ENABLE);
 111              		.loc 1 226 0
 112 00b0 4FF01000 		mov	r0, #16
 113 00b4 4FF00101 		mov	r1, #1
 114 00b8 FFF7FEFF 		bl	RCC_APB1PeriphResetCmd
 227:../src/stm32f30x_tim.c ****     RCC_APB1PeriphResetCmd(RCC_APB1Periph_TIM6, DISABLE);
 115              		.loc 1 227 0
 116 00bc 4FF01000 		mov	r0, #16
 117 00c0 4FF00001 		mov	r1, #0
 118 00c4 FFF7FEFF 		bl	RCC_APB1PeriphResetCmd
 119 00c8 62E0     		b	.L1
 120              	.L7:
 228:../src/stm32f30x_tim.c ****   }  
 229:../src/stm32f30x_tim.c ****   else if (TIMx == TIM7)
 121              		.loc 1 229 0
 122 00ca 7A68     		ldr	r2, [r7, #4]
 123 00cc 4FF4A053 		mov	r3, #5120
 124 00d0 C4F20003 		movt	r3, 16384
 125 00d4 9A42     		cmp	r2, r3
 126 00d6 0CD1     		bne	.L8
 230:../src/stm32f30x_tim.c ****   {      
 231:../src/stm32f30x_tim.c ****     RCC_APB1PeriphResetCmd(RCC_APB1Periph_TIM7, ENABLE);
 127              		.loc 1 231 0
 128 00d8 4FF02000 		mov	r0, #32
 129 00dc 4FF00101 		mov	r1, #1
 130 00e0 FFF7FEFF 		bl	RCC_APB1PeriphResetCmd
 232:../src/stm32f30x_tim.c ****     RCC_APB1PeriphResetCmd(RCC_APB1Periph_TIM7, DISABLE);
 131              		.loc 1 232 0
 132 00e4 4FF02000 		mov	r0, #32
 133 00e8 4FF00001 		mov	r1, #0
 134 00ec FFF7FEFF 		bl	RCC_APB1PeriphResetCmd
 135 00f0 4EE0     		b	.L1
 136              	.L8:
 233:../src/stm32f30x_tim.c ****   }  
 234:../src/stm32f30x_tim.c ****   else if (TIMx == TIM8)
 137              		.loc 1 234 0
 138 00f2 7A68     		ldr	r2, [r7, #4]
 139 00f4 4FF45053 		mov	r3, #13312
 140 00f8 C4F20103 		movt	r3, 16385
 141 00fc 9A42     		cmp	r2, r3
 142 00fe 0CD1     		bne	.L9
 235:../src/stm32f30x_tim.c ****   {      
 236:../src/stm32f30x_tim.c ****     RCC_APB2PeriphResetCmd(RCC_APB2Periph_TIM8, ENABLE);
 143              		.loc 1 236 0
 144 0100 4FF40050 		mov	r0, #8192
 145 0104 4FF00101 		mov	r1, #1
 146 0108 FFF7FEFF 		bl	RCC_APB2PeriphResetCmd
 237:../src/stm32f30x_tim.c ****     RCC_APB2PeriphResetCmd(RCC_APB2Periph_TIM8, DISABLE);  
 147              		.loc 1 237 0
 148 010c 4FF40050 		mov	r0, #8192
 149 0110 4FF00001 		mov	r1, #0
 150 0114 FFF7FEFF 		bl	RCC_APB2PeriphResetCmd
 151 0118 3AE0     		b	.L1
 152              	.L9:
 238:../src/stm32f30x_tim.c ****   }    
 239:../src/stm32f30x_tim.c ****   else if (TIMx == TIM15)
 153              		.loc 1 239 0
 154 011a 7A68     		ldr	r2, [r7, #4]
 155 011c 4FF48043 		mov	r3, #16384
 156 0120 C4F20103 		movt	r3, 16385
 157 0124 9A42     		cmp	r2, r3
 158 0126 0CD1     		bne	.L10
 240:../src/stm32f30x_tim.c ****   {      
 241:../src/stm32f30x_tim.c ****     RCC_APB2PeriphResetCmd(RCC_APB2Periph_TIM15, ENABLE);
 159              		.loc 1 241 0
 160 0128 4FF48030 		mov	r0, #65536
 161 012c 4FF00101 		mov	r1, #1
 162 0130 FFF7FEFF 		bl	RCC_APB2PeriphResetCmd
 242:../src/stm32f30x_tim.c ****     RCC_APB2PeriphResetCmd(RCC_APB2Periph_TIM15, DISABLE);  
 163              		.loc 1 242 0
 164 0134 4FF48030 		mov	r0, #65536
 165 0138 4FF00001 		mov	r1, #0
 166 013c FFF7FEFF 		bl	RCC_APB2PeriphResetCmd
 167 0140 26E0     		b	.L1
 168              	.L10:
 243:../src/stm32f30x_tim.c ****   }  
 244:../src/stm32f30x_tim.c ****   else if (TIMx == TIM16) 
 169              		.loc 1 244 0
 170 0142 7A68     		ldr	r2, [r7, #4]
 171 0144 4FF48843 		mov	r3, #17408
 172 0148 C4F20103 		movt	r3, 16385
 173 014c 9A42     		cmp	r2, r3
 174 014e 0CD1     		bne	.L11
 245:../src/stm32f30x_tim.c ****   {       
 246:../src/stm32f30x_tim.c ****     RCC_APB2PeriphResetCmd(RCC_APB2Periph_TIM16, ENABLE);
 175              		.loc 1 246 0
 176 0150 4FF40030 		mov	r0, #131072
 177 0154 4FF00101 		mov	r1, #1
 178 0158 FFF7FEFF 		bl	RCC_APB2PeriphResetCmd
 247:../src/stm32f30x_tim.c ****     RCC_APB2PeriphResetCmd(RCC_APB2Periph_TIM16, DISABLE);  
 179              		.loc 1 247 0
 180 015c 4FF40030 		mov	r0, #131072
 181 0160 4FF00001 		mov	r1, #0
 182 0164 FFF7FEFF 		bl	RCC_APB2PeriphResetCmd
 183 0168 12E0     		b	.L1
 184              	.L11:
 248:../src/stm32f30x_tim.c ****   }  
 249:../src/stm32f30x_tim.c ****   else
 250:../src/stm32f30x_tim.c ****   { 
 251:../src/stm32f30x_tim.c ****     if (TIMx == TIM17) 
 185              		.loc 1 251 0
 186 016a 7A68     		ldr	r2, [r7, #4]
 187 016c 4FF49043 		mov	r3, #18432
 188 0170 C4F20103 		movt	r3, 16385
 189 0174 9A42     		cmp	r2, r3
 190 0176 0BD1     		bne	.L1
 252:../src/stm32f30x_tim.c ****     {     
 253:../src/stm32f30x_tim.c ****       RCC_APB2PeriphResetCmd(RCC_APB2Periph_TIM17, ENABLE);
 191              		.loc 1 253 0
 192 0178 4FF48020 		mov	r0, #262144
 193 017c 4FF00101 		mov	r1, #1
 194 0180 FFF7FEFF 		bl	RCC_APB2PeriphResetCmd
 254:../src/stm32f30x_tim.c ****       RCC_APB2PeriphResetCmd(RCC_APB2Periph_TIM17, DISABLE); 
 195              		.loc 1 254 0
 196 0184 4FF48020 		mov	r0, #262144
 197 0188 4FF00001 		mov	r1, #0
 198 018c FFF7FEFF 		bl	RCC_APB2PeriphResetCmd
 199              	.L1:
 255:../src/stm32f30x_tim.c ****     }   
 256:../src/stm32f30x_tim.c ****   }
 257:../src/stm32f30x_tim.c **** }
 200              		.loc 1 257 0
 201 0190 07F10807 		add	r7, r7, #8
 202 0194 BD46     		mov	sp, r7
 203 0196 80BD     		pop	{r7, pc}
 204              		.cfi_endproc
 205              	.LFE111:
 207              		.align	2
 208              		.global	TIM_TimeBaseInit
 209              		.thumb
 210              		.thumb_func
 212              	TIM_TimeBaseInit:
 213              	.LFB112:
 258:../src/stm32f30x_tim.c **** 
 259:../src/stm32f30x_tim.c **** /**
 260:../src/stm32f30x_tim.c ****   * @brief  Initializes the TIMx Time Base Unit peripheral according to 
 261:../src/stm32f30x_tim.c ****   *         the specified parameters in the TIM_TimeBaseInitStruct.
 262:../src/stm32f30x_tim.c ****   * @param  TIMx: where x can be  1, 2, 3, 4, 6 ,7 ,8, 15, 16 or 17 to select the TIM peripheral.
 263:../src/stm32f30x_tim.c ****   * @param  TIM_TimeBaseInitStruct: pointer to a TIM_TimeBaseInitTypeDef structure
 264:../src/stm32f30x_tim.c ****   *         that contains the configuration information for the specified TIM peripheral.
 265:../src/stm32f30x_tim.c ****   * @retval None
 266:../src/stm32f30x_tim.c ****   */
 267:../src/stm32f30x_tim.c **** void TIM_TimeBaseInit(TIM_TypeDef* TIMx, TIM_TimeBaseInitTypeDef* TIM_TimeBaseInitStruct)
 268:../src/stm32f30x_tim.c **** {
 214              		.loc 1 268 0
 215              		.cfi_startproc
 216              		@ args = 0, pretend = 0, frame = 16
 217              		@ frame_needed = 1, uses_anonymous_args = 0
 218              		@ link register save eliminated.
 219 0198 80B4     		push	{r7}
 220              	.LCFI3:
 221              		.cfi_def_cfa_offset 4
 222              		.cfi_offset 7, -4
 223 019a 85B0     		sub	sp, sp, #20
 224              	.LCFI4:
 225              		.cfi_def_cfa_offset 24
 226 019c 00AF     		add	r7, sp, #0
 227              	.LCFI5:
 228              		.cfi_def_cfa_register 7
 229 019e 7860     		str	r0, [r7, #4]
 230 01a0 3960     		str	r1, [r7, #0]
 269:../src/stm32f30x_tim.c ****   uint16_t tmpcr1 = 0;
 231              		.loc 1 269 0
 232 01a2 4FF00003 		mov	r3, #0
 233 01a6 FB81     		strh	r3, [r7, #14]	@ movhi
 270:../src/stm32f30x_tim.c **** 
 271:../src/stm32f30x_tim.c ****   /* Check the parameters */
 272:../src/stm32f30x_tim.c ****   assert_param(IS_TIM_ALL_PERIPH(TIMx)); 
 273:../src/stm32f30x_tim.c ****   assert_param(IS_TIM_COUNTER_MODE(TIM_TimeBaseInitStruct->TIM_CounterMode));
 274:../src/stm32f30x_tim.c ****   assert_param(IS_TIM_CKD_DIV(TIM_TimeBaseInitStruct->TIM_ClockDivision));
 275:../src/stm32f30x_tim.c **** 
 276:../src/stm32f30x_tim.c ****   tmpcr1 = TIMx->CR1;  
 234              		.loc 1 276 0
 235 01a8 7B68     		ldr	r3, [r7, #4]
 236 01aa 1B88     		ldrh	r3, [r3, #0]	@ movhi
 237 01ac FB81     		strh	r3, [r7, #14]	@ movhi
 277:../src/stm32f30x_tim.c **** 
 278:../src/stm32f30x_tim.c ****   if((TIMx == TIM1) || (TIMx == TIM8)|| (TIMx == TIM2) || 
 238              		.loc 1 278 0
 239 01ae 7A68     		ldr	r2, [r7, #4]
 240 01b0 4FF43053 		mov	r3, #11264
 241 01b4 C4F20103 		movt	r3, 16385
 242 01b8 9A42     		cmp	r2, r3
 243 01ba 18D0     		beq	.L13
 244              		.loc 1 278 0 is_stmt 0 discriminator 1
 245 01bc 7A68     		ldr	r2, [r7, #4]
 246 01be 4FF45053 		mov	r3, #13312
 247 01c2 C4F20103 		movt	r3, 16385
 248 01c6 9A42     		cmp	r2, r3
 249 01c8 11D0     		beq	.L13
 250 01ca 7B68     		ldr	r3, [r7, #4]
 251 01cc B3F1804F 		cmp	r3, #1073741824
 252 01d0 0DD0     		beq	.L13
 253 01d2 7A68     		ldr	r2, [r7, #4]
 254 01d4 4FF48063 		mov	r3, #1024
 255 01d8 C4F20003 		movt	r3, 16384
 256 01dc 9A42     		cmp	r2, r3
 257 01de 06D0     		beq	.L13
 279:../src/stm32f30x_tim.c ****      (TIMx == TIM3)|| (TIMx == TIM4)) 
 258              		.loc 1 279 0 is_stmt 1
 259 01e0 7A68     		ldr	r2, [r7, #4]
 260 01e2 4FF40063 		mov	r3, #2048
 261 01e6 C4F20003 		movt	r3, 16384
 262 01ea 9A42     		cmp	r2, r3
 263 01ec 08D1     		bne	.L14
 264              	.L13:
 280:../src/stm32f30x_tim.c ****   {
 281:../src/stm32f30x_tim.c ****     /* Select the Counter Mode */
 282:../src/stm32f30x_tim.c ****     tmpcr1 &= (uint16_t)(~(TIM_CR1_DIR | TIM_CR1_CMS));
 265              		.loc 1 282 0
 266 01ee FB89     		ldrh	r3, [r7, #14]	@ movhi
 267 01f0 23F07003 		bic	r3, r3, #112
 268 01f4 FB81     		strh	r3, [r7, #14]	@ movhi
 283:../src/stm32f30x_tim.c ****     tmpcr1 |= (uint32_t)TIM_TimeBaseInitStruct->TIM_CounterMode;
 269              		.loc 1 283 0
 270 01f6 3B68     		ldr	r3, [r7, #0]
 271 01f8 5A88     		ldrh	r2, [r3, #2]
 272 01fa FB89     		ldrh	r3, [r7, #14]	@ movhi
 273 01fc 1343     		orrs	r3, r3, r2
 274 01fe FB81     		strh	r3, [r7, #14]	@ movhi
 275              	.L14:
 284:../src/stm32f30x_tim.c ****   }
 285:../src/stm32f30x_tim.c ****  
 286:../src/stm32f30x_tim.c ****   if((TIMx != TIM6) && (TIMx != TIM7))
 276              		.loc 1 286 0
 277 0200 7A68     		ldr	r2, [r7, #4]
 278 0202 4FF48053 		mov	r3, #4096
 279 0206 C4F20003 		movt	r3, 16384
 280 020a 9A42     		cmp	r2, r3
 281 020c 0FD0     		beq	.L15
 282              		.loc 1 286 0 is_stmt 0 discriminator 1
 283 020e 7A68     		ldr	r2, [r7, #4]
 284 0210 4FF4A053 		mov	r3, #5120
 285 0214 C4F20003 		movt	r3, 16384
 286 0218 9A42     		cmp	r2, r3
 287 021a 08D0     		beq	.L15
 287:../src/stm32f30x_tim.c ****   {
 288:../src/stm32f30x_tim.c ****     /* Set the clock division */
 289:../src/stm32f30x_tim.c ****     tmpcr1 &=  (uint16_t)(~TIM_CR1_CKD);
 288              		.loc 1 289 0 is_stmt 1
 289 021c FB89     		ldrh	r3, [r7, #14]	@ movhi
 290 021e 23F44073 		bic	r3, r3, #768
 291 0222 FB81     		strh	r3, [r7, #14]	@ movhi
 290:../src/stm32f30x_tim.c ****     tmpcr1 |= (uint32_t)TIM_TimeBaseInitStruct->TIM_ClockDivision;
 292              		.loc 1 290 0
 293 0224 3B68     		ldr	r3, [r7, #0]
 294 0226 1A89     		ldrh	r2, [r3, #8]
 295 0228 FB89     		ldrh	r3, [r7, #14]	@ movhi
 296 022a 1343     		orrs	r3, r3, r2
 297 022c FB81     		strh	r3, [r7, #14]	@ movhi
 298              	.L15:
 291:../src/stm32f30x_tim.c ****   }
 292:../src/stm32f30x_tim.c **** 
 293:../src/stm32f30x_tim.c ****   TIMx->CR1 = tmpcr1;
 299              		.loc 1 293 0
 300 022e 7B68     		ldr	r3, [r7, #4]
 301 0230 FA89     		ldrh	r2, [r7, #14]	@ movhi
 302 0232 1A80     		strh	r2, [r3, #0]	@ movhi
 294:../src/stm32f30x_tim.c **** 
 295:../src/stm32f30x_tim.c ****   /* Set the Autoreload value */
 296:../src/stm32f30x_tim.c ****   TIMx->ARR = TIM_TimeBaseInitStruct->TIM_Period ;
 303              		.loc 1 296 0
 304 0234 3B68     		ldr	r3, [r7, #0]
 305 0236 5A68     		ldr	r2, [r3, #4]
 306 0238 7B68     		ldr	r3, [r7, #4]
 307 023a DA62     		str	r2, [r3, #44]
 297:../src/stm32f30x_tim.c ****  
 298:../src/stm32f30x_tim.c ****   /* Set the Prescaler value */
 299:../src/stm32f30x_tim.c ****   TIMx->PSC = TIM_TimeBaseInitStruct->TIM_Prescaler;
 308              		.loc 1 299 0
 309 023c 3B68     		ldr	r3, [r7, #0]
 310 023e 1A88     		ldrh	r2, [r3, #0]
 311 0240 7B68     		ldr	r3, [r7, #4]
 312 0242 1A85     		strh	r2, [r3, #40]	@ movhi
 300:../src/stm32f30x_tim.c ****     
 301:../src/stm32f30x_tim.c ****   if ((TIMx == TIM1) || (TIMx == TIM8)|| (TIMx == TIM15) || 
 313              		.loc 1 301 0
 314 0244 7A68     		ldr	r2, [r7, #4]
 315 0246 4FF43053 		mov	r3, #11264
 316 024a C4F20103 		movt	r3, 16385
 317 024e 9A42     		cmp	r2, r3
 318 0250 1BD0     		beq	.L16
 319              		.loc 1 301 0 is_stmt 0 discriminator 1
 320 0252 7A68     		ldr	r2, [r7, #4]
 321 0254 4FF45053 		mov	r3, #13312
 322 0258 C4F20103 		movt	r3, 16385
 323 025c 9A42     		cmp	r2, r3
 324 025e 14D0     		beq	.L16
 325 0260 7A68     		ldr	r2, [r7, #4]
 326 0262 4FF48043 		mov	r3, #16384
 327 0266 C4F20103 		movt	r3, 16385
 328 026a 9A42     		cmp	r2, r3
 329 026c 0DD0     		beq	.L16
 330 026e 7A68     		ldr	r2, [r7, #4]
 331 0270 4FF48843 		mov	r3, #17408
 332 0274 C4F20103 		movt	r3, 16385
 333 0278 9A42     		cmp	r2, r3
 334 027a 06D0     		beq	.L16
 302:../src/stm32f30x_tim.c ****       (TIMx == TIM16) || (TIMx == TIM17))  
 335              		.loc 1 302 0 is_stmt 1
 336 027c 7A68     		ldr	r2, [r7, #4]
 337 027e 4FF49043 		mov	r3, #18432
 338 0282 C4F20103 		movt	r3, 16385
 339 0286 9A42     		cmp	r2, r3
 340 0288 04D1     		bne	.L17
 341              	.L16:
 303:../src/stm32f30x_tim.c ****   {
 304:../src/stm32f30x_tim.c ****     /* Set the Repetition Counter value */
 305:../src/stm32f30x_tim.c ****     TIMx->RCR = TIM_TimeBaseInitStruct->TIM_RepetitionCounter;
 342              		.loc 1 305 0
 343 028a 3B68     		ldr	r3, [r7, #0]
 344 028c 9B7A     		ldrb	r3, [r3, #10]	@ zero_extendqisi2
 345 028e 1A46     		mov	r2, r3
 346 0290 7B68     		ldr	r3, [r7, #4]
 347 0292 1A86     		strh	r2, [r3, #48]	@ movhi
 348              	.L17:
 306:../src/stm32f30x_tim.c ****   }
 307:../src/stm32f30x_tim.c **** 
 308:../src/stm32f30x_tim.c ****   /* Generate an update event to reload the Prescaler 
 309:../src/stm32f30x_tim.c ****      and the repetition counter(only for TIM1 and TIM8) value immediatly */
 310:../src/stm32f30x_tim.c ****   TIMx->EGR = TIM_PSCReloadMode_Immediate;          
 349              		.loc 1 310 0
 350 0294 7B68     		ldr	r3, [r7, #4]
 351 0296 4FF00102 		mov	r2, #1
 352 029a 5A61     		str	r2, [r3, #20]
 311:../src/stm32f30x_tim.c **** }
 353              		.loc 1 311 0
 354 029c 07F11407 		add	r7, r7, #20
 355 02a0 BD46     		mov	sp, r7
 356 02a2 80BC     		pop	{r7}
 357 02a4 7047     		bx	lr
 358              		.cfi_endproc
 359              	.LFE112:
 361 02a6 00BF     		.align	2
 362              		.global	TIM_TimeBaseStructInit
 363              		.thumb
 364              		.thumb_func
 366              	TIM_TimeBaseStructInit:
 367              	.LFB113:
 312:../src/stm32f30x_tim.c **** 
 313:../src/stm32f30x_tim.c **** /**
 314:../src/stm32f30x_tim.c ****   * @brief  Fills each TIM_TimeBaseInitStruct member with its default value.
 315:../src/stm32f30x_tim.c ****   * @param  TIM_TimeBaseInitStruct : pointer to a TIM_TimeBaseInitTypeDef
 316:../src/stm32f30x_tim.c ****   *         structure which will be initialized.
 317:../src/stm32f30x_tim.c ****   * @retval None
 318:../src/stm32f30x_tim.c ****   */
 319:../src/stm32f30x_tim.c **** void TIM_TimeBaseStructInit(TIM_TimeBaseInitTypeDef* TIM_TimeBaseInitStruct)
 320:../src/stm32f30x_tim.c **** {
 368              		.loc 1 320 0
 369              		.cfi_startproc
 370              		@ args = 0, pretend = 0, frame = 8
 371              		@ frame_needed = 1, uses_anonymous_args = 0
 372              		@ link register save eliminated.
 373 02a8 80B4     		push	{r7}
 374              	.LCFI6:
 375              		.cfi_def_cfa_offset 4
 376              		.cfi_offset 7, -4
 377 02aa 83B0     		sub	sp, sp, #12
 378              	.LCFI7:
 379              		.cfi_def_cfa_offset 16
 380 02ac 00AF     		add	r7, sp, #0
 381              	.LCFI8:
 382              		.cfi_def_cfa_register 7
 383 02ae 7860     		str	r0, [r7, #4]
 321:../src/stm32f30x_tim.c ****   /* Set the default configuration */
 322:../src/stm32f30x_tim.c ****   TIM_TimeBaseInitStruct->TIM_Period = 0xFFFFFFFF;
 384              		.loc 1 322 0
 385 02b0 7B68     		ldr	r3, [r7, #4]
 386 02b2 4FF0FF32 		mov	r2, #-1
 387 02b6 5A60     		str	r2, [r3, #4]
 323:../src/stm32f30x_tim.c ****   TIM_TimeBaseInitStruct->TIM_Prescaler = 0x0000;
 388              		.loc 1 323 0
 389 02b8 7B68     		ldr	r3, [r7, #4]
 390 02ba 4FF00002 		mov	r2, #0
 391 02be 1A80     		strh	r2, [r3, #0]	@ movhi
 324:../src/stm32f30x_tim.c ****   TIM_TimeBaseInitStruct->TIM_ClockDivision = TIM_CKD_DIV1;
 392              		.loc 1 324 0
 393 02c0 7B68     		ldr	r3, [r7, #4]
 394 02c2 4FF00002 		mov	r2, #0
 395 02c6 1A81     		strh	r2, [r3, #8]	@ movhi
 325:../src/stm32f30x_tim.c ****   TIM_TimeBaseInitStruct->TIM_CounterMode = TIM_CounterMode_Up;
 396              		.loc 1 325 0
 397 02c8 7B68     		ldr	r3, [r7, #4]
 398 02ca 4FF00002 		mov	r2, #0
 399 02ce 5A80     		strh	r2, [r3, #2]	@ movhi
 326:../src/stm32f30x_tim.c ****   TIM_TimeBaseInitStruct->TIM_RepetitionCounter = 0x0000;
 400              		.loc 1 326 0
 401 02d0 7B68     		ldr	r3, [r7, #4]
 402 02d2 4FF00002 		mov	r2, #0
 403 02d6 9A72     		strb	r2, [r3, #10]
 327:../src/stm32f30x_tim.c **** }
 404              		.loc 1 327 0
 405 02d8 07F10C07 		add	r7, r7, #12
 406 02dc BD46     		mov	sp, r7
 407 02de 80BC     		pop	{r7}
 408 02e0 7047     		bx	lr
 409              		.cfi_endproc
 410              	.LFE113:
 412 02e2 00BF     		.align	2
 413              		.global	TIM_PrescalerConfig
 414              		.thumb
 415              		.thumb_func
 417              	TIM_PrescalerConfig:
 418              	.LFB114:
 328:../src/stm32f30x_tim.c **** 
 329:../src/stm32f30x_tim.c **** /**
 330:../src/stm32f30x_tim.c ****   * @brief  Configures the TIMx Prescaler.
 331:../src/stm32f30x_tim.c ****   * @param  TIMx: where x can be  1, 2, 3, 4, 8, 15, 16 or 17 to select the TIM peripheral.
 332:../src/stm32f30x_tim.c ****   * @param  Prescaler: specifies the Prescaler Register value
 333:../src/stm32f30x_tim.c ****   * @param  TIM_PSCReloadMode: specifies the TIM Prescaler Reload mode
 334:../src/stm32f30x_tim.c ****   *          This parameter can be one of the following values:
 335:../src/stm32f30x_tim.c ****   *            @arg TIM_PSCReloadMode_Update: The Prescaler is loaded at the update event.
 336:../src/stm32f30x_tim.c ****   *            @arg TIM_PSCReloadMode_Immediate: The Prescaler is loaded immediatly.
 337:../src/stm32f30x_tim.c ****   * @retval None
 338:../src/stm32f30x_tim.c ****   */
 339:../src/stm32f30x_tim.c **** void TIM_PrescalerConfig(TIM_TypeDef* TIMx, uint16_t Prescaler, uint16_t TIM_PSCReloadMode)
 340:../src/stm32f30x_tim.c **** {
 419              		.loc 1 340 0
 420              		.cfi_startproc
 421              		@ args = 0, pretend = 0, frame = 8
 422              		@ frame_needed = 1, uses_anonymous_args = 0
 423              		@ link register save eliminated.
 424 02e4 80B4     		push	{r7}
 425              	.LCFI9:
 426              		.cfi_def_cfa_offset 4
 427              		.cfi_offset 7, -4
 428 02e6 83B0     		sub	sp, sp, #12
 429              	.LCFI10:
 430              		.cfi_def_cfa_offset 16
 431 02e8 00AF     		add	r7, sp, #0
 432              	.LCFI11:
 433              		.cfi_def_cfa_register 7
 434 02ea 7860     		str	r0, [r7, #4]
 435 02ec 1346     		mov	r3, r2
 436 02ee 0A46     		mov	r2, r1	@ movhi
 437 02f0 7A80     		strh	r2, [r7, #2]	@ movhi
 438 02f2 3B80     		strh	r3, [r7, #0]	@ movhi
 341:../src/stm32f30x_tim.c ****   /* Check the parameters */
 342:../src/stm32f30x_tim.c ****   assert_param(IS_TIM_ALL_PERIPH(TIMx));
 343:../src/stm32f30x_tim.c ****   assert_param(IS_TIM_PRESCALER_RELOAD(TIM_PSCReloadMode));
 344:../src/stm32f30x_tim.c ****   /* Set the Prescaler value */
 345:../src/stm32f30x_tim.c ****   TIMx->PSC = Prescaler;
 439              		.loc 1 345 0
 440 02f4 7B68     		ldr	r3, [r7, #4]
 441 02f6 7A88     		ldrh	r2, [r7, #2]	@ movhi
 442 02f8 1A85     		strh	r2, [r3, #40]	@ movhi
 346:../src/stm32f30x_tim.c ****   /* Set or reset the UG Bit */
 347:../src/stm32f30x_tim.c ****   TIMx->EGR = TIM_PSCReloadMode;
 443              		.loc 1 347 0
 444 02fa 3A88     		ldrh	r2, [r7, #0]
 445 02fc 7B68     		ldr	r3, [r7, #4]
 446 02fe 5A61     		str	r2, [r3, #20]
 348:../src/stm32f30x_tim.c **** }
 447              		.loc 1 348 0
 448 0300 07F10C07 		add	r7, r7, #12
 449 0304 BD46     		mov	sp, r7
 450 0306 80BC     		pop	{r7}
 451 0308 7047     		bx	lr
 452              		.cfi_endproc
 453              	.LFE114:
 455 030a 00BF     		.align	2
 456              		.global	TIM_CounterModeConfig
 457              		.thumb
 458              		.thumb_func
 460              	TIM_CounterModeConfig:
 461              	.LFB115:
 349:../src/stm32f30x_tim.c **** 
 350:../src/stm32f30x_tim.c **** /**
 351:../src/stm32f30x_tim.c ****   * @brief  Specifies the TIMx Counter Mode to be used.
 352:../src/stm32f30x_tim.c ****   * @param  TIMx: where x can be  1, 2, 3, 4 or 8 to select the TIM peripheral.
 353:../src/stm32f30x_tim.c ****   * @param  TIM_CounterMode: specifies the Counter Mode to be used
 354:../src/stm32f30x_tim.c ****   *          This parameter can be one of the following values:
 355:../src/stm32f30x_tim.c ****   *            @arg TIM_CounterMode_Up: TIM Up Counting Mode
 356:../src/stm32f30x_tim.c ****   *            @arg TIM_CounterMode_Down: TIM Down Counting Mode
 357:../src/stm32f30x_tim.c ****   *            @arg TIM_CounterMode_CenterAligned1: TIM Center Aligned Mode1
 358:../src/stm32f30x_tim.c ****   *            @arg TIM_CounterMode_CenterAligned2: TIM Center Aligned Mode2
 359:../src/stm32f30x_tim.c ****   *            @arg TIM_CounterMode_CenterAligned3: TIM Center Aligned Mode3
 360:../src/stm32f30x_tim.c ****   * @retval None
 361:../src/stm32f30x_tim.c ****   */
 362:../src/stm32f30x_tim.c **** void TIM_CounterModeConfig(TIM_TypeDef* TIMx, uint16_t TIM_CounterMode)
 363:../src/stm32f30x_tim.c **** {
 462              		.loc 1 363 0
 463              		.cfi_startproc
 464              		@ args = 0, pretend = 0, frame = 16
 465              		@ frame_needed = 1, uses_anonymous_args = 0
 466              		@ link register save eliminated.
 467 030c 80B4     		push	{r7}
 468              	.LCFI12:
 469              		.cfi_def_cfa_offset 4
 470              		.cfi_offset 7, -4
 471 030e 85B0     		sub	sp, sp, #20
 472              	.LCFI13:
 473              		.cfi_def_cfa_offset 24
 474 0310 00AF     		add	r7, sp, #0
 475              	.LCFI14:
 476              		.cfi_def_cfa_register 7
 477 0312 7860     		str	r0, [r7, #4]
 478 0314 0B46     		mov	r3, r1
 479 0316 7B80     		strh	r3, [r7, #2]	@ movhi
 364:../src/stm32f30x_tim.c ****   uint16_t tmpcr1 = 0;
 480              		.loc 1 364 0
 481 0318 4FF00003 		mov	r3, #0
 482 031c FB81     		strh	r3, [r7, #14]	@ movhi
 365:../src/stm32f30x_tim.c **** 
 366:../src/stm32f30x_tim.c ****   /* Check the parameters */
 367:../src/stm32f30x_tim.c ****   assert_param(IS_TIM_LIST3_PERIPH(TIMx));
 368:../src/stm32f30x_tim.c ****   assert_param(IS_TIM_COUNTER_MODE(TIM_CounterMode));
 369:../src/stm32f30x_tim.c **** 
 370:../src/stm32f30x_tim.c ****   tmpcr1 = TIMx->CR1;
 483              		.loc 1 370 0
 484 031e 7B68     		ldr	r3, [r7, #4]
 485 0320 1B88     		ldrh	r3, [r3, #0]	@ movhi
 486 0322 FB81     		strh	r3, [r7, #14]	@ movhi
 371:../src/stm32f30x_tim.c **** 
 372:../src/stm32f30x_tim.c ****   /* Reset the CMS and DIR Bits */
 373:../src/stm32f30x_tim.c ****   tmpcr1 &= (uint16_t)~(TIM_CR1_DIR | TIM_CR1_CMS);
 487              		.loc 1 373 0
 488 0324 FB89     		ldrh	r3, [r7, #14]	@ movhi
 489 0326 23F07003 		bic	r3, r3, #112
 490 032a FB81     		strh	r3, [r7, #14]	@ movhi
 374:../src/stm32f30x_tim.c **** 
 375:../src/stm32f30x_tim.c ****   /* Set the Counter Mode */
 376:../src/stm32f30x_tim.c ****   tmpcr1 |= TIM_CounterMode;
 491              		.loc 1 376 0
 492 032c FA89     		ldrh	r2, [r7, #14]	@ movhi
 493 032e 7B88     		ldrh	r3, [r7, #2]	@ movhi
 494 0330 1343     		orrs	r3, r3, r2
 495 0332 FB81     		strh	r3, [r7, #14]	@ movhi
 377:../src/stm32f30x_tim.c **** 
 378:../src/stm32f30x_tim.c ****   /* Write to TIMx CR1 register */
 379:../src/stm32f30x_tim.c ****   TIMx->CR1 = tmpcr1;
 496              		.loc 1 379 0
 497 0334 7B68     		ldr	r3, [r7, #4]
 498 0336 FA89     		ldrh	r2, [r7, #14]	@ movhi
 499 0338 1A80     		strh	r2, [r3, #0]	@ movhi
 380:../src/stm32f30x_tim.c **** }
 500              		.loc 1 380 0
 501 033a 07F11407 		add	r7, r7, #20
 502 033e BD46     		mov	sp, r7
 503 0340 80BC     		pop	{r7}
 504 0342 7047     		bx	lr
 505              		.cfi_endproc
 506              	.LFE115:
 508              		.align	2
 509              		.global	TIM_SetCounter
 510              		.thumb
 511              		.thumb_func
 513              	TIM_SetCounter:
 514              	.LFB116:
 381:../src/stm32f30x_tim.c **** 
 382:../src/stm32f30x_tim.c **** /**
 383:../src/stm32f30x_tim.c ****   * @brief  Sets the TIMx Counter Register value
 384:../src/stm32f30x_tim.c ****   * @param  TIMx: where x can be 1, 2, 3, 4, 6 ,7 ,8, 15, 16 or 17 to select the TIM peripheral.
 385:../src/stm32f30x_tim.c ****   * @param  Counter: specifies the Counter register new value.
 386:../src/stm32f30x_tim.c ****   * @retval None
 387:../src/stm32f30x_tim.c ****   */
 388:../src/stm32f30x_tim.c **** void TIM_SetCounter(TIM_TypeDef* TIMx, uint32_t Counter)
 389:../src/stm32f30x_tim.c **** {
 515              		.loc 1 389 0
 516              		.cfi_startproc
 517              		@ args = 0, pretend = 0, frame = 8
 518              		@ frame_needed = 1, uses_anonymous_args = 0
 519              		@ link register save eliminated.
 520 0344 80B4     		push	{r7}
 521              	.LCFI15:
 522              		.cfi_def_cfa_offset 4
 523              		.cfi_offset 7, -4
 524 0346 83B0     		sub	sp, sp, #12
 525              	.LCFI16:
 526              		.cfi_def_cfa_offset 16
 527 0348 00AF     		add	r7, sp, #0
 528              	.LCFI17:
 529              		.cfi_def_cfa_register 7
 530 034a 7860     		str	r0, [r7, #4]
 531 034c 3960     		str	r1, [r7, #0]
 390:../src/stm32f30x_tim.c ****   /* Check the parameters */
 391:../src/stm32f30x_tim.c ****    assert_param(IS_TIM_ALL_PERIPH(TIMx));
 392:../src/stm32f30x_tim.c **** 
 393:../src/stm32f30x_tim.c ****   /* Set the Counter Register value */
 394:../src/stm32f30x_tim.c ****   TIMx->CNT = Counter;
 532              		.loc 1 394 0
 533 034e 7B68     		ldr	r3, [r7, #4]
 534 0350 3A68     		ldr	r2, [r7, #0]
 535 0352 5A62     		str	r2, [r3, #36]
 395:../src/stm32f30x_tim.c **** }
 536              		.loc 1 395 0
 537 0354 07F10C07 		add	r7, r7, #12
 538 0358 BD46     		mov	sp, r7
 539 035a 80BC     		pop	{r7}
 540 035c 7047     		bx	lr
 541              		.cfi_endproc
 542              	.LFE116:
 544 035e 00BF     		.align	2
 545              		.global	TIM_SetAutoreload
 546              		.thumb
 547              		.thumb_func
 549              	TIM_SetAutoreload:
 550              	.LFB117:
 396:../src/stm32f30x_tim.c **** 
 397:../src/stm32f30x_tim.c **** /**
 398:../src/stm32f30x_tim.c ****   * @brief  Sets the TIMx Autoreload Register value
 399:../src/stm32f30x_tim.c ****   * @param  TIMx: where x can be 1, 2, 3, 4, 6 ,7 ,8, 15, 16 or 17 to select the TIM peripheral.
 400:../src/stm32f30x_tim.c ****   * @param  Autoreload: specifies the Autoreload register new value.
 401:../src/stm32f30x_tim.c ****   * @retval None
 402:../src/stm32f30x_tim.c ****   */
 403:../src/stm32f30x_tim.c **** void TIM_SetAutoreload(TIM_TypeDef* TIMx, uint32_t Autoreload)
 404:../src/stm32f30x_tim.c **** {
 551              		.loc 1 404 0
 552              		.cfi_startproc
 553              		@ args = 0, pretend = 0, frame = 8
 554              		@ frame_needed = 1, uses_anonymous_args = 0
 555              		@ link register save eliminated.
 556 0360 80B4     		push	{r7}
 557              	.LCFI18:
 558              		.cfi_def_cfa_offset 4
 559              		.cfi_offset 7, -4
 560 0362 83B0     		sub	sp, sp, #12
 561              	.LCFI19:
 562              		.cfi_def_cfa_offset 16
 563 0364 00AF     		add	r7, sp, #0
 564              	.LCFI20:
 565              		.cfi_def_cfa_register 7
 566 0366 7860     		str	r0, [r7, #4]
 567 0368 3960     		str	r1, [r7, #0]
 405:../src/stm32f30x_tim.c ****   /* Check the parameters */
 406:../src/stm32f30x_tim.c ****   assert_param(IS_TIM_ALL_PERIPH(TIMx));
 407:../src/stm32f30x_tim.c ****   
 408:../src/stm32f30x_tim.c ****   /* Set the Autoreload Register value */
 409:../src/stm32f30x_tim.c ****   TIMx->ARR = Autoreload;
 568              		.loc 1 409 0
 569 036a 7B68     		ldr	r3, [r7, #4]
 570 036c 3A68     		ldr	r2, [r7, #0]
 571 036e DA62     		str	r2, [r3, #44]
 410:../src/stm32f30x_tim.c **** }
 572              		.loc 1 410 0
 573 0370 07F10C07 		add	r7, r7, #12
 574 0374 BD46     		mov	sp, r7
 575 0376 80BC     		pop	{r7}
 576 0378 7047     		bx	lr
 577              		.cfi_endproc
 578              	.LFE117:
 580 037a 00BF     		.align	2
 581              		.global	TIM_GetCounter
 582              		.thumb
 583              		.thumb_func
 585              	TIM_GetCounter:
 586              	.LFB118:
 411:../src/stm32f30x_tim.c **** 
 412:../src/stm32f30x_tim.c **** /**
 413:../src/stm32f30x_tim.c ****   * @brief  Gets the TIMx Counter value.
 414:../src/stm32f30x_tim.c ****   * @param  TIMx: where x can be 1, 2, 3, 4, 6 ,7 ,8, 15, 16 or 17 to select the TIM peripheral.
 415:../src/stm32f30x_tim.c ****   * @retval Counter Register value
 416:../src/stm32f30x_tim.c ****   */
 417:../src/stm32f30x_tim.c **** uint32_t TIM_GetCounter(TIM_TypeDef* TIMx)
 418:../src/stm32f30x_tim.c **** {
 587              		.loc 1 418 0
 588              		.cfi_startproc
 589              		@ args = 0, pretend = 0, frame = 8
 590              		@ frame_needed = 1, uses_anonymous_args = 0
 591              		@ link register save eliminated.
 592 037c 80B4     		push	{r7}
 593              	.LCFI21:
 594              		.cfi_def_cfa_offset 4
 595              		.cfi_offset 7, -4
 596 037e 83B0     		sub	sp, sp, #12
 597              	.LCFI22:
 598              		.cfi_def_cfa_offset 16
 599 0380 00AF     		add	r7, sp, #0
 600              	.LCFI23:
 601              		.cfi_def_cfa_register 7
 602 0382 7860     		str	r0, [r7, #4]
 419:../src/stm32f30x_tim.c ****   /* Check the parameters */
 420:../src/stm32f30x_tim.c ****   assert_param(IS_TIM_ALL_PERIPH(TIMx));
 421:../src/stm32f30x_tim.c **** 
 422:../src/stm32f30x_tim.c ****   /* Get the Counter Register value */
 423:../src/stm32f30x_tim.c ****   return TIMx->CNT;
 603              		.loc 1 423 0
 604 0384 7B68     		ldr	r3, [r7, #4]
 605 0386 5B6A     		ldr	r3, [r3, #36]
 424:../src/stm32f30x_tim.c **** }
 606              		.loc 1 424 0
 607 0388 1846     		mov	r0, r3
 608 038a 07F10C07 		add	r7, r7, #12
 609 038e BD46     		mov	sp, r7
 610 0390 80BC     		pop	{r7}
 611 0392 7047     		bx	lr
 612              		.cfi_endproc
 613              	.LFE118:
 615              		.align	2
 616              		.global	TIM_GetPrescaler
 617              		.thumb
 618              		.thumb_func
 620              	TIM_GetPrescaler:
 621              	.LFB119:
 425:../src/stm32f30x_tim.c **** 
 426:../src/stm32f30x_tim.c **** /**
 427:../src/stm32f30x_tim.c ****   * @brief  Gets the TIMx Prescaler value.
 428:../src/stm32f30x_tim.c ****   * @param  TIMx: where x can be 1, 2, 3, 4, 6 ,7 ,8, 15, 16 or 17 to select the TIM peripheral.
 429:../src/stm32f30x_tim.c ****   * @retval Prescaler Register value.
 430:../src/stm32f30x_tim.c ****   */
 431:../src/stm32f30x_tim.c **** uint16_t TIM_GetPrescaler(TIM_TypeDef* TIMx)
 432:../src/stm32f30x_tim.c **** {
 622              		.loc 1 432 0
 623              		.cfi_startproc
 624              		@ args = 0, pretend = 0, frame = 8
 625              		@ frame_needed = 1, uses_anonymous_args = 0
 626              		@ link register save eliminated.
 627 0394 80B4     		push	{r7}
 628              	.LCFI24:
 629              		.cfi_def_cfa_offset 4
 630              		.cfi_offset 7, -4
 631 0396 83B0     		sub	sp, sp, #12
 632              	.LCFI25:
 633              		.cfi_def_cfa_offset 16
 634 0398 00AF     		add	r7, sp, #0
 635              	.LCFI26:
 636              		.cfi_def_cfa_register 7
 637 039a 7860     		str	r0, [r7, #4]
 433:../src/stm32f30x_tim.c ****   /* Check the parameters */
 434:../src/stm32f30x_tim.c ****   assert_param(IS_TIM_ALL_PERIPH(TIMx));
 435:../src/stm32f30x_tim.c **** 
 436:../src/stm32f30x_tim.c ****   /* Get the Prescaler Register value */
 437:../src/stm32f30x_tim.c ****   return TIMx->PSC;
 638              		.loc 1 437 0
 639 039c 7B68     		ldr	r3, [r7, #4]
 640 039e 1B8D     		ldrh	r3, [r3, #40]	@ movhi
 641 03a0 9BB2     		uxth	r3, r3
 438:../src/stm32f30x_tim.c **** }
 642              		.loc 1 438 0
 643 03a2 1846     		mov	r0, r3
 644 03a4 07F10C07 		add	r7, r7, #12
 645 03a8 BD46     		mov	sp, r7
 646 03aa 80BC     		pop	{r7}
 647 03ac 7047     		bx	lr
 648              		.cfi_endproc
 649              	.LFE119:
 651 03ae 00BF     		.align	2
 652              		.global	TIM_UpdateDisableConfig
 653              		.thumb
 654              		.thumb_func
 656              	TIM_UpdateDisableConfig:
 657              	.LFB120:
 439:../src/stm32f30x_tim.c **** 
 440:../src/stm32f30x_tim.c **** /**
 441:../src/stm32f30x_tim.c ****   * @brief  Enables or Disables the TIMx Update event.
 442:../src/stm32f30x_tim.c ****   * @param  TIMx: where x can be 1, 2, 3, 4, 6 ,7 ,8, 15, 16 or 17 to select the TIM peripheral.
 443:../src/stm32f30x_tim.c ****   * @param  NewState: new state of the TIMx UDIS bit
 444:../src/stm32f30x_tim.c ****   *          This parameter can be: ENABLE or DISABLE.
 445:../src/stm32f30x_tim.c ****   * @retval None
 446:../src/stm32f30x_tim.c ****   */
 447:../src/stm32f30x_tim.c **** void TIM_UpdateDisableConfig(TIM_TypeDef* TIMx, FunctionalState NewState)
 448:../src/stm32f30x_tim.c **** {
 658              		.loc 1 448 0
 659              		.cfi_startproc
 660              		@ args = 0, pretend = 0, frame = 8
 661              		@ frame_needed = 1, uses_anonymous_args = 0
 662              		@ link register save eliminated.
 663 03b0 80B4     		push	{r7}
 664              	.LCFI27:
 665              		.cfi_def_cfa_offset 4
 666              		.cfi_offset 7, -4
 667 03b2 83B0     		sub	sp, sp, #12
 668              	.LCFI28:
 669              		.cfi_def_cfa_offset 16
 670 03b4 00AF     		add	r7, sp, #0
 671              	.LCFI29:
 672              		.cfi_def_cfa_register 7
 673 03b6 7860     		str	r0, [r7, #4]
 674 03b8 0B46     		mov	r3, r1
 675 03ba FB70     		strb	r3, [r7, #3]
 449:../src/stm32f30x_tim.c ****   /* Check the parameters */
 450:../src/stm32f30x_tim.c ****   assert_param(IS_TIM_ALL_PERIPH(TIMx));
 451:../src/stm32f30x_tim.c ****   assert_param(IS_FUNCTIONAL_STATE(NewState));
 452:../src/stm32f30x_tim.c **** 
 453:../src/stm32f30x_tim.c ****   if (NewState != DISABLE)
 676              		.loc 1 453 0
 677 03bc FB78     		ldrb	r3, [r7, #3]	@ zero_extendqisi2
 678 03be 002B     		cmp	r3, #0
 679 03c0 08D0     		beq	.L28
 454:../src/stm32f30x_tim.c ****   {
 455:../src/stm32f30x_tim.c ****     /* Set the Update Disable Bit */
 456:../src/stm32f30x_tim.c ****     TIMx->CR1 |= TIM_CR1_UDIS;
 680              		.loc 1 456 0
 681 03c2 7B68     		ldr	r3, [r7, #4]
 682 03c4 1B88     		ldrh	r3, [r3, #0]	@ movhi
 683 03c6 9BB2     		uxth	r3, r3
 684 03c8 43F00203 		orr	r3, r3, #2
 685 03cc 9AB2     		uxth	r2, r3
 686 03ce 7B68     		ldr	r3, [r7, #4]
 687 03d0 1A80     		strh	r2, [r3, #0]	@ movhi
 688 03d2 07E0     		b	.L27
 689              	.L28:
 457:../src/stm32f30x_tim.c ****   }
 458:../src/stm32f30x_tim.c ****   else
 459:../src/stm32f30x_tim.c ****   {
 460:../src/stm32f30x_tim.c ****     /* Reset the Update Disable Bit */
 461:../src/stm32f30x_tim.c ****     TIMx->CR1 &= (uint16_t)~TIM_CR1_UDIS;
 690              		.loc 1 461 0
 691 03d4 7B68     		ldr	r3, [r7, #4]
 692 03d6 1B88     		ldrh	r3, [r3, #0]	@ movhi
 693 03d8 9BB2     		uxth	r3, r3
 694 03da 23F00203 		bic	r3, r3, #2
 695 03de 9AB2     		uxth	r2, r3
 696 03e0 7B68     		ldr	r3, [r7, #4]
 697 03e2 1A80     		strh	r2, [r3, #0]	@ movhi
 698              	.L27:
 462:../src/stm32f30x_tim.c ****   }
 463:../src/stm32f30x_tim.c **** }
 699              		.loc 1 463 0
 700 03e4 07F10C07 		add	r7, r7, #12
 701 03e8 BD46     		mov	sp, r7
 702 03ea 80BC     		pop	{r7}
 703 03ec 7047     		bx	lr
 704              		.cfi_endproc
 705              	.LFE120:
 707 03ee 00BF     		.align	2
 708              		.global	TIM_UpdateRequestConfig
 709              		.thumb
 710              		.thumb_func
 712              	TIM_UpdateRequestConfig:
 713              	.LFB121:
 464:../src/stm32f30x_tim.c **** 
 465:../src/stm32f30x_tim.c **** /**
 466:../src/stm32f30x_tim.c ****   * @brief  Configures the TIMx Update Request Interrupt source.
 467:../src/stm32f30x_tim.c ****   * @param  TIMx: where x can be 1, 2, 3, 4, 6 ,7 ,8, 15, 16 or 17 to select the TIM peripheral.
 468:../src/stm32f30x_tim.c ****   * @param  TIM_UpdateSource: specifies the Update source.
 469:../src/stm32f30x_tim.c ****   *          This parameter can be one of the following values:
 470:../src/stm32f30x_tim.c ****   *            @arg TIM_UpdateSource_Regular: Source of update is the counter
 471:../src/stm32f30x_tim.c ****   *                 overflow/underflow or the setting of UG bit, or an update
 472:../src/stm32f30x_tim.c ****   *                 generation through the slave mode controller.
 473:../src/stm32f30x_tim.c ****   *            @arg TIM_UpdateSource_Global: Source of update is counter overflow/underflow.
 474:../src/stm32f30x_tim.c ****   * @retval None
 475:../src/stm32f30x_tim.c ****   */
 476:../src/stm32f30x_tim.c **** void TIM_UpdateRequestConfig(TIM_TypeDef* TIMx, uint16_t TIM_UpdateSource)
 477:../src/stm32f30x_tim.c **** {
 714              		.loc 1 477 0
 715              		.cfi_startproc
 716              		@ args = 0, pretend = 0, frame = 8
 717              		@ frame_needed = 1, uses_anonymous_args = 0
 718              		@ link register save eliminated.
 719 03f0 80B4     		push	{r7}
 720              	.LCFI30:
 721              		.cfi_def_cfa_offset 4
 722              		.cfi_offset 7, -4
 723 03f2 83B0     		sub	sp, sp, #12
 724              	.LCFI31:
 725              		.cfi_def_cfa_offset 16
 726 03f4 00AF     		add	r7, sp, #0
 727              	.LCFI32:
 728              		.cfi_def_cfa_register 7
 729 03f6 7860     		str	r0, [r7, #4]
 730 03f8 0B46     		mov	r3, r1
 731 03fa 7B80     		strh	r3, [r7, #2]	@ movhi
 478:../src/stm32f30x_tim.c ****   /* Check the parameters */
 479:../src/stm32f30x_tim.c ****   assert_param(IS_TIM_ALL_PERIPH(TIMx));
 480:../src/stm32f30x_tim.c ****   assert_param(IS_TIM_UPDATE_SOURCE(TIM_UpdateSource));
 481:../src/stm32f30x_tim.c **** 
 482:../src/stm32f30x_tim.c ****   if (TIM_UpdateSource != TIM_UpdateSource_Global)
 732              		.loc 1 482 0
 733 03fc 7B88     		ldrh	r3, [r7, #2]
 734 03fe 002B     		cmp	r3, #0
 735 0400 08D0     		beq	.L31
 483:../src/stm32f30x_tim.c ****   {
 484:../src/stm32f30x_tim.c ****     /* Set the URS Bit */
 485:../src/stm32f30x_tim.c ****     TIMx->CR1 |= TIM_CR1_URS;
 736              		.loc 1 485 0
 737 0402 7B68     		ldr	r3, [r7, #4]
 738 0404 1B88     		ldrh	r3, [r3, #0]	@ movhi
 739 0406 9BB2     		uxth	r3, r3
 740 0408 43F00403 		orr	r3, r3, #4
 741 040c 9AB2     		uxth	r2, r3
 742 040e 7B68     		ldr	r3, [r7, #4]
 743 0410 1A80     		strh	r2, [r3, #0]	@ movhi
 744 0412 07E0     		b	.L30
 745              	.L31:
 486:../src/stm32f30x_tim.c ****   }
 487:../src/stm32f30x_tim.c ****   else
 488:../src/stm32f30x_tim.c ****   {
 489:../src/stm32f30x_tim.c ****     /* Reset the URS Bit */
 490:../src/stm32f30x_tim.c ****     TIMx->CR1 &= (uint16_t)~TIM_CR1_URS;
 746              		.loc 1 490 0
 747 0414 7B68     		ldr	r3, [r7, #4]
 748 0416 1B88     		ldrh	r3, [r3, #0]	@ movhi
 749 0418 9BB2     		uxth	r3, r3
 750 041a 23F00403 		bic	r3, r3, #4
 751 041e 9AB2     		uxth	r2, r3
 752 0420 7B68     		ldr	r3, [r7, #4]
 753 0422 1A80     		strh	r2, [r3, #0]	@ movhi
 754              	.L30:
 491:../src/stm32f30x_tim.c ****   }
 492:../src/stm32f30x_tim.c **** }
 755              		.loc 1 492 0
 756 0424 07F10C07 		add	r7, r7, #12
 757 0428 BD46     		mov	sp, r7
 758 042a 80BC     		pop	{r7}
 759 042c 7047     		bx	lr
 760              		.cfi_endproc
 761              	.LFE121:
 763 042e 00BF     		.align	2
 764              		.global	TIM_UIFRemap
 765              		.thumb
 766              		.thumb_func
 768              	TIM_UIFRemap:
 769              	.LFB122:
 493:../src/stm32f30x_tim.c **** 
 494:../src/stm32f30x_tim.c **** /**
 495:../src/stm32f30x_tim.c ****   * @brief  Sets or resets the update interrupt flag (UIF)status bit Remapping.
 496:../src/stm32f30x_tim.c ****   *         when sets, reading TIMx_CNT register returns UIF bit instead of CNT[31]  
 497:../src/stm32f30x_tim.c ****   * @param  TIMx: where x can be 1, 2, 3, 4, 6 ,7 ,8, 15, 16 or 17 to select the TIM peripheral.
 498:../src/stm32f30x_tim.c ****   * @param  NewState: new state of the UIFREMAP bit.
 499:../src/stm32f30x_tim.c ****   *          This parameter can be: ENABLE or DISABLE.
 500:../src/stm32f30x_tim.c ****   * @retval None
 501:../src/stm32f30x_tim.c ****   */
 502:../src/stm32f30x_tim.c **** void TIM_UIFRemap(TIM_TypeDef* TIMx, FunctionalState NewState)
 503:../src/stm32f30x_tim.c **** {
 770              		.loc 1 503 0
 771              		.cfi_startproc
 772              		@ args = 0, pretend = 0, frame = 8
 773              		@ frame_needed = 1, uses_anonymous_args = 0
 774              		@ link register save eliminated.
 775 0430 80B4     		push	{r7}
 776              	.LCFI33:
 777              		.cfi_def_cfa_offset 4
 778              		.cfi_offset 7, -4
 779 0432 83B0     		sub	sp, sp, #12
 780              	.LCFI34:
 781              		.cfi_def_cfa_offset 16
 782 0434 00AF     		add	r7, sp, #0
 783              	.LCFI35:
 784              		.cfi_def_cfa_register 7
 785 0436 7860     		str	r0, [r7, #4]
 786 0438 0B46     		mov	r3, r1
 787 043a FB70     		strb	r3, [r7, #3]
 504:../src/stm32f30x_tim.c ****   /* Check the parameters */
 505:../src/stm32f30x_tim.c ****   assert_param(IS_TIM_ALL_PERIPH(TIMx)); 
 506:../src/stm32f30x_tim.c ****   assert_param(IS_FUNCTIONAL_STATE(NewState));
 507:../src/stm32f30x_tim.c ****   
 508:../src/stm32f30x_tim.c ****   if (NewState != DISABLE)
 788              		.loc 1 508 0
 789 043c FB78     		ldrb	r3, [r7, #3]	@ zero_extendqisi2
 790 043e 002B     		cmp	r3, #0
 791 0440 08D0     		beq	.L34
 509:../src/stm32f30x_tim.c ****   {
 510:../src/stm32f30x_tim.c ****     /* Enable the TIM Counter */
 511:../src/stm32f30x_tim.c ****     TIMx->CR1 |= TIM_CR1_UIFREMAP;
 792              		.loc 1 511 0
 793 0442 7B68     		ldr	r3, [r7, #4]
 794 0444 1B88     		ldrh	r3, [r3, #0]	@ movhi
 795 0446 9BB2     		uxth	r3, r3
 796 0448 43F40063 		orr	r3, r3, #2048
 797 044c 9AB2     		uxth	r2, r3
 798 044e 7B68     		ldr	r3, [r7, #4]
 799 0450 1A80     		strh	r2, [r3, #0]	@ movhi
 800 0452 07E0     		b	.L33
 801              	.L34:
 512:../src/stm32f30x_tim.c ****   }
 513:../src/stm32f30x_tim.c ****   else
 514:../src/stm32f30x_tim.c ****   {
 515:../src/stm32f30x_tim.c ****     /* Disable the TIM Counter */
 516:../src/stm32f30x_tim.c ****     TIMx->CR1 &= (uint16_t)~TIM_CR1_UIFREMAP;
 802              		.loc 1 516 0
 803 0454 7B68     		ldr	r3, [r7, #4]
 804 0456 1B88     		ldrh	r3, [r3, #0]	@ movhi
 805 0458 9BB2     		uxth	r3, r3
 806 045a 23F40063 		bic	r3, r3, #2048
 807 045e 9AB2     		uxth	r2, r3
 808 0460 7B68     		ldr	r3, [r7, #4]
 809 0462 1A80     		strh	r2, [r3, #0]	@ movhi
 810              	.L33:
 517:../src/stm32f30x_tim.c ****   }  
 518:../src/stm32f30x_tim.c **** }
 811              		.loc 1 518 0
 812 0464 07F10C07 		add	r7, r7, #12
 813 0468 BD46     		mov	sp, r7
 814 046a 80BC     		pop	{r7}
 815 046c 7047     		bx	lr
 816              		.cfi_endproc
 817              	.LFE122:
 819 046e 00BF     		.align	2
 820              		.global	TIM_ARRPreloadConfig
 821              		.thumb
 822              		.thumb_func
 824              	TIM_ARRPreloadConfig:
 825              	.LFB123:
 519:../src/stm32f30x_tim.c **** 
 520:../src/stm32f30x_tim.c **** /**
 521:../src/stm32f30x_tim.c ****   * @brief  Enables or disables TIMx peripheral Preload register on ARR.
 522:../src/stm32f30x_tim.c ****   * @param  TIMx: where x can be 1, 2, 3, 4, 6 ,7 ,8, 15, 16 or 17 to select the TIM peripheral.
 523:../src/stm32f30x_tim.c ****   * @param  NewState: new state of the TIMx peripheral Preload register
 524:../src/stm32f30x_tim.c ****   *          This parameter can be: ENABLE or DISABLE.
 525:../src/stm32f30x_tim.c ****   * @retval None
 526:../src/stm32f30x_tim.c ****   */
 527:../src/stm32f30x_tim.c **** void TIM_ARRPreloadConfig(TIM_TypeDef* TIMx, FunctionalState NewState)
 528:../src/stm32f30x_tim.c **** {
 826              		.loc 1 528 0
 827              		.cfi_startproc
 828              		@ args = 0, pretend = 0, frame = 8
 829              		@ frame_needed = 1, uses_anonymous_args = 0
 830              		@ link register save eliminated.
 831 0470 80B4     		push	{r7}
 832              	.LCFI36:
 833              		.cfi_def_cfa_offset 4
 834              		.cfi_offset 7, -4
 835 0472 83B0     		sub	sp, sp, #12
 836              	.LCFI37:
 837              		.cfi_def_cfa_offset 16
 838 0474 00AF     		add	r7, sp, #0
 839              	.LCFI38:
 840              		.cfi_def_cfa_register 7
 841 0476 7860     		str	r0, [r7, #4]
 842 0478 0B46     		mov	r3, r1
 843 047a FB70     		strb	r3, [r7, #3]
 529:../src/stm32f30x_tim.c ****   /* Check the parameters */
 530:../src/stm32f30x_tim.c ****   assert_param(IS_TIM_ALL_PERIPH(TIMx));
 531:../src/stm32f30x_tim.c ****   assert_param(IS_FUNCTIONAL_STATE(NewState));
 532:../src/stm32f30x_tim.c **** 
 533:../src/stm32f30x_tim.c ****   if (NewState != DISABLE)
 844              		.loc 1 533 0
 845 047c FB78     		ldrb	r3, [r7, #3]	@ zero_extendqisi2
 846 047e 002B     		cmp	r3, #0
 847 0480 08D0     		beq	.L37
 534:../src/stm32f30x_tim.c ****   {
 535:../src/stm32f30x_tim.c ****     /* Set the ARR Preload Bit */
 536:../src/stm32f30x_tim.c ****     TIMx->CR1 |= TIM_CR1_ARPE;
 848              		.loc 1 536 0
 849 0482 7B68     		ldr	r3, [r7, #4]
 850 0484 1B88     		ldrh	r3, [r3, #0]	@ movhi
 851 0486 9BB2     		uxth	r3, r3
 852 0488 43F08003 		orr	r3, r3, #128
 853 048c 9AB2     		uxth	r2, r3
 854 048e 7B68     		ldr	r3, [r7, #4]
 855 0490 1A80     		strh	r2, [r3, #0]	@ movhi
 856 0492 07E0     		b	.L36
 857              	.L37:
 537:../src/stm32f30x_tim.c ****   }
 538:../src/stm32f30x_tim.c ****   else
 539:../src/stm32f30x_tim.c ****   {
 540:../src/stm32f30x_tim.c ****     /* Reset the ARR Preload Bit */
 541:../src/stm32f30x_tim.c ****     TIMx->CR1 &= (uint16_t)~TIM_CR1_ARPE;
 858              		.loc 1 541 0
 859 0494 7B68     		ldr	r3, [r7, #4]
 860 0496 1B88     		ldrh	r3, [r3, #0]	@ movhi
 861 0498 9BB2     		uxth	r3, r3
 862 049a 23F08003 		bic	r3, r3, #128
 863 049e 9AB2     		uxth	r2, r3
 864 04a0 7B68     		ldr	r3, [r7, #4]
 865 04a2 1A80     		strh	r2, [r3, #0]	@ movhi
 866              	.L36:
 542:../src/stm32f30x_tim.c ****   }
 543:../src/stm32f30x_tim.c **** }
 867              		.loc 1 543 0
 868 04a4 07F10C07 		add	r7, r7, #12
 869 04a8 BD46     		mov	sp, r7
 870 04aa 80BC     		pop	{r7}
 871 04ac 7047     		bx	lr
 872              		.cfi_endproc
 873              	.LFE123:
 875 04ae 00BF     		.align	2
 876              		.global	TIM_SelectOnePulseMode
 877              		.thumb
 878              		.thumb_func
 880              	TIM_SelectOnePulseMode:
 881              	.LFB124:
 544:../src/stm32f30x_tim.c **** 
 545:../src/stm32f30x_tim.c **** /**
 546:../src/stm32f30x_tim.c ****   * @brief  Selects the TIMx's One Pulse Mode.
 547:../src/stm32f30x_tim.c ****   * @param  TIMx: where x can be 1, 2, 3, 4, 6 ,7 ,8, 15, 16 or 17 to select the TIM peripheral.
 548:../src/stm32f30x_tim.c ****   * @param  TIM_OPMode: specifies the OPM Mode to be used.
 549:../src/stm32f30x_tim.c ****   *          This parameter can be one of the following values:
 550:../src/stm32f30x_tim.c ****   *            @arg TIM_OPMode_Single
 551:../src/stm32f30x_tim.c ****   *            @arg TIM_OPMode_Repetitive
 552:../src/stm32f30x_tim.c ****   * @retval None
 553:../src/stm32f30x_tim.c ****   */
 554:../src/stm32f30x_tim.c **** void TIM_SelectOnePulseMode(TIM_TypeDef* TIMx, uint16_t TIM_OPMode)
 555:../src/stm32f30x_tim.c **** {
 882              		.loc 1 555 0
 883              		.cfi_startproc
 884              		@ args = 0, pretend = 0, frame = 8
 885              		@ frame_needed = 1, uses_anonymous_args = 0
 886              		@ link register save eliminated.
 887 04b0 80B4     		push	{r7}
 888              	.LCFI39:
 889              		.cfi_def_cfa_offset 4
 890              		.cfi_offset 7, -4
 891 04b2 83B0     		sub	sp, sp, #12
 892              	.LCFI40:
 893              		.cfi_def_cfa_offset 16
 894 04b4 00AF     		add	r7, sp, #0
 895              	.LCFI41:
 896              		.cfi_def_cfa_register 7
 897 04b6 7860     		str	r0, [r7, #4]
 898 04b8 0B46     		mov	r3, r1
 899 04ba 7B80     		strh	r3, [r7, #2]	@ movhi
 556:../src/stm32f30x_tim.c ****   /* Check the parameters */
 557:../src/stm32f30x_tim.c ****   assert_param(IS_TIM_ALL_PERIPH(TIMx));
 558:../src/stm32f30x_tim.c ****   assert_param(IS_TIM_OPM_MODE(TIM_OPMode));
 559:../src/stm32f30x_tim.c **** 
 560:../src/stm32f30x_tim.c ****   /* Reset the OPM Bit */
 561:../src/stm32f30x_tim.c ****   TIMx->CR1 &= (uint16_t)~TIM_CR1_OPM;
 900              		.loc 1 561 0
 901 04bc 7B68     		ldr	r3, [r7, #4]
 902 04be 1B88     		ldrh	r3, [r3, #0]	@ movhi
 903 04c0 9BB2     		uxth	r3, r3
 904 04c2 23F00803 		bic	r3, r3, #8
 905 04c6 9AB2     		uxth	r2, r3
 906 04c8 7B68     		ldr	r3, [r7, #4]
 907 04ca 1A80     		strh	r2, [r3, #0]	@ movhi
 562:../src/stm32f30x_tim.c **** 
 563:../src/stm32f30x_tim.c ****   /* Configure the OPM Mode */
 564:../src/stm32f30x_tim.c ****   TIMx->CR1 |= TIM_OPMode;
 908              		.loc 1 564 0
 909 04cc 7B68     		ldr	r3, [r7, #4]
 910 04ce 1B88     		ldrh	r3, [r3, #0]	@ movhi
 911 04d0 9AB2     		uxth	r2, r3
 912 04d2 7B88     		ldrh	r3, [r7, #2]	@ movhi
 913 04d4 1343     		orrs	r3, r3, r2
 914 04d6 9AB2     		uxth	r2, r3
 915 04d8 7B68     		ldr	r3, [r7, #4]
 916 04da 1A80     		strh	r2, [r3, #0]	@ movhi
 565:../src/stm32f30x_tim.c **** }
 917              		.loc 1 565 0
 918 04dc 07F10C07 		add	r7, r7, #12
 919 04e0 BD46     		mov	sp, r7
 920 04e2 80BC     		pop	{r7}
 921 04e4 7047     		bx	lr
 922              		.cfi_endproc
 923              	.LFE124:
 925 04e6 00BF     		.align	2
 926              		.global	TIM_SetClockDivision
 927              		.thumb
 928              		.thumb_func
 930              	TIM_SetClockDivision:
 931              	.LFB125:
 566:../src/stm32f30x_tim.c **** 
 567:../src/stm32f30x_tim.c **** /**
 568:../src/stm32f30x_tim.c ****   * @brief  Sets the TIMx Clock Division value.
 569:../src/stm32f30x_tim.c ****   * @param  TIMx: where x can be 1, 2, 3, 4, 8, 15, 16 or 17, to select the TIM peripheral.
 570:../src/stm32f30x_tim.c ****   * @param  TIM_CKD: specifies the clock division value.
 571:../src/stm32f30x_tim.c ****   *          This parameter can be one of the following value:
 572:../src/stm32f30x_tim.c ****   *            @arg TIM_CKD_DIV1: TDTS = Tck_tim
 573:../src/stm32f30x_tim.c ****   *            @arg TIM_CKD_DIV2: TDTS = 2*Tck_tim
 574:../src/stm32f30x_tim.c ****   *            @arg TIM_CKD_DIV4: TDTS = 4*Tck_tim
 575:../src/stm32f30x_tim.c ****   * @retval None
 576:../src/stm32f30x_tim.c ****   */
 577:../src/stm32f30x_tim.c **** void TIM_SetClockDivision(TIM_TypeDef* TIMx, uint16_t TIM_CKD)
 578:../src/stm32f30x_tim.c **** {
 932              		.loc 1 578 0
 933              		.cfi_startproc
 934              		@ args = 0, pretend = 0, frame = 8
 935              		@ frame_needed = 1, uses_anonymous_args = 0
 936              		@ link register save eliminated.
 937 04e8 80B4     		push	{r7}
 938              	.LCFI42:
 939              		.cfi_def_cfa_offset 4
 940              		.cfi_offset 7, -4
 941 04ea 83B0     		sub	sp, sp, #12
 942              	.LCFI43:
 943              		.cfi_def_cfa_offset 16
 944 04ec 00AF     		add	r7, sp, #0
 945              	.LCFI44:
 946              		.cfi_def_cfa_register 7
 947 04ee 7860     		str	r0, [r7, #4]
 948 04f0 0B46     		mov	r3, r1
 949 04f2 7B80     		strh	r3, [r7, #2]	@ movhi
 579:../src/stm32f30x_tim.c ****   /* Check the parameters */
 580:../src/stm32f30x_tim.c ****   assert_param(IS_TIM_LIST1_PERIPH(TIMx));
 581:../src/stm32f30x_tim.c ****   assert_param(IS_TIM_CKD_DIV(TIM_CKD));
 582:../src/stm32f30x_tim.c **** 
 583:../src/stm32f30x_tim.c ****   /* Reset the CKD Bits */
 584:../src/stm32f30x_tim.c ****   TIMx->CR1 &= (uint16_t)(~TIM_CR1_CKD);
 950              		.loc 1 584 0
 951 04f4 7B68     		ldr	r3, [r7, #4]
 952 04f6 1B88     		ldrh	r3, [r3, #0]	@ movhi
 953 04f8 9BB2     		uxth	r3, r3
 954 04fa 23F44073 		bic	r3, r3, #768
 955 04fe 9AB2     		uxth	r2, r3
 956 0500 7B68     		ldr	r3, [r7, #4]
 957 0502 1A80     		strh	r2, [r3, #0]	@ movhi
 585:../src/stm32f30x_tim.c **** 
 586:../src/stm32f30x_tim.c ****   /* Set the CKD value */
 587:../src/stm32f30x_tim.c ****   TIMx->CR1 |= TIM_CKD;
 958              		.loc 1 587 0
 959 0504 7B68     		ldr	r3, [r7, #4]
 960 0506 1B88     		ldrh	r3, [r3, #0]	@ movhi
 961 0508 9AB2     		uxth	r2, r3
 962 050a 7B88     		ldrh	r3, [r7, #2]	@ movhi
 963 050c 1343     		orrs	r3, r3, r2
 964 050e 9AB2     		uxth	r2, r3
 965 0510 7B68     		ldr	r3, [r7, #4]
 966 0512 1A80     		strh	r2, [r3, #0]	@ movhi
 588:../src/stm32f30x_tim.c **** }
 967              		.loc 1 588 0
 968 0514 07F10C07 		add	r7, r7, #12
 969 0518 BD46     		mov	sp, r7
 970 051a 80BC     		pop	{r7}
 971 051c 7047     		bx	lr
 972              		.cfi_endproc
 973              	.LFE125:
 975 051e 00BF     		.align	2
 976              		.global	TIM_Cmd
 977              		.thumb
 978              		.thumb_func
 980              	TIM_Cmd:
 981              	.LFB126:
 589:../src/stm32f30x_tim.c **** 
 590:../src/stm32f30x_tim.c **** /**
 591:../src/stm32f30x_tim.c ****   * @brief  Enables or disables the specified TIM peripheral.
 592:../src/stm32f30x_tim.c ****   * @param  TIMx: where x can be 1, 2, 3, 4, 6, 7, 8, 15, 16 or 17 to select 
 593:../src/stm32f30x_tim.c ****   *        the TIMx peripheral.
 594:../src/stm32f30x_tim.c ****   * @param  NewState: new state of the TIMx peripheral.
 595:../src/stm32f30x_tim.c ****   *          This parameter can be: ENABLE or DISABLE.
 596:../src/stm32f30x_tim.c ****   * @retval None
 597:../src/stm32f30x_tim.c ****   */
 598:../src/stm32f30x_tim.c **** void TIM_Cmd(TIM_TypeDef* TIMx, FunctionalState NewState)
 599:../src/stm32f30x_tim.c **** {
 982              		.loc 1 599 0
 983              		.cfi_startproc
 984              		@ args = 0, pretend = 0, frame = 8
 985              		@ frame_needed = 1, uses_anonymous_args = 0
 986              		@ link register save eliminated.
 987 0520 80B4     		push	{r7}
 988              	.LCFI45:
 989              		.cfi_def_cfa_offset 4
 990              		.cfi_offset 7, -4
 991 0522 83B0     		sub	sp, sp, #12
 992              	.LCFI46:
 993              		.cfi_def_cfa_offset 16
 994 0524 00AF     		add	r7, sp, #0
 995              	.LCFI47:
 996              		.cfi_def_cfa_register 7
 997 0526 7860     		str	r0, [r7, #4]
 998 0528 0B46     		mov	r3, r1
 999 052a FB70     		strb	r3, [r7, #3]
 600:../src/stm32f30x_tim.c ****   /* Check the parameters */
 601:../src/stm32f30x_tim.c ****   assert_param(IS_TIM_ALL_PERIPH(TIMx)); 
 602:../src/stm32f30x_tim.c ****   assert_param(IS_FUNCTIONAL_STATE(NewState));
 603:../src/stm32f30x_tim.c ****   
 604:../src/stm32f30x_tim.c ****   if (NewState != DISABLE)
 1000              		.loc 1 604 0
 1001 052c FB78     		ldrb	r3, [r7, #3]	@ zero_extendqisi2
 1002 052e 002B     		cmp	r3, #0
 1003 0530 08D0     		beq	.L42
 605:../src/stm32f30x_tim.c ****   {
 606:../src/stm32f30x_tim.c ****     /* Enable the TIM Counter */
 607:../src/stm32f30x_tim.c ****     TIMx->CR1 |= TIM_CR1_CEN;
 1004              		.loc 1 607 0
 1005 0532 7B68     		ldr	r3, [r7, #4]
 1006 0534 1B88     		ldrh	r3, [r3, #0]	@ movhi
 1007 0536 9BB2     		uxth	r3, r3
 1008 0538 43F00103 		orr	r3, r3, #1
 1009 053c 9AB2     		uxth	r2, r3
 1010 053e 7B68     		ldr	r3, [r7, #4]
 1011 0540 1A80     		strh	r2, [r3, #0]	@ movhi
 1012 0542 07E0     		b	.L41
 1013              	.L42:
 608:../src/stm32f30x_tim.c ****   }
 609:../src/stm32f30x_tim.c ****   else
 610:../src/stm32f30x_tim.c ****   {
 611:../src/stm32f30x_tim.c ****     /* Disable the TIM Counter */
 612:../src/stm32f30x_tim.c ****     TIMx->CR1 &= (uint16_t)~TIM_CR1_CEN;
 1014              		.loc 1 612 0
 1015 0544 7B68     		ldr	r3, [r7, #4]
 1016 0546 1B88     		ldrh	r3, [r3, #0]	@ movhi
 1017 0548 9BB2     		uxth	r3, r3
 1018 054a 23F00103 		bic	r3, r3, #1
 1019 054e 9AB2     		uxth	r2, r3
 1020 0550 7B68     		ldr	r3, [r7, #4]
 1021 0552 1A80     		strh	r2, [r3, #0]	@ movhi
 1022              	.L41:
 613:../src/stm32f30x_tim.c ****   }
 614:../src/stm32f30x_tim.c **** }
 1023              		.loc 1 614 0
 1024 0554 07F10C07 		add	r7, r7, #12
 1025 0558 BD46     		mov	sp, r7
 1026 055a 80BC     		pop	{r7}
 1027 055c 7047     		bx	lr
 1028              		.cfi_endproc
 1029              	.LFE126:
 1031 055e 00BF     		.align	2
 1032              		.global	TIM_OC1Init
 1033              		.thumb
 1034              		.thumb_func
 1036              	TIM_OC1Init:
 1037              	.LFB127:
 615:../src/stm32f30x_tim.c **** /**
 616:../src/stm32f30x_tim.c ****   * @}
 617:../src/stm32f30x_tim.c ****   */
 618:../src/stm32f30x_tim.c **** 
 619:../src/stm32f30x_tim.c **** /** @defgroup TIM_Group2 Output Compare management functions
 620:../src/stm32f30x_tim.c ****  *  @brief    Output Compare management functions 
 621:../src/stm32f30x_tim.c ****  *
 622:../src/stm32f30x_tim.c **** @verbatim   
 623:../src/stm32f30x_tim.c ****  ===============================================================================
 624:../src/stm32f30x_tim.c ****                 ##### Output Compare management functions #####
 625:../src/stm32f30x_tim.c ****  ===============================================================================  
 626:../src/stm32f30x_tim.c ****        
 627:../src/stm32f30x_tim.c ****   *** TIM Driver: how to use it in Output Compare Mode ***
 628:../src/stm32f30x_tim.c ****   ======================================================== 
 629:../src/stm32f30x_tim.c ****   [..] 
 630:../src/stm32f30x_tim.c ****   To use the Timer in Output Compare mode, the following steps are mandatory:
 631:../src/stm32f30x_tim.c ****        
 632:../src/stm32f30x_tim.c ****        (#) Enable TIM clock using RCC_APBxPeriphClockCmd(RCC_APBxPeriph_TIMx, ENABLE) function
 633:../src/stm32f30x_tim.c ****        
 634:../src/stm32f30x_tim.c ****        (#) Configure the TIM pins by configuring the corresponding GPIO pins
 635:../src/stm32f30x_tim.c ****        
 636:../src/stm32f30x_tim.c ****        (#) Configure the Time base unit as described in the first part of this driver, 
 637:../src/stm32f30x_tim.c ****            if needed, else the Timer will run with the default configuration:
 638:../src/stm32f30x_tim.c ****            (++) Autoreload value = 0xFFFF
 639:../src/stm32f30x_tim.c ****            (++) Prescaler value = 0x0000
 640:../src/stm32f30x_tim.c ****            (++) Counter mode = Up counting
 641:../src/stm32f30x_tim.c ****            (++) Clock Division = TIM_CKD_DIV1   
 642:../src/stm32f30x_tim.c ****        (#) Fill the TIM_OCInitStruct with the desired parameters including:
 643:../src/stm32f30x_tim.c ****            (++) The TIM Output Compare mode: TIM_OCMode
 644:../src/stm32f30x_tim.c ****            (++) TIM Output State: TIM_OutputState
 645:../src/stm32f30x_tim.c ****            (++) TIM Pulse value: TIM_Pulse
 646:../src/stm32f30x_tim.c ****            (++) TIM Output Compare Polarity : TIM_OCPolarity
 647:../src/stm32f30x_tim.c ****        
 648:../src/stm32f30x_tim.c ****        (#) Call TIM_OCxInit(TIMx, &TIM_OCInitStruct) to configure the desired channel with the 
 649:../src/stm32f30x_tim.c ****            corresponding configuration
 650:../src/stm32f30x_tim.c ****        
 651:../src/stm32f30x_tim.c ****        (#) Call the TIM_Cmd(ENABLE) function to enable the TIM counter.
 652:../src/stm32f30x_tim.c ****  [..]      
 653:../src/stm32f30x_tim.c ****        (@) All other functions can be used separately to modify, if needed,
 654:../src/stm32f30x_tim.c ****            a specific feature of the Timer. 
 655:../src/stm32f30x_tim.c ****           
 656:../src/stm32f30x_tim.c ****        (@) In case of PWM mode, this function is mandatory:
 657:../src/stm32f30x_tim.c ****            TIM_OCxPreloadConfig(TIMx, TIM_OCPreload_ENABLE); 
 658:../src/stm32f30x_tim.c ****               
 659:../src/stm32f30x_tim.c ****        (@) If the corresponding interrupt or DMA request are needed, the user should:
 660:../src/stm32f30x_tim.c ****                 (#@) Enable the NVIC (or the DMA) to use the TIM interrupts (or DMA requests). 
 661:../src/stm32f30x_tim.c ****                 (#@) Enable the corresponding interrupt (or DMA request) using the function 
 662:../src/stm32f30x_tim.c ****                      TIM_ITConfig(TIMx, TIM_IT_CCx) (or TIM_DMA_Cmd(TIMx, TIM_DMA_CCx))   
 663:../src/stm32f30x_tim.c **** 
 664:../src/stm32f30x_tim.c **** @endverbatim
 665:../src/stm32f30x_tim.c ****   * @{
 666:../src/stm32f30x_tim.c ****   */
 667:../src/stm32f30x_tim.c **** 
 668:../src/stm32f30x_tim.c **** /**
 669:../src/stm32f30x_tim.c ****   * @brief  Initializes the TIMx Channel1 according to the specified parameters in
 670:../src/stm32f30x_tim.c ****   *         the TIM_OCInitStruct.
 671:../src/stm32f30x_tim.c ****   * @param  TIMx: where x can be 1, 2, 3, 4, 8, 15, 16 or 17, to select the TIM peripheral.
 672:../src/stm32f30x_tim.c ****   * @param  TIM_OCInitStruct: pointer to a TIM_OCInitTypeDef structure that contains
 673:../src/stm32f30x_tim.c ****   *         the configuration information for the specified TIM peripheral.
 674:../src/stm32f30x_tim.c ****   * @retval None
 675:../src/stm32f30x_tim.c ****   */
 676:../src/stm32f30x_tim.c **** void TIM_OC1Init(TIM_TypeDef* TIMx, TIM_OCInitTypeDef* TIM_OCInitStruct)
 677:../src/stm32f30x_tim.c **** {
 1038              		.loc 1 677 0
 1039              		.cfi_startproc
 1040              		@ args = 0, pretend = 0, frame = 24
 1041              		@ frame_needed = 1, uses_anonymous_args = 0
 1042              		@ link register save eliminated.
 1043 0560 80B4     		push	{r7}
 1044              	.LCFI48:
 1045              		.cfi_def_cfa_offset 4
 1046              		.cfi_offset 7, -4
 1047 0562 87B0     		sub	sp, sp, #28
 1048              	.LCFI49:
 1049              		.cfi_def_cfa_offset 32
 1050 0564 00AF     		add	r7, sp, #0
 1051              	.LCFI50:
 1052              		.cfi_def_cfa_register 7
 1053 0566 7860     		str	r0, [r7, #4]
 1054 0568 3960     		str	r1, [r7, #0]
 678:../src/stm32f30x_tim.c ****   uint32_t tmpccmrx = 0, tmpccer = 0, tmpcr2 = 0;
 1055              		.loc 1 678 0
 1056 056a 4FF00003 		mov	r3, #0
 1057 056e FB60     		str	r3, [r7, #12]
 1058 0570 4FF00003 		mov	r3, #0
 1059 0574 7B61     		str	r3, [r7, #20]
 1060 0576 4FF00003 		mov	r3, #0
 1061 057a 3B61     		str	r3, [r7, #16]
 679:../src/stm32f30x_tim.c ****    
 680:../src/stm32f30x_tim.c ****   /* Check the parameters */
 681:../src/stm32f30x_tim.c ****   assert_param(IS_TIM_LIST1_PERIPH(TIMx)); 
 682:../src/stm32f30x_tim.c ****   assert_param(IS_TIM_OC_MODE(TIM_OCInitStruct->TIM_OCMode));
 683:../src/stm32f30x_tim.c ****   assert_param(IS_TIM_OUTPUT_STATE(TIM_OCInitStruct->TIM_OutputState));
 684:../src/stm32f30x_tim.c ****   assert_param(IS_TIM_OC_POLARITY(TIM_OCInitStruct->TIM_OCPolarity));   
 685:../src/stm32f30x_tim.c **** 
 686:../src/stm32f30x_tim.c ****   /* Disable the Channel 1: Reset the CC1E Bit */
 687:../src/stm32f30x_tim.c ****   TIMx->CCER &= (uint32_t)~TIM_CCER_CC1E;
 1062              		.loc 1 687 0
 1063 057c 7B68     		ldr	r3, [r7, #4]
 1064 057e 1B6A     		ldr	r3, [r3, #32]
 1065 0580 23F00102 		bic	r2, r3, #1
 1066 0584 7B68     		ldr	r3, [r7, #4]
 1067 0586 1A62     		str	r2, [r3, #32]
 688:../src/stm32f30x_tim.c ****   
 689:../src/stm32f30x_tim.c ****   /* Get the TIMx CCER register value */
 690:../src/stm32f30x_tim.c ****   tmpccer = TIMx->CCER;
 1068              		.loc 1 690 0
 1069 0588 7B68     		ldr	r3, [r7, #4]
 1070 058a 1B6A     		ldr	r3, [r3, #32]
 1071 058c 7B61     		str	r3, [r7, #20]
 691:../src/stm32f30x_tim.c ****   /* Get the TIMx CR2 register value */
 692:../src/stm32f30x_tim.c ****   tmpcr2 =  TIMx->CR2;
 1072              		.loc 1 692 0
 1073 058e 7B68     		ldr	r3, [r7, #4]
 1074 0590 5B68     		ldr	r3, [r3, #4]
 1075 0592 3B61     		str	r3, [r7, #16]
 693:../src/stm32f30x_tim.c ****   
 694:../src/stm32f30x_tim.c ****   /* Get the TIMx CCMR1 register value */
 695:../src/stm32f30x_tim.c ****   tmpccmrx = TIMx->CCMR1;
 1076              		.loc 1 695 0
 1077 0594 7B68     		ldr	r3, [r7, #4]
 1078 0596 9B69     		ldr	r3, [r3, #24]
 1079 0598 FB60     		str	r3, [r7, #12]
 696:../src/stm32f30x_tim.c ****     
 697:../src/stm32f30x_tim.c ****   /* Reset the Output Compare Mode Bits */
 698:../src/stm32f30x_tim.c ****   tmpccmrx &= (uint32_t)~TIM_CCMR1_OC1M;
 1080              		.loc 1 698 0
 1081 059a FB68     		ldr	r3, [r7, #12]
 1082 059c 23F48033 		bic	r3, r3, #65536
 1083 05a0 23F07003 		bic	r3, r3, #112
 1084 05a4 FB60     		str	r3, [r7, #12]
 699:../src/stm32f30x_tim.c ****   tmpccmrx &= (uint32_t)~TIM_CCMR1_CC1S;
 1085              		.loc 1 699 0
 1086 05a6 FB68     		ldr	r3, [r7, #12]
 1087 05a8 23F00303 		bic	r3, r3, #3
 1088 05ac FB60     		str	r3, [r7, #12]
 700:../src/stm32f30x_tim.c ****   /* Select the Output Compare Mode */
 701:../src/stm32f30x_tim.c ****   tmpccmrx |= TIM_OCInitStruct->TIM_OCMode;
 1089              		.loc 1 701 0
 1090 05ae 3B68     		ldr	r3, [r7, #0]
 1091 05b0 1B68     		ldr	r3, [r3, #0]
 1092 05b2 FA68     		ldr	r2, [r7, #12]
 1093 05b4 1343     		orrs	r3, r3, r2
 1094 05b6 FB60     		str	r3, [r7, #12]
 702:../src/stm32f30x_tim.c ****   
 703:../src/stm32f30x_tim.c ****   /* Reset the Output Polarity level */
 704:../src/stm32f30x_tim.c ****   tmpccer &= (uint32_t)~TIM_CCER_CC1P;
 1095              		.loc 1 704 0
 1096 05b8 7B69     		ldr	r3, [r7, #20]
 1097 05ba 23F00203 		bic	r3, r3, #2
 1098 05be 7B61     		str	r3, [r7, #20]
 705:../src/stm32f30x_tim.c ****   /* Set the Output Compare Polarity */
 706:../src/stm32f30x_tim.c ****   tmpccer |= TIM_OCInitStruct->TIM_OCPolarity;
 1099              		.loc 1 706 0
 1100 05c0 3B68     		ldr	r3, [r7, #0]
 1101 05c2 9B89     		ldrh	r3, [r3, #12]
 1102 05c4 7A69     		ldr	r2, [r7, #20]
 1103 05c6 1343     		orrs	r3, r3, r2
 1104 05c8 7B61     		str	r3, [r7, #20]
 707:../src/stm32f30x_tim.c ****   
 708:../src/stm32f30x_tim.c ****   /* Set the Output State */
 709:../src/stm32f30x_tim.c ****   tmpccer |= TIM_OCInitStruct->TIM_OutputState;
 1105              		.loc 1 709 0
 1106 05ca 3B68     		ldr	r3, [r7, #0]
 1107 05cc 9B88     		ldrh	r3, [r3, #4]
 1108 05ce 7A69     		ldr	r2, [r7, #20]
 1109 05d0 1343     		orrs	r3, r3, r2
 1110 05d2 7B61     		str	r3, [r7, #20]
 710:../src/stm32f30x_tim.c ****     
 711:../src/stm32f30x_tim.c ****   if((TIMx == TIM1) || (TIMx == TIM8) || (TIMx == TIM15) || (TIMx == TIM16) || (TIMx == TIM17))
 1111              		.loc 1 711 0
 1112 05d4 7A68     		ldr	r2, [r7, #4]
 1113 05d6 4FF43053 		mov	r3, #11264
 1114 05da C4F20103 		movt	r3, 16385
 1115 05de 9A42     		cmp	r2, r3
 1116 05e0 1BD0     		beq	.L45
 1117              		.loc 1 711 0 is_stmt 0 discriminator 1
 1118 05e2 7A68     		ldr	r2, [r7, #4]
 1119 05e4 4FF45053 		mov	r3, #13312
 1120 05e8 C4F20103 		movt	r3, 16385
 1121 05ec 9A42     		cmp	r2, r3
 1122 05ee 14D0     		beq	.L45
 1123 05f0 7A68     		ldr	r2, [r7, #4]
 1124 05f2 4FF48043 		mov	r3, #16384
 1125 05f6 C4F20103 		movt	r3, 16385
 1126 05fa 9A42     		cmp	r2, r3
 1127 05fc 0DD0     		beq	.L45
 1128 05fe 7A68     		ldr	r2, [r7, #4]
 1129 0600 4FF48843 		mov	r3, #17408
 1130 0604 C4F20103 		movt	r3, 16385
 1131 0608 9A42     		cmp	r2, r3
 1132 060a 06D0     		beq	.L45
 1133 060c 7A68     		ldr	r2, [r7, #4]
 1134 060e 4FF49043 		mov	r3, #18432
 1135 0612 C4F20103 		movt	r3, 16385
 1136 0616 9A42     		cmp	r2, r3
 1137 0618 23D1     		bne	.L46
 1138              	.L45:
 712:../src/stm32f30x_tim.c ****   {
 713:../src/stm32f30x_tim.c ****     assert_param(IS_TIM_OUTPUTN_STATE(TIM_OCInitStruct->TIM_OutputNState));
 714:../src/stm32f30x_tim.c ****     assert_param(IS_TIM_OCN_POLARITY(TIM_OCInitStruct->TIM_OCNPolarity));
 715:../src/stm32f30x_tim.c ****     assert_param(IS_TIM_OCNIDLE_STATE(TIM_OCInitStruct->TIM_OCNIdleState));
 716:../src/stm32f30x_tim.c ****     assert_param(IS_TIM_OCIDLE_STATE(TIM_OCInitStruct->TIM_OCIdleState));
 717:../src/stm32f30x_tim.c ****     
 718:../src/stm32f30x_tim.c ****     /* Reset the Output N Polarity level */
 719:../src/stm32f30x_tim.c ****     tmpccer &= (uint32_t)~TIM_CCER_CC1NP;
 1139              		.loc 1 719 0 is_stmt 1
 1140 061a 7B69     		ldr	r3, [r7, #20]
 1141 061c 23F00803 		bic	r3, r3, #8
 1142 0620 7B61     		str	r3, [r7, #20]
 720:../src/stm32f30x_tim.c ****     /* Set the Output N Polarity */
 721:../src/stm32f30x_tim.c ****     tmpccer |= TIM_OCInitStruct->TIM_OCNPolarity;
 1143              		.loc 1 721 0
 1144 0622 3B68     		ldr	r3, [r7, #0]
 1145 0624 DB89     		ldrh	r3, [r3, #14]
 1146 0626 7A69     		ldr	r2, [r7, #20]
 1147 0628 1343     		orrs	r3, r3, r2
 1148 062a 7B61     		str	r3, [r7, #20]
 722:../src/stm32f30x_tim.c ****     /* Reset the Output N State */
 723:../src/stm32f30x_tim.c ****     tmpccer &= (uint32_t)~TIM_CCER_CC1NE;
 1149              		.loc 1 723 0
 1150 062c 7B69     		ldr	r3, [r7, #20]
 1151 062e 23F00403 		bic	r3, r3, #4
 1152 0632 7B61     		str	r3, [r7, #20]
 724:../src/stm32f30x_tim.c ****     
 725:../src/stm32f30x_tim.c ****     /* Set the Output N State */
 726:../src/stm32f30x_tim.c ****     tmpccer |= TIM_OCInitStruct->TIM_OutputNState;
 1153              		.loc 1 726 0
 1154 0634 3B68     		ldr	r3, [r7, #0]
 1155 0636 DB88     		ldrh	r3, [r3, #6]
 1156 0638 7A69     		ldr	r2, [r7, #20]
 1157 063a 1343     		orrs	r3, r3, r2
 1158 063c 7B61     		str	r3, [r7, #20]
 727:../src/stm32f30x_tim.c ****     /* Reset the Output Compare and Output Compare N IDLE State */
 728:../src/stm32f30x_tim.c ****     tmpcr2 &= (uint32_t)~TIM_CR2_OIS1;
 1159              		.loc 1 728 0
 1160 063e 3B69     		ldr	r3, [r7, #16]
 1161 0640 23F48073 		bic	r3, r3, #256
 1162 0644 3B61     		str	r3, [r7, #16]
 729:../src/stm32f30x_tim.c ****     tmpcr2 &= (uint32_t)~TIM_CR2_OIS1N;
 1163              		.loc 1 729 0
 1164 0646 3B69     		ldr	r3, [r7, #16]
 1165 0648 23F40073 		bic	r3, r3, #512
 1166 064c 3B61     		str	r3, [r7, #16]
 730:../src/stm32f30x_tim.c ****     /* Set the Output Idle state */
 731:../src/stm32f30x_tim.c ****     tmpcr2 |= TIM_OCInitStruct->TIM_OCIdleState;
 1167              		.loc 1 731 0
 1168 064e 3B68     		ldr	r3, [r7, #0]
 1169 0650 1B8A     		ldrh	r3, [r3, #16]
 1170 0652 3A69     		ldr	r2, [r7, #16]
 1171 0654 1343     		orrs	r3, r3, r2
 1172 0656 3B61     		str	r3, [r7, #16]
 732:../src/stm32f30x_tim.c ****     /* Set the Output N Idle state */
 733:../src/stm32f30x_tim.c ****     tmpcr2 |= TIM_OCInitStruct->TIM_OCNIdleState;
 1173              		.loc 1 733 0
 1174 0658 3B68     		ldr	r3, [r7, #0]
 1175 065a 5B8A     		ldrh	r3, [r3, #18]
 1176 065c 3A69     		ldr	r2, [r7, #16]
 1177 065e 1343     		orrs	r3, r3, r2
 1178 0660 3B61     		str	r3, [r7, #16]
 1179              	.L46:
 734:../src/stm32f30x_tim.c ****   }
 735:../src/stm32f30x_tim.c ****   /* Write to TIMx CR2 */
 736:../src/stm32f30x_tim.c ****   TIMx->CR2 = tmpcr2;
 1180              		.loc 1 736 0
 1181 0662 7B68     		ldr	r3, [r7, #4]
 1182 0664 3A69     		ldr	r2, [r7, #16]
 1183 0666 5A60     		str	r2, [r3, #4]
 737:../src/stm32f30x_tim.c ****   
 738:../src/stm32f30x_tim.c ****   /* Write to TIMx CCMR1 */
 739:../src/stm32f30x_tim.c ****   TIMx->CCMR1 = tmpccmrx;
 1184              		.loc 1 739 0
 1185 0668 7B68     		ldr	r3, [r7, #4]
 1186 066a FA68     		ldr	r2, [r7, #12]
 1187 066c 9A61     		str	r2, [r3, #24]
 740:../src/stm32f30x_tim.c ****   
 741:../src/stm32f30x_tim.c ****   /* Set the Capture Compare Register value */
 742:../src/stm32f30x_tim.c ****   TIMx->CCR1 = TIM_OCInitStruct->TIM_Pulse;
 1188              		.loc 1 742 0
 1189 066e 3B68     		ldr	r3, [r7, #0]
 1190 0670 9A68     		ldr	r2, [r3, #8]
 1191 0672 7B68     		ldr	r3, [r7, #4]
 1192 0674 5A63     		str	r2, [r3, #52]
 743:../src/stm32f30x_tim.c ****   
 744:../src/stm32f30x_tim.c ****   /* Write to TIMx CCER */
 745:../src/stm32f30x_tim.c ****   TIMx->CCER = tmpccer;
 1193              		.loc 1 745 0
 1194 0676 7B68     		ldr	r3, [r7, #4]
 1195 0678 7A69     		ldr	r2, [r7, #20]
 1196 067a 1A62     		str	r2, [r3, #32]
 746:../src/stm32f30x_tim.c **** }
 1197              		.loc 1 746 0
 1198 067c 07F11C07 		add	r7, r7, #28
 1199 0680 BD46     		mov	sp, r7
 1200 0682 80BC     		pop	{r7}
 1201 0684 7047     		bx	lr
 1202              		.cfi_endproc
 1203              	.LFE127:
 1205 0686 00BF     		.align	2
 1206              		.global	TIM_OC2Init
 1207              		.thumb
 1208              		.thumb_func
 1210              	TIM_OC2Init:
 1211              	.LFB128:
 747:../src/stm32f30x_tim.c **** 
 748:../src/stm32f30x_tim.c **** /**
 749:../src/stm32f30x_tim.c ****   * @brief  Initializes the TIMx Channel2 according to the specified parameters 
 750:../src/stm32f30x_tim.c ****   *         in the TIM_OCInitStruct.
 751:../src/stm32f30x_tim.c ****   * @param  TIMx: where x can be 1, 2, 3, 4, 8 or 15 to select the TIM peripheral.
 752:../src/stm32f30x_tim.c ****   * @param  TIM_OCInitStruct: pointer to a TIM_OCInitTypeDef structure that contains
 753:../src/stm32f30x_tim.c ****   *         the configuration information for the specified TIM peripheral.
 754:../src/stm32f30x_tim.c ****   * @retval None
 755:../src/stm32f30x_tim.c ****   */
 756:../src/stm32f30x_tim.c **** void TIM_OC2Init(TIM_TypeDef* TIMx, TIM_OCInitTypeDef* TIM_OCInitStruct)
 757:../src/stm32f30x_tim.c **** {
 1212              		.loc 1 757 0
 1213              		.cfi_startproc
 1214              		@ args = 0, pretend = 0, frame = 24
 1215              		@ frame_needed = 1, uses_anonymous_args = 0
 1216              		@ link register save eliminated.
 1217 0688 80B4     		push	{r7}
 1218              	.LCFI51:
 1219              		.cfi_def_cfa_offset 4
 1220              		.cfi_offset 7, -4
 1221 068a 87B0     		sub	sp, sp, #28
 1222              	.LCFI52:
 1223              		.cfi_def_cfa_offset 32
 1224 068c 00AF     		add	r7, sp, #0
 1225              	.LCFI53:
 1226              		.cfi_def_cfa_register 7
 1227 068e 7860     		str	r0, [r7, #4]
 1228 0690 3960     		str	r1, [r7, #0]
 758:../src/stm32f30x_tim.c ****   uint32_t tmpccmrx = 0, tmpccer = 0, tmpcr2 = 0;
 1229              		.loc 1 758 0
 1230 0692 4FF00003 		mov	r3, #0
 1231 0696 FB60     		str	r3, [r7, #12]
 1232 0698 4FF00003 		mov	r3, #0
 1233 069c 7B61     		str	r3, [r7, #20]
 1234 069e 4FF00003 		mov	r3, #0
 1235 06a2 3B61     		str	r3, [r7, #16]
 759:../src/stm32f30x_tim.c ****    
 760:../src/stm32f30x_tim.c ****   /* Check the parameters */
 761:../src/stm32f30x_tim.c ****   assert_param(IS_TIM_LIST2_PERIPH(TIMx)); 
 762:../src/stm32f30x_tim.c ****   assert_param(IS_TIM_OC_MODE(TIM_OCInitStruct->TIM_OCMode));
 763:../src/stm32f30x_tim.c ****   assert_param(IS_TIM_OUTPUT_STATE(TIM_OCInitStruct->TIM_OutputState));
 764:../src/stm32f30x_tim.c ****   assert_param(IS_TIM_OC_POLARITY(TIM_OCInitStruct->TIM_OCPolarity));   
 765:../src/stm32f30x_tim.c **** 
 766:../src/stm32f30x_tim.c ****   /* Disable the Channel 2: Reset the CC2E Bit */
 767:../src/stm32f30x_tim.c ****   TIMx->CCER &= (uint32_t)~TIM_CCER_CC2E;
 1236              		.loc 1 767 0
 1237 06a4 7B68     		ldr	r3, [r7, #4]
 1238 06a6 1B6A     		ldr	r3, [r3, #32]
 1239 06a8 23F01002 		bic	r2, r3, #16
 1240 06ac 7B68     		ldr	r3, [r7, #4]
 1241 06ae 1A62     		str	r2, [r3, #32]
 768:../src/stm32f30x_tim.c ****   
 769:../src/stm32f30x_tim.c ****   /* Get the TIMx CCER register value */  
 770:../src/stm32f30x_tim.c ****   tmpccer = TIMx->CCER;
 1242              		.loc 1 770 0
 1243 06b0 7B68     		ldr	r3, [r7, #4]
 1244 06b2 1B6A     		ldr	r3, [r3, #32]
 1245 06b4 7B61     		str	r3, [r7, #20]
 771:../src/stm32f30x_tim.c ****   /* Get the TIMx CR2 register value */
 772:../src/stm32f30x_tim.c ****   tmpcr2 =  TIMx->CR2;
 1246              		.loc 1 772 0
 1247 06b6 7B68     		ldr	r3, [r7, #4]
 1248 06b8 5B68     		ldr	r3, [r3, #4]
 1249 06ba 3B61     		str	r3, [r7, #16]
 773:../src/stm32f30x_tim.c ****   
 774:../src/stm32f30x_tim.c ****   /* Get the TIMx CCMR1 register value */
 775:../src/stm32f30x_tim.c ****   tmpccmrx = TIMx->CCMR1;
 1250              		.loc 1 775 0
 1251 06bc 7B68     		ldr	r3, [r7, #4]
 1252 06be 9B69     		ldr	r3, [r3, #24]
 1253 06c0 FB60     		str	r3, [r7, #12]
 776:../src/stm32f30x_tim.c ****     
 777:../src/stm32f30x_tim.c ****   /* Reset the Output Compare mode and Capture/Compare selection Bits */
 778:../src/stm32f30x_tim.c ****   tmpccmrx &= (uint32_t)~TIM_CCMR1_OC2M;
 1254              		.loc 1 778 0
 1255 06c2 FB68     		ldr	r3, [r7, #12]
 1256 06c4 23F08073 		bic	r3, r3, #16777216
 1257 06c8 23F4E043 		bic	r3, r3, #28672
 1258 06cc FB60     		str	r3, [r7, #12]
 779:../src/stm32f30x_tim.c ****   tmpccmrx &= (uint32_t)~TIM_CCMR1_CC2S;
 1259              		.loc 1 779 0
 1260 06ce FB68     		ldr	r3, [r7, #12]
 1261 06d0 23F44073 		bic	r3, r3, #768
 1262 06d4 FB60     		str	r3, [r7, #12]
 780:../src/stm32f30x_tim.c ****   
 781:../src/stm32f30x_tim.c ****   /* Select the Output Compare Mode */
 782:../src/stm32f30x_tim.c ****   tmpccmrx |= (uint32_t)(TIM_OCInitStruct->TIM_OCMode << 8);
 1263              		.loc 1 782 0
 1264 06d6 3B68     		ldr	r3, [r7, #0]
 1265 06d8 1B68     		ldr	r3, [r3, #0]
 1266 06da 4FEA0323 		lsl	r3, r3, #8
 1267 06de FA68     		ldr	r2, [r7, #12]
 1268 06e0 1343     		orrs	r3, r3, r2
 1269 06e2 FB60     		str	r3, [r7, #12]
 783:../src/stm32f30x_tim.c ****   
 784:../src/stm32f30x_tim.c ****   /* Reset the Output Polarity level */
 785:../src/stm32f30x_tim.c ****   tmpccer &= (uint32_t)~TIM_CCER_CC2P;
 1270              		.loc 1 785 0
 1271 06e4 7B69     		ldr	r3, [r7, #20]
 1272 06e6 23F02003 		bic	r3, r3, #32
 1273 06ea 7B61     		str	r3, [r7, #20]
 786:../src/stm32f30x_tim.c ****   /* Set the Output Compare Polarity */
 787:../src/stm32f30x_tim.c ****   tmpccer |= (uint32_t)((uint32_t)TIM_OCInitStruct->TIM_OCPolarity << 4);
 1274              		.loc 1 787 0
 1275 06ec 3B68     		ldr	r3, [r7, #0]
 1276 06ee 9B89     		ldrh	r3, [r3, #12]
 1277 06f0 4FEA0313 		lsl	r3, r3, #4
 1278 06f4 7A69     		ldr	r2, [r7, #20]
 1279 06f6 1343     		orrs	r3, r3, r2
 1280 06f8 7B61     		str	r3, [r7, #20]
 788:../src/stm32f30x_tim.c ****   
 789:../src/stm32f30x_tim.c ****   /* Set the Output State */
 790:../src/stm32f30x_tim.c ****   tmpccer |= (uint32_t)((uint32_t)TIM_OCInitStruct->TIM_OutputState << 4);
 1281              		.loc 1 790 0
 1282 06fa 3B68     		ldr	r3, [r7, #0]
 1283 06fc 9B88     		ldrh	r3, [r3, #4]
 1284 06fe 4FEA0313 		lsl	r3, r3, #4
 1285 0702 7A69     		ldr	r2, [r7, #20]
 1286 0704 1343     		orrs	r3, r3, r2
 1287 0706 7B61     		str	r3, [r7, #20]
 791:../src/stm32f30x_tim.c ****     
 792:../src/stm32f30x_tim.c ****   if((TIMx == TIM1) || (TIMx == TIM8))
 1288              		.loc 1 792 0
 1289 0708 7A68     		ldr	r2, [r7, #4]
 1290 070a 4FF43053 		mov	r3, #11264
 1291 070e C4F20103 		movt	r3, 16385
 1292 0712 9A42     		cmp	r2, r3
 1293 0714 06D0     		beq	.L48
 1294              		.loc 1 792 0 is_stmt 0 discriminator 1
 1295 0716 7A68     		ldr	r2, [r7, #4]
 1296 0718 4FF45053 		mov	r3, #13312
 1297 071c C4F20103 		movt	r3, 16385
 1298 0720 9A42     		cmp	r2, r3
 1299 0722 2BD1     		bne	.L49
 1300              	.L48:
 793:../src/stm32f30x_tim.c ****   {
 794:../src/stm32f30x_tim.c ****     assert_param(IS_TIM_OUTPUTN_STATE(TIM_OCInitStruct->TIM_OutputNState));
 795:../src/stm32f30x_tim.c ****     assert_param(IS_TIM_OCN_POLARITY(TIM_OCInitStruct->TIM_OCNPolarity));
 796:../src/stm32f30x_tim.c ****     assert_param(IS_TIM_OCNIDLE_STATE(TIM_OCInitStruct->TIM_OCNIdleState));
 797:../src/stm32f30x_tim.c ****     assert_param(IS_TIM_OCIDLE_STATE(TIM_OCInitStruct->TIM_OCIdleState));
 798:../src/stm32f30x_tim.c ****     
 799:../src/stm32f30x_tim.c ****     /* Reset the Output N Polarity level */
 800:../src/stm32f30x_tim.c ****     tmpccer &= (uint32_t)~TIM_CCER_CC2NP;
 1301              		.loc 1 800 0 is_stmt 1
 1302 0724 7B69     		ldr	r3, [r7, #20]
 1303 0726 23F08003 		bic	r3, r3, #128
 1304 072a 7B61     		str	r3, [r7, #20]
 801:../src/stm32f30x_tim.c ****     /* Set the Output N Polarity */
 802:../src/stm32f30x_tim.c ****     tmpccer |= (uint32_t)((uint32_t)TIM_OCInitStruct->TIM_OCNPolarity << 4);
 1305              		.loc 1 802 0
 1306 072c 3B68     		ldr	r3, [r7, #0]
 1307 072e DB89     		ldrh	r3, [r3, #14]
 1308 0730 4FEA0313 		lsl	r3, r3, #4
 1309 0734 7A69     		ldr	r2, [r7, #20]
 1310 0736 1343     		orrs	r3, r3, r2
 1311 0738 7B61     		str	r3, [r7, #20]
 803:../src/stm32f30x_tim.c ****     /* Reset the Output N State */
 804:../src/stm32f30x_tim.c ****     tmpccer &= (uint32_t)~TIM_CCER_CC2NE;
 1312              		.loc 1 804 0
 1313 073a 7B69     		ldr	r3, [r7, #20]
 1314 073c 23F04003 		bic	r3, r3, #64
 1315 0740 7B61     		str	r3, [r7, #20]
 805:../src/stm32f30x_tim.c ****     
 806:../src/stm32f30x_tim.c ****     /* Set the Output N State */
 807:../src/stm32f30x_tim.c ****     tmpccer |= (uint32_t)((uint32_t)TIM_OCInitStruct->TIM_OutputNState << 4);
 1316              		.loc 1 807 0
 1317 0742 3B68     		ldr	r3, [r7, #0]
 1318 0744 DB88     		ldrh	r3, [r3, #6]
 1319 0746 4FEA0313 		lsl	r3, r3, #4
 1320 074a 7A69     		ldr	r2, [r7, #20]
 1321 074c 1343     		orrs	r3, r3, r2
 1322 074e 7B61     		str	r3, [r7, #20]
 808:../src/stm32f30x_tim.c ****     /* Reset the Output Compare and Output Compare N IDLE State */
 809:../src/stm32f30x_tim.c ****     tmpcr2 &= (uint32_t)~TIM_CR2_OIS2;
 1323              		.loc 1 809 0
 1324 0750 3B69     		ldr	r3, [r7, #16]
 1325 0752 23F48063 		bic	r3, r3, #1024
 1326 0756 3B61     		str	r3, [r7, #16]
 810:../src/stm32f30x_tim.c ****     tmpcr2 &= (uint32_t)~TIM_CR2_OIS2N;
 1327              		.loc 1 810 0
 1328 0758 3B69     		ldr	r3, [r7, #16]
 1329 075a 23F40063 		bic	r3, r3, #2048
 1330 075e 3B61     		str	r3, [r7, #16]
 811:../src/stm32f30x_tim.c ****     /* Set the Output Idle state */
 812:../src/stm32f30x_tim.c ****     tmpcr2 |= (uint32_t)((uint32_t)TIM_OCInitStruct->TIM_OCIdleState << 2);
 1331              		.loc 1 812 0
 1332 0760 3B68     		ldr	r3, [r7, #0]
 1333 0762 1B8A     		ldrh	r3, [r3, #16]
 1334 0764 4FEA8303 		lsl	r3, r3, #2
 1335 0768 3A69     		ldr	r2, [r7, #16]
 1336 076a 1343     		orrs	r3, r3, r2
 1337 076c 3B61     		str	r3, [r7, #16]
 813:../src/stm32f30x_tim.c ****     /* Set the Output N Idle state */
 814:../src/stm32f30x_tim.c ****     tmpcr2 |= (uint32_t)((uint32_t)TIM_OCInitStruct->TIM_OCNIdleState << 2);
 1338              		.loc 1 814 0
 1339 076e 3B68     		ldr	r3, [r7, #0]
 1340 0770 5B8A     		ldrh	r3, [r3, #18]
 1341 0772 4FEA8303 		lsl	r3, r3, #2
 1342 0776 3A69     		ldr	r2, [r7, #16]
 1343 0778 1343     		orrs	r3, r3, r2
 1344 077a 3B61     		str	r3, [r7, #16]
 1345              	.L49:
 815:../src/stm32f30x_tim.c ****   }
 816:../src/stm32f30x_tim.c ****   /* Write to TIMx CR2 */
 817:../src/stm32f30x_tim.c ****   TIMx->CR2 = tmpcr2;
 1346              		.loc 1 817 0
 1347 077c 7B68     		ldr	r3, [r7, #4]
 1348 077e 3A69     		ldr	r2, [r7, #16]
 1349 0780 5A60     		str	r2, [r3, #4]
 818:../src/stm32f30x_tim.c ****   
 819:../src/stm32f30x_tim.c ****   /* Write to TIMx CCMR1 */
 820:../src/stm32f30x_tim.c ****   TIMx->CCMR1 = tmpccmrx;
 1350              		.loc 1 820 0
 1351 0782 7B68     		ldr	r3, [r7, #4]
 1352 0784 FA68     		ldr	r2, [r7, #12]
 1353 0786 9A61     		str	r2, [r3, #24]
 821:../src/stm32f30x_tim.c ****   
 822:../src/stm32f30x_tim.c ****   /* Set the Capture Compare Register value */
 823:../src/stm32f30x_tim.c ****   TIMx->CCR2 = TIM_OCInitStruct->TIM_Pulse;
 1354              		.loc 1 823 0
 1355 0788 3B68     		ldr	r3, [r7, #0]
 1356 078a 9A68     		ldr	r2, [r3, #8]
 1357 078c 7B68     		ldr	r3, [r7, #4]
 1358 078e 9A63     		str	r2, [r3, #56]
 824:../src/stm32f30x_tim.c ****   
 825:../src/stm32f30x_tim.c ****   /* Write to TIMx CCER */
 826:../src/stm32f30x_tim.c ****   TIMx->CCER = tmpccer;
 1359              		.loc 1 826 0
 1360 0790 7B68     		ldr	r3, [r7, #4]
 1361 0792 7A69     		ldr	r2, [r7, #20]
 1362 0794 1A62     		str	r2, [r3, #32]
 827:../src/stm32f30x_tim.c **** }
 1363              		.loc 1 827 0
 1364 0796 07F11C07 		add	r7, r7, #28
 1365 079a BD46     		mov	sp, r7
 1366 079c 80BC     		pop	{r7}
 1367 079e 7047     		bx	lr
 1368              		.cfi_endproc
 1369              	.LFE128:
 1371              		.align	2
 1372              		.global	TIM_OC3Init
 1373              		.thumb
 1374              		.thumb_func
 1376              	TIM_OC3Init:
 1377              	.LFB129:
 828:../src/stm32f30x_tim.c **** 
 829:../src/stm32f30x_tim.c **** /**
 830:../src/stm32f30x_tim.c ****   * @brief  Initializes the TIMx Channel3 according to the specified parameters
 831:../src/stm32f30x_tim.c ****   *         in the TIM_OCInitStruct.
 832:../src/stm32f30x_tim.c ****   * @param  TIMx: where x can be 1, 2, 3, 4 or 8 to select the TIM peripheral.
 833:../src/stm32f30x_tim.c ****   * @param  TIM_OCInitStruct: pointer to a TIM_OCInitTypeDef structure that contains
 834:../src/stm32f30x_tim.c ****   *         the configuration information for the specified TIM peripheral.
 835:../src/stm32f30x_tim.c ****   * @retval None
 836:../src/stm32f30x_tim.c ****   */
 837:../src/stm32f30x_tim.c **** void TIM_OC3Init(TIM_TypeDef* TIMx, TIM_OCInitTypeDef* TIM_OCInitStruct)
 838:../src/stm32f30x_tim.c **** {
 1378              		.loc 1 838 0
 1379              		.cfi_startproc
 1380              		@ args = 0, pretend = 0, frame = 24
 1381              		@ frame_needed = 1, uses_anonymous_args = 0
 1382              		@ link register save eliminated.
 1383 07a0 80B4     		push	{r7}
 1384              	.LCFI54:
 1385              		.cfi_def_cfa_offset 4
 1386              		.cfi_offset 7, -4
 1387 07a2 87B0     		sub	sp, sp, #28
 1388              	.LCFI55:
 1389              		.cfi_def_cfa_offset 32
 1390 07a4 00AF     		add	r7, sp, #0
 1391              	.LCFI56:
 1392              		.cfi_def_cfa_register 7
 1393 07a6 7860     		str	r0, [r7, #4]
 1394 07a8 3960     		str	r1, [r7, #0]
 839:../src/stm32f30x_tim.c ****   uint32_t tmpccmrx = 0, tmpccer = 0, tmpcr2 = 0;
 1395              		.loc 1 839 0
 1396 07aa 4FF00003 		mov	r3, #0
 1397 07ae FB60     		str	r3, [r7, #12]
 1398 07b0 4FF00003 		mov	r3, #0
 1399 07b4 7B61     		str	r3, [r7, #20]
 1400 07b6 4FF00003 		mov	r3, #0
 1401 07ba 3B61     		str	r3, [r7, #16]
 840:../src/stm32f30x_tim.c ****    
 841:../src/stm32f30x_tim.c ****   /* Check the parameters */
 842:../src/stm32f30x_tim.c ****   assert_param(IS_TIM_LIST3_PERIPH(TIMx)); 
 843:../src/stm32f30x_tim.c ****   assert_param(IS_TIM_OC_MODE(TIM_OCInitStruct->TIM_OCMode));
 844:../src/stm32f30x_tim.c ****   assert_param(IS_TIM_OUTPUT_STATE(TIM_OCInitStruct->TIM_OutputState));
 845:../src/stm32f30x_tim.c ****   assert_param(IS_TIM_OC_POLARITY(TIM_OCInitStruct->TIM_OCPolarity));   
 846:../src/stm32f30x_tim.c **** 
 847:../src/stm32f30x_tim.c ****   /* Disable the Channel 3: Reset the CC2E Bit */
 848:../src/stm32f30x_tim.c ****   TIMx->CCER &= (uint32_t)~TIM_CCER_CC3E;
 1402              		.loc 1 848 0
 1403 07bc 7B68     		ldr	r3, [r7, #4]
 1404 07be 1B6A     		ldr	r3, [r3, #32]
 1405 07c0 23F48072 		bic	r2, r3, #256
 1406 07c4 7B68     		ldr	r3, [r7, #4]
 1407 07c6 1A62     		str	r2, [r3, #32]
 849:../src/stm32f30x_tim.c ****   
 850:../src/stm32f30x_tim.c ****   /* Get the TIMx CCER register value */
 851:../src/stm32f30x_tim.c ****   tmpccer = TIMx->CCER;
 1408              		.loc 1 851 0
 1409 07c8 7B68     		ldr	r3, [r7, #4]
 1410 07ca 1B6A     		ldr	r3, [r3, #32]
 1411 07cc 7B61     		str	r3, [r7, #20]
 852:../src/stm32f30x_tim.c ****   /* Get the TIMx CR2 register value */
 853:../src/stm32f30x_tim.c ****   tmpcr2 =  TIMx->CR2;
 1412              		.loc 1 853 0
 1413 07ce 7B68     		ldr	r3, [r7, #4]
 1414 07d0 5B68     		ldr	r3, [r3, #4]
 1415 07d2 3B61     		str	r3, [r7, #16]
 854:../src/stm32f30x_tim.c ****   
 855:../src/stm32f30x_tim.c ****   /* Get the TIMx CCMR2 register value */
 856:../src/stm32f30x_tim.c ****   tmpccmrx = TIMx->CCMR2;
 1416              		.loc 1 856 0
 1417 07d4 7B68     		ldr	r3, [r7, #4]
 1418 07d6 DB69     		ldr	r3, [r3, #28]
 1419 07d8 FB60     		str	r3, [r7, #12]
 857:../src/stm32f30x_tim.c ****     
 858:../src/stm32f30x_tim.c ****   /* Reset the Output Compare mode and Capture/Compare selection Bits */
 859:../src/stm32f30x_tim.c ****   tmpccmrx &= (uint32_t)~TIM_CCMR2_OC3M;
 1420              		.loc 1 859 0
 1421 07da FB68     		ldr	r3, [r7, #12]
 1422 07dc 23F07003 		bic	r3, r3, #112
 1423 07e0 FB60     		str	r3, [r7, #12]
 860:../src/stm32f30x_tim.c ****   tmpccmrx &= (uint32_t)~TIM_CCMR2_CC3S;  
 1424              		.loc 1 860 0
 1425 07e2 FB68     		ldr	r3, [r7, #12]
 1426 07e4 23F00303 		bic	r3, r3, #3
 1427 07e8 FB60     		str	r3, [r7, #12]
 861:../src/stm32f30x_tim.c ****   /* Select the Output Compare Mode */
 862:../src/stm32f30x_tim.c ****   tmpccmrx |= TIM_OCInitStruct->TIM_OCMode;
 1428              		.loc 1 862 0
 1429 07ea 3B68     		ldr	r3, [r7, #0]
 1430 07ec 1B68     		ldr	r3, [r3, #0]
 1431 07ee FA68     		ldr	r2, [r7, #12]
 1432 07f0 1343     		orrs	r3, r3, r2
 1433 07f2 FB60     		str	r3, [r7, #12]
 863:../src/stm32f30x_tim.c ****   
 864:../src/stm32f30x_tim.c ****   /* Reset the Output Polarity level */
 865:../src/stm32f30x_tim.c ****   tmpccer &= (uint32_t)~TIM_CCER_CC3P;
 1434              		.loc 1 865 0
 1435 07f4 7B69     		ldr	r3, [r7, #20]
 1436 07f6 23F40073 		bic	r3, r3, #512
 1437 07fa 7B61     		str	r3, [r7, #20]
 866:../src/stm32f30x_tim.c ****   /* Set the Output Compare Polarity */
 867:../src/stm32f30x_tim.c ****   tmpccer |= (uint32_t)((uint32_t)TIM_OCInitStruct->TIM_OCPolarity << 8);
 1438              		.loc 1 867 0
 1439 07fc 3B68     		ldr	r3, [r7, #0]
 1440 07fe 9B89     		ldrh	r3, [r3, #12]
 1441 0800 4FEA0323 		lsl	r3, r3, #8
 1442 0804 7A69     		ldr	r2, [r7, #20]
 1443 0806 1343     		orrs	r3, r3, r2
 1444 0808 7B61     		str	r3, [r7, #20]
 868:../src/stm32f30x_tim.c ****   
 869:../src/stm32f30x_tim.c ****   /* Set the Output State */
 870:../src/stm32f30x_tim.c ****   tmpccer |= (uint32_t)((uint32_t)TIM_OCInitStruct->TIM_OutputState << 8);
 1445              		.loc 1 870 0
 1446 080a 3B68     		ldr	r3, [r7, #0]
 1447 080c 9B88     		ldrh	r3, [r3, #4]
 1448 080e 4FEA0323 		lsl	r3, r3, #8
 1449 0812 7A69     		ldr	r2, [r7, #20]
 1450 0814 1343     		orrs	r3, r3, r2
 1451 0816 7B61     		str	r3, [r7, #20]
 871:../src/stm32f30x_tim.c ****     
 872:../src/stm32f30x_tim.c ****   if((TIMx == TIM1) || (TIMx == TIM8))
 1452              		.loc 1 872 0
 1453 0818 7A68     		ldr	r2, [r7, #4]
 1454 081a 4FF43053 		mov	r3, #11264
 1455 081e C4F20103 		movt	r3, 16385
 1456 0822 9A42     		cmp	r2, r3
 1457 0824 06D0     		beq	.L51
 1458              		.loc 1 872 0 is_stmt 0 discriminator 1
 1459 0826 7A68     		ldr	r2, [r7, #4]
 1460 0828 4FF45053 		mov	r3, #13312
 1461 082c C4F20103 		movt	r3, 16385
 1462 0830 9A42     		cmp	r2, r3
 1463 0832 2BD1     		bne	.L52
 1464              	.L51:
 873:../src/stm32f30x_tim.c ****   {
 874:../src/stm32f30x_tim.c ****     assert_param(IS_TIM_OUTPUTN_STATE(TIM_OCInitStruct->TIM_OutputNState));
 875:../src/stm32f30x_tim.c ****     assert_param(IS_TIM_OCN_POLARITY(TIM_OCInitStruct->TIM_OCNPolarity));
 876:../src/stm32f30x_tim.c ****     assert_param(IS_TIM_OCNIDLE_STATE(TIM_OCInitStruct->TIM_OCNIdleState));
 877:../src/stm32f30x_tim.c ****     assert_param(IS_TIM_OCIDLE_STATE(TIM_OCInitStruct->TIM_OCIdleState));
 878:../src/stm32f30x_tim.c ****     
 879:../src/stm32f30x_tim.c ****     /* Reset the Output N Polarity level */
 880:../src/stm32f30x_tim.c ****     tmpccer &= (uint32_t)~TIM_CCER_CC3NP;
 1465              		.loc 1 880 0 is_stmt 1
 1466 0834 7B69     		ldr	r3, [r7, #20]
 1467 0836 23F40063 		bic	r3, r3, #2048
 1468 083a 7B61     		str	r3, [r7, #20]
 881:../src/stm32f30x_tim.c ****     /* Set the Output N Polarity */
 882:../src/stm32f30x_tim.c ****     tmpccer |= (uint32_t)((uint32_t)TIM_OCInitStruct->TIM_OCNPolarity << 8);
 1469              		.loc 1 882 0
 1470 083c 3B68     		ldr	r3, [r7, #0]
 1471 083e DB89     		ldrh	r3, [r3, #14]
 1472 0840 4FEA0323 		lsl	r3, r3, #8
 1473 0844 7A69     		ldr	r2, [r7, #20]
 1474 0846 1343     		orrs	r3, r3, r2
 1475 0848 7B61     		str	r3, [r7, #20]
 883:../src/stm32f30x_tim.c ****     /* Reset the Output N State */
 884:../src/stm32f30x_tim.c ****     tmpccer &= (uint32_t)~TIM_CCER_CC3NE;
 1476              		.loc 1 884 0
 1477 084a 7B69     		ldr	r3, [r7, #20]
 1478 084c 23F48063 		bic	r3, r3, #1024
 1479 0850 7B61     		str	r3, [r7, #20]
 885:../src/stm32f30x_tim.c ****     
 886:../src/stm32f30x_tim.c ****     /* Set the Output N State */
 887:../src/stm32f30x_tim.c ****     tmpccer |= (uint32_t)((uint32_t)TIM_OCInitStruct->TIM_OutputNState << 8);
 1480              		.loc 1 887 0
 1481 0852 3B68     		ldr	r3, [r7, #0]
 1482 0854 DB88     		ldrh	r3, [r3, #6]
 1483 0856 4FEA0323 		lsl	r3, r3, #8
 1484 085a 7A69     		ldr	r2, [r7, #20]
 1485 085c 1343     		orrs	r3, r3, r2
 1486 085e 7B61     		str	r3, [r7, #20]
 888:../src/stm32f30x_tim.c ****     /* Reset the Output Compare and Output Compare N IDLE State */
 889:../src/stm32f30x_tim.c ****     tmpcr2 &= (uint32_t)~TIM_CR2_OIS3;
 1487              		.loc 1 889 0
 1488 0860 3B69     		ldr	r3, [r7, #16]
 1489 0862 23F48053 		bic	r3, r3, #4096
 1490 0866 3B61     		str	r3, [r7, #16]
 890:../src/stm32f30x_tim.c ****     tmpcr2 &= (uint32_t)~TIM_CR2_OIS3N;
 1491              		.loc 1 890 0
 1492 0868 3B69     		ldr	r3, [r7, #16]
 1493 086a 23F40053 		bic	r3, r3, #8192
 1494 086e 3B61     		str	r3, [r7, #16]
 891:../src/stm32f30x_tim.c ****     /* Set the Output Idle state */
 892:../src/stm32f30x_tim.c ****     tmpcr2 |= (uint32_t)((uint32_t)TIM_OCInitStruct->TIM_OCIdleState << 4);
 1495              		.loc 1 892 0
 1496 0870 3B68     		ldr	r3, [r7, #0]
 1497 0872 1B8A     		ldrh	r3, [r3, #16]
 1498 0874 4FEA0313 		lsl	r3, r3, #4
 1499 0878 3A69     		ldr	r2, [r7, #16]
 1500 087a 1343     		orrs	r3, r3, r2
 1501 087c 3B61     		str	r3, [r7, #16]
 893:../src/stm32f30x_tim.c ****     /* Set the Output N Idle state */
 894:../src/stm32f30x_tim.c ****     tmpcr2 |= (uint32_t)((uint32_t)TIM_OCInitStruct->TIM_OCNIdleState << 4);
 1502              		.loc 1 894 0
 1503 087e 3B68     		ldr	r3, [r7, #0]
 1504 0880 5B8A     		ldrh	r3, [r3, #18]
 1505 0882 4FEA0313 		lsl	r3, r3, #4
 1506 0886 3A69     		ldr	r2, [r7, #16]
 1507 0888 1343     		orrs	r3, r3, r2
 1508 088a 3B61     		str	r3, [r7, #16]
 1509              	.L52:
 895:../src/stm32f30x_tim.c ****   }
 896:../src/stm32f30x_tim.c ****   /* Write to TIMx CR2 */
 897:../src/stm32f30x_tim.c ****   TIMx->CR2 = tmpcr2;
 1510              		.loc 1 897 0
 1511 088c 7B68     		ldr	r3, [r7, #4]
 1512 088e 3A69     		ldr	r2, [r7, #16]
 1513 0890 5A60     		str	r2, [r3, #4]
 898:../src/stm32f30x_tim.c ****   
 899:../src/stm32f30x_tim.c ****   /* Write to TIMx CCMR2 */
 900:../src/stm32f30x_tim.c ****   TIMx->CCMR2 = tmpccmrx;
 1514              		.loc 1 900 0
 1515 0892 7B68     		ldr	r3, [r7, #4]
 1516 0894 FA68     		ldr	r2, [r7, #12]
 1517 0896 DA61     		str	r2, [r3, #28]
 901:../src/stm32f30x_tim.c ****   
 902:../src/stm32f30x_tim.c ****   /* Set the Capture Compare Register value */
 903:../src/stm32f30x_tim.c ****   TIMx->CCR3 = TIM_OCInitStruct->TIM_Pulse;
 1518              		.loc 1 903 0
 1519 0898 3B68     		ldr	r3, [r7, #0]
 1520 089a 9A68     		ldr	r2, [r3, #8]
 1521 089c 7B68     		ldr	r3, [r7, #4]
 1522 089e DA63     		str	r2, [r3, #60]
 904:../src/stm32f30x_tim.c ****   
 905:../src/stm32f30x_tim.c ****   /* Write to TIMx CCER */
 906:../src/stm32f30x_tim.c ****   TIMx->CCER = tmpccer;
 1523              		.loc 1 906 0
 1524 08a0 7B68     		ldr	r3, [r7, #4]
 1525 08a2 7A69     		ldr	r2, [r7, #20]
 1526 08a4 1A62     		str	r2, [r3, #32]
 907:../src/stm32f30x_tim.c **** }
 1527              		.loc 1 907 0
 1528 08a6 07F11C07 		add	r7, r7, #28
 1529 08aa BD46     		mov	sp, r7
 1530 08ac 80BC     		pop	{r7}
 1531 08ae 7047     		bx	lr
 1532              		.cfi_endproc
 1533              	.LFE129:
 1535              		.align	2
 1536              		.global	TIM_OC4Init
 1537              		.thumb
 1538              		.thumb_func
 1540              	TIM_OC4Init:
 1541              	.LFB130:
 908:../src/stm32f30x_tim.c **** 
 909:../src/stm32f30x_tim.c **** /**
 910:../src/stm32f30x_tim.c ****   * @brief  Initializes the TIMx Channel4 according to the specified parameters
 911:../src/stm32f30x_tim.c ****   *         in the TIM_OCInitStruct.
 912:../src/stm32f30x_tim.c ****   * @param  TIMx: where x can be 1, 2, 3, 4 or 8 to select the TIM peripheral.
 913:../src/stm32f30x_tim.c ****   * @param  TIM_OCInitStruct: pointer to a TIM_OCInitTypeDef structure that contains
 914:../src/stm32f30x_tim.c ****   *         the configuration information for the specified TIM peripheral.
 915:../src/stm32f30x_tim.c ****   * @retval None
 916:../src/stm32f30x_tim.c ****   */
 917:../src/stm32f30x_tim.c **** void TIM_OC4Init(TIM_TypeDef* TIMx, TIM_OCInitTypeDef* TIM_OCInitStruct)
 918:../src/stm32f30x_tim.c **** {
 1542              		.loc 1 918 0
 1543              		.cfi_startproc
 1544              		@ args = 0, pretend = 0, frame = 24
 1545              		@ frame_needed = 1, uses_anonymous_args = 0
 1546              		@ link register save eliminated.
 1547 08b0 80B4     		push	{r7}
 1548              	.LCFI57:
 1549              		.cfi_def_cfa_offset 4
 1550              		.cfi_offset 7, -4
 1551 08b2 87B0     		sub	sp, sp, #28
 1552              	.LCFI58:
 1553              		.cfi_def_cfa_offset 32
 1554 08b4 00AF     		add	r7, sp, #0
 1555              	.LCFI59:
 1556              		.cfi_def_cfa_register 7
 1557 08b6 7860     		str	r0, [r7, #4]
 1558 08b8 3960     		str	r1, [r7, #0]
 919:../src/stm32f30x_tim.c ****   uint32_t tmpccmrx = 0, tmpccer = 0, tmpcr2 = 0;
 1559              		.loc 1 919 0
 1560 08ba 4FF00003 		mov	r3, #0
 1561 08be 3B61     		str	r3, [r7, #16]
 1562 08c0 4FF00003 		mov	r3, #0
 1563 08c4 FB60     		str	r3, [r7, #12]
 1564 08c6 4FF00003 		mov	r3, #0
 1565 08ca 7B61     		str	r3, [r7, #20]
 920:../src/stm32f30x_tim.c ****    
 921:../src/stm32f30x_tim.c ****   /* Check the parameters */
 922:../src/stm32f30x_tim.c ****   assert_param(IS_TIM_LIST3_PERIPH(TIMx)); 
 923:../src/stm32f30x_tim.c ****   assert_param(IS_TIM_OC_MODE(TIM_OCInitStruct->TIM_OCMode));
 924:../src/stm32f30x_tim.c ****   assert_param(IS_TIM_OUTPUT_STATE(TIM_OCInitStruct->TIM_OutputState));
 925:../src/stm32f30x_tim.c ****   assert_param(IS_TIM_OC_POLARITY(TIM_OCInitStruct->TIM_OCPolarity));   
 926:../src/stm32f30x_tim.c **** 
 927:../src/stm32f30x_tim.c ****   /* Disable the Channel 4: Reset the CC4E Bit */
 928:../src/stm32f30x_tim.c ****   TIMx->CCER &= (uint32_t)~TIM_CCER_CC4E;
 1566              		.loc 1 928 0
 1567 08cc 7B68     		ldr	r3, [r7, #4]
 1568 08ce 1B6A     		ldr	r3, [r3, #32]
 1569 08d0 23F48052 		bic	r2, r3, #4096
 1570 08d4 7B68     		ldr	r3, [r7, #4]
 1571 08d6 1A62     		str	r2, [r3, #32]
 929:../src/stm32f30x_tim.c ****   
 930:../src/stm32f30x_tim.c ****   /* Get the TIMx CCER register value */
 931:../src/stm32f30x_tim.c ****   tmpccer = TIMx->CCER;
 1572              		.loc 1 931 0
 1573 08d8 7B68     		ldr	r3, [r7, #4]
 1574 08da 1B6A     		ldr	r3, [r3, #32]
 1575 08dc FB60     		str	r3, [r7, #12]
 932:../src/stm32f30x_tim.c ****   /* Get the TIMx CR2 register value */
 933:../src/stm32f30x_tim.c ****   tmpcr2 =  TIMx->CR2;
 1576              		.loc 1 933 0
 1577 08de 7B68     		ldr	r3, [r7, #4]
 1578 08e0 5B68     		ldr	r3, [r3, #4]
 1579 08e2 7B61     		str	r3, [r7, #20]
 934:../src/stm32f30x_tim.c ****   
 935:../src/stm32f30x_tim.c ****   /* Get the TIMx CCMR2 register value */
 936:../src/stm32f30x_tim.c ****   tmpccmrx = TIMx->CCMR2;
 1580              		.loc 1 936 0
 1581 08e4 7B68     		ldr	r3, [r7, #4]
 1582 08e6 DB69     		ldr	r3, [r3, #28]
 1583 08e8 3B61     		str	r3, [r7, #16]
 937:../src/stm32f30x_tim.c ****     
 938:../src/stm32f30x_tim.c ****   /* Reset the Output Compare mode and Capture/Compare selection Bits */
 939:../src/stm32f30x_tim.c ****   tmpccmrx &= (uint32_t)~TIM_CCMR2_OC4M;
 1584              		.loc 1 939 0
 1585 08ea 3B69     		ldr	r3, [r7, #16]
 1586 08ec 23F4E043 		bic	r3, r3, #28672
 1587 08f0 3B61     		str	r3, [r7, #16]
 940:../src/stm32f30x_tim.c ****   tmpccmrx &= (uint32_t)~TIM_CCMR2_CC4S;
 1588              		.loc 1 940 0
 1589 08f2 3B69     		ldr	r3, [r7, #16]
 1590 08f4 23F44073 		bic	r3, r3, #768
 1591 08f8 3B61     		str	r3, [r7, #16]
 941:../src/stm32f30x_tim.c ****   
 942:../src/stm32f30x_tim.c ****   /* Select the Output Compare Mode */
 943:../src/stm32f30x_tim.c ****   tmpccmrx |= (uint32_t)(TIM_OCInitStruct->TIM_OCMode << 8);
 1592              		.loc 1 943 0
 1593 08fa 3B68     		ldr	r3, [r7, #0]
 1594 08fc 1B68     		ldr	r3, [r3, #0]
 1595 08fe 4FEA0323 		lsl	r3, r3, #8
 1596 0902 3A69     		ldr	r2, [r7, #16]
 1597 0904 1343     		orrs	r3, r3, r2
 1598 0906 3B61     		str	r3, [r7, #16]
 944:../src/stm32f30x_tim.c ****   
 945:../src/stm32f30x_tim.c ****   /* Reset the Output Polarity level */
 946:../src/stm32f30x_tim.c ****   tmpccer &= (uint32_t)~TIM_CCER_CC4P;
 1599              		.loc 1 946 0
 1600 0908 FB68     		ldr	r3, [r7, #12]
 1601 090a 23F40053 		bic	r3, r3, #8192
 1602 090e FB60     		str	r3, [r7, #12]
 947:../src/stm32f30x_tim.c ****   /* Set the Output Compare Polarity */
 948:../src/stm32f30x_tim.c ****   tmpccer |= (uint32_t)((uint32_t)TIM_OCInitStruct->TIM_OCPolarity << 12);
 1603              		.loc 1 948 0
 1604 0910 3B68     		ldr	r3, [r7, #0]
 1605 0912 9B89     		ldrh	r3, [r3, #12]
 1606 0914 4FEA0333 		lsl	r3, r3, #12
 1607 0918 FA68     		ldr	r2, [r7, #12]
 1608 091a 1343     		orrs	r3, r3, r2
 1609 091c FB60     		str	r3, [r7, #12]
 949:../src/stm32f30x_tim.c ****   
 950:../src/stm32f30x_tim.c ****   /* Set the Output State */
 951:../src/stm32f30x_tim.c ****   tmpccer |= (uint32_t)((uint32_t)TIM_OCInitStruct->TIM_OutputState << 12);
 1610              		.loc 1 951 0
 1611 091e 3B68     		ldr	r3, [r7, #0]
 1612 0920 9B88     		ldrh	r3, [r3, #4]
 1613 0922 4FEA0333 		lsl	r3, r3, #12
 1614 0926 FA68     		ldr	r2, [r7, #12]
 1615 0928 1343     		orrs	r3, r3, r2
 1616 092a FB60     		str	r3, [r7, #12]
 952:../src/stm32f30x_tim.c ****   
 953:../src/stm32f30x_tim.c ****   if((TIMx == TIM1) || (TIMx == TIM8))
 1617              		.loc 1 953 0
 1618 092c 7A68     		ldr	r2, [r7, #4]
 1619 092e 4FF43053 		mov	r3, #11264
 1620 0932 C4F20103 		movt	r3, 16385
 1621 0936 9A42     		cmp	r2, r3
 1622 0938 06D0     		beq	.L54
 1623              		.loc 1 953 0 is_stmt 0 discriminator 1
 1624 093a 7A68     		ldr	r2, [r7, #4]
 1625 093c 4FF45053 		mov	r3, #13312
 1626 0940 C4F20103 		movt	r3, 16385
 1627 0944 9A42     		cmp	r2, r3
 1628 0946 0AD1     		bne	.L55
 1629              	.L54:
 954:../src/stm32f30x_tim.c ****   {
 955:../src/stm32f30x_tim.c ****     assert_param(IS_TIM_OCIDLE_STATE(TIM_OCInitStruct->TIM_OCIdleState));
 956:../src/stm32f30x_tim.c ****     /* Reset the Output Compare IDLE State */
 957:../src/stm32f30x_tim.c ****     tmpcr2 &=(uint32_t) ~TIM_CR2_OIS4;
 1630              		.loc 1 957 0 is_stmt 1
 1631 0948 7B69     		ldr	r3, [r7, #20]
 1632 094a 23F48043 		bic	r3, r3, #16384
 1633 094e 7B61     		str	r3, [r7, #20]
 958:../src/stm32f30x_tim.c ****     /* Set the Output Idle state */
 959:../src/stm32f30x_tim.c ****     tmpcr2 |= (uint32_t)((uint32_t)TIM_OCInitStruct->TIM_OCIdleState << 6);
 1634              		.loc 1 959 0
 1635 0950 3B68     		ldr	r3, [r7, #0]
 1636 0952 1B8A     		ldrh	r3, [r3, #16]
 1637 0954 4FEA8313 		lsl	r3, r3, #6
 1638 0958 7A69     		ldr	r2, [r7, #20]
 1639 095a 1343     		orrs	r3, r3, r2
 1640 095c 7B61     		str	r3, [r7, #20]
 1641              	.L55:
 960:../src/stm32f30x_tim.c ****   }
 961:../src/stm32f30x_tim.c ****   /* Write to TIMx CR2 */
 962:../src/stm32f30x_tim.c ****   TIMx->CR2 = tmpcr2;
 1642              		.loc 1 962 0
 1643 095e 7B68     		ldr	r3, [r7, #4]
 1644 0960 7A69     		ldr	r2, [r7, #20]
 1645 0962 5A60     		str	r2, [r3, #4]
 963:../src/stm32f30x_tim.c ****   
 964:../src/stm32f30x_tim.c ****   /* Write to TIMx CCMR2 */  
 965:../src/stm32f30x_tim.c ****   TIMx->CCMR2 = tmpccmrx;
 1646              		.loc 1 965 0
 1647 0964 7B68     		ldr	r3, [r7, #4]
 1648 0966 3A69     		ldr	r2, [r7, #16]
 1649 0968 DA61     		str	r2, [r3, #28]
 966:../src/stm32f30x_tim.c ****     
 967:../src/stm32f30x_tim.c ****   /* Set the Capture Compare Register value */
 968:../src/stm32f30x_tim.c ****   TIMx->CCR4 = TIM_OCInitStruct->TIM_Pulse;
 1650              		.loc 1 968 0
 1651 096a 3B68     		ldr	r3, [r7, #0]
 1652 096c 9A68     		ldr	r2, [r3, #8]
 1653 096e 7B68     		ldr	r3, [r7, #4]
 1654 0970 1A64     		str	r2, [r3, #64]
 969:../src/stm32f30x_tim.c ****   
 970:../src/stm32f30x_tim.c ****   /* Write to TIMx CCER */
 971:../src/stm32f30x_tim.c ****   TIMx->CCER = tmpccer;
 1655              		.loc 1 971 0
 1656 0972 7B68     		ldr	r3, [r7, #4]
 1657 0974 FA68     		ldr	r2, [r7, #12]
 1658 0976 1A62     		str	r2, [r3, #32]
 972:../src/stm32f30x_tim.c **** }
 1659              		.loc 1 972 0
 1660 0978 07F11C07 		add	r7, r7, #28
 1661 097c BD46     		mov	sp, r7
 1662 097e 80BC     		pop	{r7}
 1663 0980 7047     		bx	lr
 1664              		.cfi_endproc
 1665              	.LFE130:
 1667 0982 00BF     		.align	2
 1668              		.global	TIM_OC5Init
 1669              		.thumb
 1670              		.thumb_func
 1672              	TIM_OC5Init:
 1673              	.LFB131:
 973:../src/stm32f30x_tim.c **** 
 974:../src/stm32f30x_tim.c **** /**
 975:../src/stm32f30x_tim.c ****   * @brief  Initializes the TIMx Channel5 according to the specified parameters
 976:../src/stm32f30x_tim.c ****   *         in the TIM_OCInitStruct.
 977:../src/stm32f30x_tim.c ****   * @param  TIMx: where x can be 1 or 8 to select the TIM peripheral.
 978:../src/stm32f30x_tim.c ****   * @param  TIM_OCInitStruct: pointer to a TIM_OCInitTypeDef structure that contains
 979:../src/stm32f30x_tim.c ****   *         the configuration information for the specified TIM peripheral.
 980:../src/stm32f30x_tim.c ****   * @retval None
 981:../src/stm32f30x_tim.c ****   */
 982:../src/stm32f30x_tim.c **** void TIM_OC5Init(TIM_TypeDef* TIMx, TIM_OCInitTypeDef* TIM_OCInitStruct)
 983:../src/stm32f30x_tim.c **** {
 1674              		.loc 1 983 0
 1675              		.cfi_startproc
 1676              		@ args = 0, pretend = 0, frame = 24
 1677              		@ frame_needed = 1, uses_anonymous_args = 0
 1678              		@ link register save eliminated.
 1679 0984 80B4     		push	{r7}
 1680              	.LCFI60:
 1681              		.cfi_def_cfa_offset 4
 1682              		.cfi_offset 7, -4
 1683 0986 87B0     		sub	sp, sp, #28
 1684              	.LCFI61:
 1685              		.cfi_def_cfa_offset 32
 1686 0988 00AF     		add	r7, sp, #0
 1687              	.LCFI62:
 1688              		.cfi_def_cfa_register 7
 1689 098a 7860     		str	r0, [r7, #4]
 1690 098c 3960     		str	r1, [r7, #0]
 984:../src/stm32f30x_tim.c ****   uint32_t tmpccmrx = 0, tmpccer = 0, tmpcr2 = 0;
 1691              		.loc 1 984 0
 1692 098e 4FF00003 		mov	r3, #0
 1693 0992 3B61     		str	r3, [r7, #16]
 1694 0994 4FF00003 		mov	r3, #0
 1695 0998 FB60     		str	r3, [r7, #12]
 1696 099a 4FF00003 		mov	r3, #0
 1697 099e 7B61     		str	r3, [r7, #20]
 985:../src/stm32f30x_tim.c ****    
 986:../src/stm32f30x_tim.c ****   /* Check the parameters */
 987:../src/stm32f30x_tim.c ****   assert_param(IS_TIM_LIST4_PERIPH(TIMx)); 
 988:../src/stm32f30x_tim.c ****   assert_param(IS_TIM_OC_MODE(TIM_OCInitStruct->TIM_OCMode));
 989:../src/stm32f30x_tim.c ****   assert_param(IS_TIM_OUTPUT_STATE(TIM_OCInitStruct->TIM_OutputState));
 990:../src/stm32f30x_tim.c ****   assert_param(IS_TIM_OC_POLARITY(TIM_OCInitStruct->TIM_OCPolarity));   
 991:../src/stm32f30x_tim.c **** 
 992:../src/stm32f30x_tim.c ****   /* Disable the Channel 5: Reset the CC5E Bit */
 993:../src/stm32f30x_tim.c ****   TIMx->CCER &= (uint32_t)~TIM_CCER_CC5E; /* to be verified*/
 1698              		.loc 1 993 0
 1699 09a0 7B68     		ldr	r3, [r7, #4]
 1700 09a2 1B6A     		ldr	r3, [r3, #32]
 1701 09a4 23F48032 		bic	r2, r3, #65536
 1702 09a8 7B68     		ldr	r3, [r7, #4]
 1703 09aa 1A62     		str	r2, [r3, #32]
 994:../src/stm32f30x_tim.c ****   
 995:../src/stm32f30x_tim.c ****   /* Get the TIMx CCER register value */
 996:../src/stm32f30x_tim.c ****   tmpccer = TIMx->CCER;
 1704              		.loc 1 996 0
 1705 09ac 7B68     		ldr	r3, [r7, #4]
 1706 09ae 1B6A     		ldr	r3, [r3, #32]
 1707 09b0 FB60     		str	r3, [r7, #12]
 997:../src/stm32f30x_tim.c ****   /* Get the TIMx CR2 register value */
 998:../src/stm32f30x_tim.c ****   tmpcr2 =  TIMx->CR2;
 1708              		.loc 1 998 0
 1709 09b2 7B68     		ldr	r3, [r7, #4]
 1710 09b4 5B68     		ldr	r3, [r3, #4]
 1711 09b6 7B61     		str	r3, [r7, #20]
 999:../src/stm32f30x_tim.c ****   
1000:../src/stm32f30x_tim.c ****   /* Get the TIMx CCMR3 register value */
1001:../src/stm32f30x_tim.c ****   tmpccmrx = TIMx->CCMR3;
 1712              		.loc 1 1001 0
 1713 09b8 7B68     		ldr	r3, [r7, #4]
 1714 09ba 5B6D     		ldr	r3, [r3, #84]
 1715 09bc 3B61     		str	r3, [r7, #16]
1002:../src/stm32f30x_tim.c ****   
1003:../src/stm32f30x_tim.c ****   /* Reset the Output Compare mode and Capture/Compare selection Bits */
1004:../src/stm32f30x_tim.c ****   tmpccmrx &= (uint32_t)~TIM_CCMR3_OC5M;
 1716              		.loc 1 1004 0
 1717 09be 3B69     		ldr	r3, [r7, #16]
 1718 09c0 23F07003 		bic	r3, r3, #112
 1719 09c4 3B61     		str	r3, [r7, #16]
1005:../src/stm32f30x_tim.c ****   
1006:../src/stm32f30x_tim.c ****   /* Select the Output Compare Mode */
1007:../src/stm32f30x_tim.c ****   tmpccmrx |= (uint32_t)(TIM_OCInitStruct->TIM_OCMode);
 1720              		.loc 1 1007 0
 1721 09c6 3B68     		ldr	r3, [r7, #0]
 1722 09c8 1B68     		ldr	r3, [r3, #0]
 1723 09ca 3A69     		ldr	r2, [r7, #16]
 1724 09cc 1343     		orrs	r3, r3, r2
 1725 09ce 3B61     		str	r3, [r7, #16]
1008:../src/stm32f30x_tim.c ****   
1009:../src/stm32f30x_tim.c ****   /* Reset the Output Polarity level */
1010:../src/stm32f30x_tim.c ****   tmpccer &= (uint32_t)~TIM_CCER_CC5P;
 1726              		.loc 1 1010 0
 1727 09d0 FB68     		ldr	r3, [r7, #12]
 1728 09d2 23F40033 		bic	r3, r3, #131072
 1729 09d6 FB60     		str	r3, [r7, #12]
1011:../src/stm32f30x_tim.c ****   /* Set the Output Compare Polarity */
1012:../src/stm32f30x_tim.c ****   tmpccer |= (uint32_t)((uint32_t)TIM_OCInitStruct->TIM_OCPolarity << 16);
 1730              		.loc 1 1012 0
 1731 09d8 3B68     		ldr	r3, [r7, #0]
 1732 09da 9B89     		ldrh	r3, [r3, #12]
 1733 09dc 4FEA0343 		lsl	r3, r3, #16
 1734 09e0 FA68     		ldr	r2, [r7, #12]
 1735 09e2 1343     		orrs	r3, r3, r2
 1736 09e4 FB60     		str	r3, [r7, #12]
1013:../src/stm32f30x_tim.c **** 
1014:../src/stm32f30x_tim.c ****   /* Set the Output State */
1015:../src/stm32f30x_tim.c ****   tmpccer |= (uint32_t)((uint32_t)TIM_OCInitStruct->TIM_OutputState << 16);
 1737              		.loc 1 1015 0
 1738 09e6 3B68     		ldr	r3, [r7, #0]
 1739 09e8 9B88     		ldrh	r3, [r3, #4]
 1740 09ea 4FEA0343 		lsl	r3, r3, #16
 1741 09ee FA68     		ldr	r2, [r7, #12]
 1742 09f0 1343     		orrs	r3, r3, r2
 1743 09f2 FB60     		str	r3, [r7, #12]
1016:../src/stm32f30x_tim.c ****   
1017:../src/stm32f30x_tim.c ****   if((TIMx == TIM1) || (TIMx == TIM8))
 1744              		.loc 1 1017 0
 1745 09f4 7A68     		ldr	r2, [r7, #4]
 1746 09f6 4FF43053 		mov	r3, #11264
 1747 09fa C4F20103 		movt	r3, 16385
 1748 09fe 9A42     		cmp	r2, r3
 1749 0a00 06D0     		beq	.L57
 1750              		.loc 1 1017 0 is_stmt 0 discriminator 1
 1751 0a02 7A68     		ldr	r2, [r7, #4]
 1752 0a04 4FF45053 		mov	r3, #13312
 1753 0a08 C4F20103 		movt	r3, 16385
 1754 0a0c 9A42     		cmp	r2, r3
 1755 0a0e 0AD1     		bne	.L58
 1756              	.L57:
1018:../src/stm32f30x_tim.c ****   {
1019:../src/stm32f30x_tim.c ****     assert_param(IS_TIM_OCIDLE_STATE(TIM_OCInitStruct->TIM_OCIdleState));
1020:../src/stm32f30x_tim.c ****     /* Reset the Output Compare IDLE State */
1021:../src/stm32f30x_tim.c ****     tmpcr2 &=(uint32_t) ~TIM_CR2_OIS5;
 1757              		.loc 1 1021 0 is_stmt 1
 1758 0a10 7B69     		ldr	r3, [r7, #20]
 1759 0a12 23F48033 		bic	r3, r3, #65536
 1760 0a16 7B61     		str	r3, [r7, #20]
1022:../src/stm32f30x_tim.c ****     /* Set the Output Idle state */
1023:../src/stm32f30x_tim.c ****     tmpcr2 |= (uint32_t)((uint32_t)TIM_OCInitStruct->TIM_OCIdleState << 16);
 1761              		.loc 1 1023 0
 1762 0a18 3B68     		ldr	r3, [r7, #0]
 1763 0a1a 1B8A     		ldrh	r3, [r3, #16]
 1764 0a1c 4FEA0343 		lsl	r3, r3, #16
 1765 0a20 7A69     		ldr	r2, [r7, #20]
 1766 0a22 1343     		orrs	r3, r3, r2
 1767 0a24 7B61     		str	r3, [r7, #20]
 1768              	.L58:
1024:../src/stm32f30x_tim.c ****   }
1025:../src/stm32f30x_tim.c ****   /* Write to TIMx CR2 */
1026:../src/stm32f30x_tim.c ****   TIMx->CR2 = tmpcr2;
 1769              		.loc 1 1026 0
 1770 0a26 7B68     		ldr	r3, [r7, #4]
 1771 0a28 7A69     		ldr	r2, [r7, #20]
 1772 0a2a 5A60     		str	r2, [r3, #4]
1027:../src/stm32f30x_tim.c ****   
1028:../src/stm32f30x_tim.c ****   /* Write to TIMx CCMR2 */  
1029:../src/stm32f30x_tim.c ****   TIMx->CCMR3 = tmpccmrx;
 1773              		.loc 1 1029 0
 1774 0a2c 7B68     		ldr	r3, [r7, #4]
 1775 0a2e 3A69     		ldr	r2, [r7, #16]
 1776 0a30 5A65     		str	r2, [r3, #84]
1030:../src/stm32f30x_tim.c ****     
1031:../src/stm32f30x_tim.c ****   /* Set the Capture Compare Register value */
1032:../src/stm32f30x_tim.c ****   TIMx->CCR5 = TIM_OCInitStruct->TIM_Pulse;
 1777              		.loc 1 1032 0
 1778 0a32 3B68     		ldr	r3, [r7, #0]
 1779 0a34 9A68     		ldr	r2, [r3, #8]
 1780 0a36 7B68     		ldr	r3, [r7, #4]
 1781 0a38 9A65     		str	r2, [r3, #88]
1033:../src/stm32f30x_tim.c ****   
1034:../src/stm32f30x_tim.c ****   /* Write to TIMx CCER */
1035:../src/stm32f30x_tim.c ****   TIMx->CCER = tmpccer;
 1782              		.loc 1 1035 0
 1783 0a3a 7B68     		ldr	r3, [r7, #4]
 1784 0a3c FA68     		ldr	r2, [r7, #12]
 1785 0a3e 1A62     		str	r2, [r3, #32]
1036:../src/stm32f30x_tim.c **** }
 1786              		.loc 1 1036 0
 1787 0a40 07F11C07 		add	r7, r7, #28
 1788 0a44 BD46     		mov	sp, r7
 1789 0a46 80BC     		pop	{r7}
 1790 0a48 7047     		bx	lr
 1791              		.cfi_endproc
 1792              	.LFE131:
 1794 0a4a 00BF     		.align	2
 1795              		.global	TIM_OC6Init
 1796              		.thumb
 1797              		.thumb_func
 1799              	TIM_OC6Init:
 1800              	.LFB132:
1037:../src/stm32f30x_tim.c **** 
1038:../src/stm32f30x_tim.c **** /**
1039:../src/stm32f30x_tim.c ****   * @brief  Initializes the TIMx Channel6 according to the specified parameters
1040:../src/stm32f30x_tim.c ****   *         in the TIM_OCInitStruct.
1041:../src/stm32f30x_tim.c ****   * @param  TIMx: where x can be 1 or 8 to select the TIM peripheral.
1042:../src/stm32f30x_tim.c ****   * @param  TIM_OCInitStruct: pointer to a TIM_OCInitTypeDef structure that contains
1043:../src/stm32f30x_tim.c ****   *         the configuration information for the specified TIM peripheral.
1044:../src/stm32f30x_tim.c ****   * @retval None
1045:../src/stm32f30x_tim.c ****   */
1046:../src/stm32f30x_tim.c **** void TIM_OC6Init(TIM_TypeDef* TIMx, TIM_OCInitTypeDef* TIM_OCInitStruct)
1047:../src/stm32f30x_tim.c **** {
 1801              		.loc 1 1047 0
 1802              		.cfi_startproc
 1803              		@ args = 0, pretend = 0, frame = 24
 1804              		@ frame_needed = 1, uses_anonymous_args = 0
 1805              		@ link register save eliminated.
 1806 0a4c 80B4     		push	{r7}
 1807              	.LCFI63:
 1808              		.cfi_def_cfa_offset 4
 1809              		.cfi_offset 7, -4
 1810 0a4e 87B0     		sub	sp, sp, #28
 1811              	.LCFI64:
 1812              		.cfi_def_cfa_offset 32
 1813 0a50 00AF     		add	r7, sp, #0
 1814              	.LCFI65:
 1815              		.cfi_def_cfa_register 7
 1816 0a52 7860     		str	r0, [r7, #4]
 1817 0a54 3960     		str	r1, [r7, #0]
1048:../src/stm32f30x_tim.c ****   uint32_t tmpccmrx = 0, tmpccer = 0, tmpcr2 = 0;
 1818              		.loc 1 1048 0
 1819 0a56 4FF00003 		mov	r3, #0
 1820 0a5a 3B61     		str	r3, [r7, #16]
 1821 0a5c 4FF00003 		mov	r3, #0
 1822 0a60 FB60     		str	r3, [r7, #12]
 1823 0a62 4FF00003 		mov	r3, #0
 1824 0a66 7B61     		str	r3, [r7, #20]
1049:../src/stm32f30x_tim.c ****    
1050:../src/stm32f30x_tim.c ****   /* Check the parameters */
1051:../src/stm32f30x_tim.c ****   assert_param(IS_TIM_LIST4_PERIPH(TIMx)); 
1052:../src/stm32f30x_tim.c ****   assert_param(IS_TIM_OC_MODE(TIM_OCInitStruct->TIM_OCMode));
1053:../src/stm32f30x_tim.c ****   assert_param(IS_TIM_OUTPUT_STATE(TIM_OCInitStruct->TIM_OutputState));
1054:../src/stm32f30x_tim.c ****   assert_param(IS_TIM_OC_POLARITY(TIM_OCInitStruct->TIM_OCPolarity));   
1055:../src/stm32f30x_tim.c **** 
1056:../src/stm32f30x_tim.c ****   /* Disable the Channel 5: Reset the CC5E Bit */
1057:../src/stm32f30x_tim.c ****   TIMx->CCER &= (uint32_t)~TIM_CCER_CC6E; /* to be verified*/
 1825              		.loc 1 1057 0
 1826 0a68 7B68     		ldr	r3, [r7, #4]
 1827 0a6a 1B6A     		ldr	r3, [r3, #32]
 1828 0a6c 23F48012 		bic	r2, r3, #1048576
 1829 0a70 7B68     		ldr	r3, [r7, #4]
 1830 0a72 1A62     		str	r2, [r3, #32]
1058:../src/stm32f30x_tim.c ****   
1059:../src/stm32f30x_tim.c ****   /* Get the TIMx CCER register value */
1060:../src/stm32f30x_tim.c ****   tmpccer = TIMx->CCER;
 1831              		.loc 1 1060 0
 1832 0a74 7B68     		ldr	r3, [r7, #4]
 1833 0a76 1B6A     		ldr	r3, [r3, #32]
 1834 0a78 FB60     		str	r3, [r7, #12]
1061:../src/stm32f30x_tim.c ****   /* Get the TIMx CR2 register value */
1062:../src/stm32f30x_tim.c ****   tmpcr2 =  TIMx->CR2;
 1835              		.loc 1 1062 0
 1836 0a7a 7B68     		ldr	r3, [r7, #4]
 1837 0a7c 5B68     		ldr	r3, [r3, #4]
 1838 0a7e 7B61     		str	r3, [r7, #20]
1063:../src/stm32f30x_tim.c ****   
1064:../src/stm32f30x_tim.c ****   /* Get the TIMx CCMR3 register value */
1065:../src/stm32f30x_tim.c ****   tmpccmrx = TIMx->CCMR3;
 1839              		.loc 1 1065 0
 1840 0a80 7B68     		ldr	r3, [r7, #4]
 1841 0a82 5B6D     		ldr	r3, [r3, #84]
 1842 0a84 3B61     		str	r3, [r7, #16]
1066:../src/stm32f30x_tim.c ****   
1067:../src/stm32f30x_tim.c ****   /* Reset the Output Compare mode and Capture/Compare selection Bits */
1068:../src/stm32f30x_tim.c ****   tmpccmrx &= (uint32_t)~TIM_CCMR3_OC6M;
 1843              		.loc 1 1068 0
 1844 0a86 3B69     		ldr	r3, [r7, #16]
 1845 0a88 23F4E043 		bic	r3, r3, #28672
 1846 0a8c 3B61     		str	r3, [r7, #16]
1069:../src/stm32f30x_tim.c ****   
1070:../src/stm32f30x_tim.c ****   /* Select the Output Compare Mode */
1071:../src/stm32f30x_tim.c ****   tmpccmrx |= (uint32_t)(TIM_OCInitStruct->TIM_OCMode << 8);
 1847              		.loc 1 1071 0
 1848 0a8e 3B68     		ldr	r3, [r7, #0]
 1849 0a90 1B68     		ldr	r3, [r3, #0]
 1850 0a92 4FEA0323 		lsl	r3, r3, #8
 1851 0a96 3A69     		ldr	r2, [r7, #16]
 1852 0a98 1343     		orrs	r3, r3, r2
 1853 0a9a 3B61     		str	r3, [r7, #16]
1072:../src/stm32f30x_tim.c ****   
1073:../src/stm32f30x_tim.c ****   /* Reset the Output Polarity level */
1074:../src/stm32f30x_tim.c ****   tmpccer &= (uint32_t)~TIM_CCER_CC6P;
 1854              		.loc 1 1074 0
 1855 0a9c FB68     		ldr	r3, [r7, #12]
 1856 0a9e 23F40013 		bic	r3, r3, #2097152
 1857 0aa2 FB60     		str	r3, [r7, #12]
1075:../src/stm32f30x_tim.c ****   /* Set the Output Compare Polarity */
1076:../src/stm32f30x_tim.c ****   tmpccer |= (uint32_t)((uint32_t)TIM_OCInitStruct->TIM_OCPolarity << 20);
 1858              		.loc 1 1076 0
 1859 0aa4 3B68     		ldr	r3, [r7, #0]
 1860 0aa6 9B89     		ldrh	r3, [r3, #12]
 1861 0aa8 4FEA0353 		lsl	r3, r3, #20
 1862 0aac FA68     		ldr	r2, [r7, #12]
 1863 0aae 1343     		orrs	r3, r3, r2
 1864 0ab0 FB60     		str	r3, [r7, #12]
1077:../src/stm32f30x_tim.c **** 
1078:../src/stm32f30x_tim.c ****   /* Set the Output State */
1079:../src/stm32f30x_tim.c ****   tmpccer |= (uint32_t)((uint32_t)TIM_OCInitStruct->TIM_OutputState << 20);
 1865              		.loc 1 1079 0
 1866 0ab2 3B68     		ldr	r3, [r7, #0]
 1867 0ab4 9B88     		ldrh	r3, [r3, #4]
 1868 0ab6 4FEA0353 		lsl	r3, r3, #20
 1869 0aba FA68     		ldr	r2, [r7, #12]
 1870 0abc 1343     		orrs	r3, r3, r2
 1871 0abe FB60     		str	r3, [r7, #12]
1080:../src/stm32f30x_tim.c ****   
1081:../src/stm32f30x_tim.c ****   if((TIMx == TIM1) || (TIMx == TIM8))
 1872              		.loc 1 1081 0
 1873 0ac0 7A68     		ldr	r2, [r7, #4]
 1874 0ac2 4FF43053 		mov	r3, #11264
 1875 0ac6 C4F20103 		movt	r3, 16385
 1876 0aca 9A42     		cmp	r2, r3
 1877 0acc 06D0     		beq	.L60
 1878              		.loc 1 1081 0 is_stmt 0 discriminator 1
 1879 0ace 7A68     		ldr	r2, [r7, #4]
 1880 0ad0 4FF45053 		mov	r3, #13312
 1881 0ad4 C4F20103 		movt	r3, 16385
 1882 0ad8 9A42     		cmp	r2, r3
 1883 0ada 03D1     		bne	.L61
 1884              	.L60:
1082:../src/stm32f30x_tim.c ****   {
1083:../src/stm32f30x_tim.c ****     assert_param(IS_TIM_OCIDLE_STATE(TIM_OCInitStruct->TIM_OCIdleState));
1084:../src/stm32f30x_tim.c ****     /* Reset the Output Compare IDLE State */
1085:../src/stm32f30x_tim.c ****     tmpcr2 &=(uint32_t) ~TIM_CR2_OIS6;
 1885              		.loc 1 1085 0 is_stmt 1
 1886 0adc 7B69     		ldr	r3, [r7, #20]
 1887 0ade 23F40033 		bic	r3, r3, #131072
 1888 0ae2 7B61     		str	r3, [r7, #20]
 1889              	.L61:
1086:../src/stm32f30x_tim.c ****     /* Set the Output Idle state */
1087:../src/stm32f30x_tim.c ****     tmpcr2 |= (uint16_t)(TIM_OCInitStruct->TIM_OCIdleState << 18);
1088:../src/stm32f30x_tim.c ****   }
1089:../src/stm32f30x_tim.c ****   /* Write to TIMx CR2 */
1090:../src/stm32f30x_tim.c ****   TIMx->CR2 = tmpcr2;
 1890              		.loc 1 1090 0
 1891 0ae4 7B68     		ldr	r3, [r7, #4]
 1892 0ae6 7A69     		ldr	r2, [r7, #20]
 1893 0ae8 5A60     		str	r2, [r3, #4]
1091:../src/stm32f30x_tim.c ****   
1092:../src/stm32f30x_tim.c ****   /* Write to TIMx CCMR2 */  
1093:../src/stm32f30x_tim.c ****   TIMx->CCMR3 = tmpccmrx;
 1894              		.loc 1 1093 0
 1895 0aea 7B68     		ldr	r3, [r7, #4]
 1896 0aec 3A69     		ldr	r2, [r7, #16]
 1897 0aee 5A65     		str	r2, [r3, #84]
1094:../src/stm32f30x_tim.c ****     
1095:../src/stm32f30x_tim.c ****   /* Set the Capture Compare Register value */
1096:../src/stm32f30x_tim.c ****   TIMx->CCR6 = TIM_OCInitStruct->TIM_Pulse;
 1898              		.loc 1 1096 0
 1899 0af0 3B68     		ldr	r3, [r7, #0]
 1900 0af2 9A68     		ldr	r2, [r3, #8]
 1901 0af4 7B68     		ldr	r3, [r7, #4]
 1902 0af6 DA65     		str	r2, [r3, #92]
1097:../src/stm32f30x_tim.c ****   
1098:../src/stm32f30x_tim.c ****   /* Write to TIMx CCER */
1099:../src/stm32f30x_tim.c ****   TIMx->CCER = tmpccer;
 1903              		.loc 1 1099 0
 1904 0af8 7B68     		ldr	r3, [r7, #4]
 1905 0afa FA68     		ldr	r2, [r7, #12]
 1906 0afc 1A62     		str	r2, [r3, #32]
1100:../src/stm32f30x_tim.c **** }
 1907              		.loc 1 1100 0
 1908 0afe 07F11C07 		add	r7, r7, #28
 1909 0b02 BD46     		mov	sp, r7
 1910 0b04 80BC     		pop	{r7}
 1911 0b06 7047     		bx	lr
 1912              		.cfi_endproc
 1913              	.LFE132:
 1915              		.align	2
 1916              		.global	TIM_SelectGC5C1
 1917              		.thumb
 1918              		.thumb_func
 1920              	TIM_SelectGC5C1:
 1921              	.LFB133:
1101:../src/stm32f30x_tim.c **** 
1102:../src/stm32f30x_tim.c **** /**
1103:../src/stm32f30x_tim.c ****   * @brief  Selects the TIM Group Channel 5 and Channel 1, 
1104:../src/stm32f30x_tim.c ****             OC1REFC is the logical AND of OC1REFC and OC5REF.
1105:../src/stm32f30x_tim.c ****   * @param  TIMx: where x can be  1 or 8 to select the TIMx peripheral
1106:../src/stm32f30x_tim.c ****   * @param  NewState: new state of the Commutation event.
1107:../src/stm32f30x_tim.c ****   *          This parameter can be: ENABLE or DISABLE.
1108:../src/stm32f30x_tim.c ****   * @retval None
1109:../src/stm32f30x_tim.c ****   */
1110:../src/stm32f30x_tim.c **** void TIM_SelectGC5C1(TIM_TypeDef* TIMx, FunctionalState NewState)
1111:../src/stm32f30x_tim.c **** {
 1922              		.loc 1 1111 0
 1923              		.cfi_startproc
 1924              		@ args = 0, pretend = 0, frame = 8
 1925              		@ frame_needed = 1, uses_anonymous_args = 0
 1926              		@ link register save eliminated.
 1927 0b08 80B4     		push	{r7}
 1928              	.LCFI66:
 1929              		.cfi_def_cfa_offset 4
 1930              		.cfi_offset 7, -4
 1931 0b0a 83B0     		sub	sp, sp, #12
 1932              	.LCFI67:
 1933              		.cfi_def_cfa_offset 16
 1934 0b0c 00AF     		add	r7, sp, #0
 1935              	.LCFI68:
 1936              		.cfi_def_cfa_register 7
 1937 0b0e 7860     		str	r0, [r7, #4]
 1938 0b10 0B46     		mov	r3, r1
 1939 0b12 FB70     		strb	r3, [r7, #3]
1112:../src/stm32f30x_tim.c ****   /* Check the parameters */
1113:../src/stm32f30x_tim.c ****   assert_param(IS_TIM_LIST4_PERIPH(TIMx));
1114:../src/stm32f30x_tim.c ****   assert_param(IS_FUNCTIONAL_STATE(NewState));
1115:../src/stm32f30x_tim.c **** 
1116:../src/stm32f30x_tim.c ****   if (NewState != DISABLE)
 1940              		.loc 1 1116 0
 1941 0b14 FB78     		ldrb	r3, [r7, #3]	@ zero_extendqisi2
 1942 0b16 002B     		cmp	r3, #0
 1943 0b18 06D0     		beq	.L63
1117:../src/stm32f30x_tim.c ****   {
1118:../src/stm32f30x_tim.c ****     /* Set the GC5C1 Bit */
1119:../src/stm32f30x_tim.c ****     TIMx->CCR5 |= TIM_CCR5_GC5C1;
 1944              		.loc 1 1119 0
 1945 0b1a 7B68     		ldr	r3, [r7, #4]
 1946 0b1c 9B6D     		ldr	r3, [r3, #88]
 1947 0b1e 43F00052 		orr	r2, r3, #536870912
 1948 0b22 7B68     		ldr	r3, [r7, #4]
 1949 0b24 9A65     		str	r2, [r3, #88]
 1950 0b26 05E0     		b	.L62
 1951              	.L63:
1120:../src/stm32f30x_tim.c ****   }
1121:../src/stm32f30x_tim.c ****   else
1122:../src/stm32f30x_tim.c ****   {
1123:../src/stm32f30x_tim.c ****     /* Reset the GC5C1 Bit */
1124:../src/stm32f30x_tim.c ****     TIMx->CCR5 &= (uint32_t)~TIM_CCR5_GC5C1;
 1952              		.loc 1 1124 0
 1953 0b28 7B68     		ldr	r3, [r7, #4]
 1954 0b2a 9B6D     		ldr	r3, [r3, #88]
 1955 0b2c 23F00052 		bic	r2, r3, #536870912
 1956 0b30 7B68     		ldr	r3, [r7, #4]
 1957 0b32 9A65     		str	r2, [r3, #88]
 1958              	.L62:
1125:../src/stm32f30x_tim.c ****   }
1126:../src/stm32f30x_tim.c **** }
 1959              		.loc 1 1126 0
 1960 0b34 07F10C07 		add	r7, r7, #12
 1961 0b38 BD46     		mov	sp, r7
 1962 0b3a 80BC     		pop	{r7}
 1963 0b3c 7047     		bx	lr
 1964              		.cfi_endproc
 1965              	.LFE133:
 1967 0b3e 00BF     		.align	2
 1968              		.global	TIM_SelectGC5C2
 1969              		.thumb
 1970              		.thumb_func
 1972              	TIM_SelectGC5C2:
 1973              	.LFB134:
1127:../src/stm32f30x_tim.c **** 
1128:../src/stm32f30x_tim.c **** /**
1129:../src/stm32f30x_tim.c ****   * @brief  Selects the TIM Group Channel 5 and Channel 2, 
1130:../src/stm32f30x_tim.c ****             OC2REFC is the logical AND of OC2REFC and OC5REF.
1131:../src/stm32f30x_tim.c ****   * @param  TIMx: where x can be  1 or 8 to select the TIMx peripheral
1132:../src/stm32f30x_tim.c ****   * @param  NewState: new state of the Commutation event.
1133:../src/stm32f30x_tim.c ****   *          This parameter can be: ENABLE or DISABLE.
1134:../src/stm32f30x_tim.c ****   * @retval None
1135:../src/stm32f30x_tim.c ****   */
1136:../src/stm32f30x_tim.c **** void TIM_SelectGC5C2(TIM_TypeDef* TIMx, FunctionalState NewState)
1137:../src/stm32f30x_tim.c **** {
 1974              		.loc 1 1137 0
 1975              		.cfi_startproc
 1976              		@ args = 0, pretend = 0, frame = 8
 1977              		@ frame_needed = 1, uses_anonymous_args = 0
 1978              		@ link register save eliminated.
 1979 0b40 80B4     		push	{r7}
 1980              	.LCFI69:
 1981              		.cfi_def_cfa_offset 4
 1982              		.cfi_offset 7, -4
 1983 0b42 83B0     		sub	sp, sp, #12
 1984              	.LCFI70:
 1985              		.cfi_def_cfa_offset 16
 1986 0b44 00AF     		add	r7, sp, #0
 1987              	.LCFI71:
 1988              		.cfi_def_cfa_register 7
 1989 0b46 7860     		str	r0, [r7, #4]
 1990 0b48 0B46     		mov	r3, r1
 1991 0b4a FB70     		strb	r3, [r7, #3]
1138:../src/stm32f30x_tim.c ****   /* Check the parameters */
1139:../src/stm32f30x_tim.c ****   assert_param(IS_TIM_LIST4_PERIPH(TIMx));
1140:../src/stm32f30x_tim.c ****   assert_param(IS_FUNCTIONAL_STATE(NewState));
1141:../src/stm32f30x_tim.c **** 
1142:../src/stm32f30x_tim.c ****   if (NewState != DISABLE)
 1992              		.loc 1 1142 0
 1993 0b4c FB78     		ldrb	r3, [r7, #3]	@ zero_extendqisi2
 1994 0b4e 002B     		cmp	r3, #0
 1995 0b50 06D0     		beq	.L66
1143:../src/stm32f30x_tim.c ****   {
1144:../src/stm32f30x_tim.c ****     /* Set the GC5C2 Bit */
1145:../src/stm32f30x_tim.c ****     TIMx->CCR5 |= TIM_CCR5_GC5C2;
 1996              		.loc 1 1145 0
 1997 0b52 7B68     		ldr	r3, [r7, #4]
 1998 0b54 9B6D     		ldr	r3, [r3, #88]
 1999 0b56 43F08042 		orr	r2, r3, #1073741824
 2000 0b5a 7B68     		ldr	r3, [r7, #4]
 2001 0b5c 9A65     		str	r2, [r3, #88]
 2002 0b5e 05E0     		b	.L65
 2003              	.L66:
1146:../src/stm32f30x_tim.c ****   }
1147:../src/stm32f30x_tim.c ****   else
1148:../src/stm32f30x_tim.c ****   {
1149:../src/stm32f30x_tim.c ****     /* Reset the GC5C2 Bit */
1150:../src/stm32f30x_tim.c ****     TIMx->CCR5 &= (uint32_t)~TIM_CCR5_GC5C2;
 2004              		.loc 1 1150 0
 2005 0b60 7B68     		ldr	r3, [r7, #4]
 2006 0b62 9B6D     		ldr	r3, [r3, #88]
 2007 0b64 23F08042 		bic	r2, r3, #1073741824
 2008 0b68 7B68     		ldr	r3, [r7, #4]
 2009 0b6a 9A65     		str	r2, [r3, #88]
 2010              	.L65:
1151:../src/stm32f30x_tim.c ****   }
1152:../src/stm32f30x_tim.c **** }
 2011              		.loc 1 1152 0
 2012 0b6c 07F10C07 		add	r7, r7, #12
 2013 0b70 BD46     		mov	sp, r7
 2014 0b72 80BC     		pop	{r7}
 2015 0b74 7047     		bx	lr
 2016              		.cfi_endproc
 2017              	.LFE134:
 2019 0b76 00BF     		.align	2
 2020              		.global	TIM_SelectGC5C3
 2021              		.thumb
 2022              		.thumb_func
 2024              	TIM_SelectGC5C3:
 2025              	.LFB135:
1153:../src/stm32f30x_tim.c **** 
1154:../src/stm32f30x_tim.c **** 
1155:../src/stm32f30x_tim.c **** /**
1156:../src/stm32f30x_tim.c ****   * @brief  Selects the TIM Group Channel 5 and Channel 3, 
1157:../src/stm32f30x_tim.c ****             OC3REFC is the logical AND of OC3REFC and OC5REF.
1158:../src/stm32f30x_tim.c ****   * @param  TIMx: where x can be  1 or 8 to select the TIMx peripheral
1159:../src/stm32f30x_tim.c ****   * @param  NewState: new state of the Commutation event.
1160:../src/stm32f30x_tim.c ****   *          This parameter can be: ENABLE or DISABLE.
1161:../src/stm32f30x_tim.c ****   * @retval None
1162:../src/stm32f30x_tim.c ****   */
1163:../src/stm32f30x_tim.c **** void TIM_SelectGC5C3(TIM_TypeDef* TIMx, FunctionalState NewState)
1164:../src/stm32f30x_tim.c **** {
 2026              		.loc 1 1164 0
 2027              		.cfi_startproc
 2028              		@ args = 0, pretend = 0, frame = 8
 2029              		@ frame_needed = 1, uses_anonymous_args = 0
 2030              		@ link register save eliminated.
 2031 0b78 80B4     		push	{r7}
 2032              	.LCFI72:
 2033              		.cfi_def_cfa_offset 4
 2034              		.cfi_offset 7, -4
 2035 0b7a 83B0     		sub	sp, sp, #12
 2036              	.LCFI73:
 2037              		.cfi_def_cfa_offset 16
 2038 0b7c 00AF     		add	r7, sp, #0
 2039              	.LCFI74:
 2040              		.cfi_def_cfa_register 7
 2041 0b7e 7860     		str	r0, [r7, #4]
 2042 0b80 0B46     		mov	r3, r1
 2043 0b82 FB70     		strb	r3, [r7, #3]
1165:../src/stm32f30x_tim.c ****   /* Check the parameters */
1166:../src/stm32f30x_tim.c ****   assert_param(IS_TIM_LIST4_PERIPH(TIMx));
1167:../src/stm32f30x_tim.c ****   assert_param(IS_FUNCTIONAL_STATE(NewState));
1168:../src/stm32f30x_tim.c **** 
1169:../src/stm32f30x_tim.c ****   if (NewState != DISABLE)
 2044              		.loc 1 1169 0
 2045 0b84 FB78     		ldrb	r3, [r7, #3]	@ zero_extendqisi2
 2046 0b86 002B     		cmp	r3, #0
 2047 0b88 06D0     		beq	.L69
1170:../src/stm32f30x_tim.c ****   {
1171:../src/stm32f30x_tim.c ****     /* Set the GC5C3 Bit */
1172:../src/stm32f30x_tim.c ****     TIMx->CCR5 |= TIM_CCR5_GC5C3;
 2048              		.loc 1 1172 0
 2049 0b8a 7B68     		ldr	r3, [r7, #4]
 2050 0b8c 9B6D     		ldr	r3, [r3, #88]
 2051 0b8e 43F00042 		orr	r2, r3, #-2147483648
 2052 0b92 7B68     		ldr	r3, [r7, #4]
 2053 0b94 9A65     		str	r2, [r3, #88]
 2054 0b96 05E0     		b	.L68
 2055              	.L69:
1173:../src/stm32f30x_tim.c ****   }
1174:../src/stm32f30x_tim.c ****   else
1175:../src/stm32f30x_tim.c ****   {
1176:../src/stm32f30x_tim.c ****     /* Reset the GC5C3 Bit */
1177:../src/stm32f30x_tim.c ****     TIMx->CCR5 &= (uint32_t)~TIM_CCR5_GC5C3;
 2056              		.loc 1 1177 0
 2057 0b98 7B68     		ldr	r3, [r7, #4]
 2058 0b9a 9B6D     		ldr	r3, [r3, #88]
 2059 0b9c 23F00042 		bic	r2, r3, #-2147483648
 2060 0ba0 7B68     		ldr	r3, [r7, #4]
 2061 0ba2 9A65     		str	r2, [r3, #88]
 2062              	.L68:
1178:../src/stm32f30x_tim.c ****   }
1179:../src/stm32f30x_tim.c **** }
 2063              		.loc 1 1179 0
 2064 0ba4 07F10C07 		add	r7, r7, #12
 2065 0ba8 BD46     		mov	sp, r7
 2066 0baa 80BC     		pop	{r7}
 2067 0bac 7047     		bx	lr
 2068              		.cfi_endproc
 2069              	.LFE135:
 2071 0bae 00BF     		.align	2
 2072              		.global	TIM_OCStructInit
 2073              		.thumb
 2074              		.thumb_func
 2076              	TIM_OCStructInit:
 2077              	.LFB136:
1180:../src/stm32f30x_tim.c **** 
1181:../src/stm32f30x_tim.c **** /**
1182:../src/stm32f30x_tim.c ****   * @brief  Fills each TIM_OCInitStruct member with its default value.
1183:../src/stm32f30x_tim.c ****   * @param  TIM_OCInitStruct: pointer to a TIM_OCInitTypeDef structure which will
1184:../src/stm32f30x_tim.c ****   *         be initialized.
1185:../src/stm32f30x_tim.c ****   * @retval None
1186:../src/stm32f30x_tim.c ****   */
1187:../src/stm32f30x_tim.c **** void TIM_OCStructInit(TIM_OCInitTypeDef* TIM_OCInitStruct)
1188:../src/stm32f30x_tim.c **** {
 2078              		.loc 1 1188 0
 2079              		.cfi_startproc
 2080              		@ args = 0, pretend = 0, frame = 8
 2081              		@ frame_needed = 1, uses_anonymous_args = 0
 2082              		@ link register save eliminated.
 2083 0bb0 80B4     		push	{r7}
 2084              	.LCFI75:
 2085              		.cfi_def_cfa_offset 4
 2086              		.cfi_offset 7, -4
 2087 0bb2 83B0     		sub	sp, sp, #12
 2088              	.LCFI76:
 2089              		.cfi_def_cfa_offset 16
 2090 0bb4 00AF     		add	r7, sp, #0
 2091              	.LCFI77:
 2092              		.cfi_def_cfa_register 7
 2093 0bb6 7860     		str	r0, [r7, #4]
1189:../src/stm32f30x_tim.c ****   /* Set the default configuration */
1190:../src/stm32f30x_tim.c ****   TIM_OCInitStruct->TIM_OCMode = TIM_OCMode_Timing;
 2094              		.loc 1 1190 0
 2095 0bb8 7B68     		ldr	r3, [r7, #4]
 2096 0bba 4FF00002 		mov	r2, #0
 2097 0bbe 1A60     		str	r2, [r3, #0]
1191:../src/stm32f30x_tim.c ****   TIM_OCInitStruct->TIM_OutputState = TIM_OutputState_Disable;
 2098              		.loc 1 1191 0
 2099 0bc0 7B68     		ldr	r3, [r7, #4]
 2100 0bc2 4FF00002 		mov	r2, #0
 2101 0bc6 9A80     		strh	r2, [r3, #4]	@ movhi
1192:../src/stm32f30x_tim.c ****   TIM_OCInitStruct->TIM_OutputNState = TIM_OutputNState_Disable;
 2102              		.loc 1 1192 0
 2103 0bc8 7B68     		ldr	r3, [r7, #4]
 2104 0bca 4FF00002 		mov	r2, #0
 2105 0bce DA80     		strh	r2, [r3, #6]	@ movhi
1193:../src/stm32f30x_tim.c ****   TIM_OCInitStruct->TIM_Pulse = 0x00000000;
 2106              		.loc 1 1193 0
 2107 0bd0 7B68     		ldr	r3, [r7, #4]
 2108 0bd2 4FF00002 		mov	r2, #0
 2109 0bd6 9A60     		str	r2, [r3, #8]
1194:../src/stm32f30x_tim.c ****   TIM_OCInitStruct->TIM_OCPolarity = TIM_OCPolarity_High;
 2110              		.loc 1 1194 0
 2111 0bd8 7B68     		ldr	r3, [r7, #4]
 2112 0bda 4FF00002 		mov	r2, #0
 2113 0bde 9A81     		strh	r2, [r3, #12]	@ movhi
1195:../src/stm32f30x_tim.c ****   TIM_OCInitStruct->TIM_OCNPolarity = TIM_OCPolarity_High;
 2114              		.loc 1 1195 0
 2115 0be0 7B68     		ldr	r3, [r7, #4]
 2116 0be2 4FF00002 		mov	r2, #0
 2117 0be6 DA81     		strh	r2, [r3, #14]	@ movhi
1196:../src/stm32f30x_tim.c ****   TIM_OCInitStruct->TIM_OCIdleState = TIM_OCIdleState_Reset;
 2118              		.loc 1 1196 0
 2119 0be8 7B68     		ldr	r3, [r7, #4]
 2120 0bea 4FF00002 		mov	r2, #0
 2121 0bee 1A82     		strh	r2, [r3, #16]	@ movhi
1197:../src/stm32f30x_tim.c ****   TIM_OCInitStruct->TIM_OCNIdleState = TIM_OCNIdleState_Reset;
 2122              		.loc 1 1197 0
 2123 0bf0 7B68     		ldr	r3, [r7, #4]
 2124 0bf2 4FF00002 		mov	r2, #0
 2125 0bf6 5A82     		strh	r2, [r3, #18]	@ movhi
1198:../src/stm32f30x_tim.c **** }
 2126              		.loc 1 1198 0
 2127 0bf8 07F10C07 		add	r7, r7, #12
 2128 0bfc BD46     		mov	sp, r7
 2129 0bfe 80BC     		pop	{r7}
 2130 0c00 7047     		bx	lr
 2131              		.cfi_endproc
 2132              	.LFE136:
 2134 0c02 00BF     		.align	2
 2135              		.global	TIM_SelectOCxM
 2136              		.thumb
 2137              		.thumb_func
 2139              	TIM_SelectOCxM:
 2140              	.LFB137:
1199:../src/stm32f30x_tim.c **** 
1200:../src/stm32f30x_tim.c **** /**
1201:../src/stm32f30x_tim.c ****   * @brief  Selects the TIM Output Compare Mode.
1202:../src/stm32f30x_tim.c ****   * @note   This function disables the selected channel before changing the Output
1203:../src/stm32f30x_tim.c ****   *         Compare Mode. If needed, user has to enable this channel using
1204:../src/stm32f30x_tim.c ****   *         TIM_CCxCmd() and TIM_CCxNCmd() functions.
1205:../src/stm32f30x_tim.c ****   * @param  TIMx: where x can be 1, 2, 3, 4, 8, 15, 16 or 17 to select the TIM peripheral.
1206:../src/stm32f30x_tim.c ****   * @param  TIM_Channel: specifies the TIM Channel
1207:../src/stm32f30x_tim.c ****   *          This parameter can be one of the following values:
1208:../src/stm32f30x_tim.c ****   *            @arg TIM_Channel_1: TIM Channel 1
1209:../src/stm32f30x_tim.c ****   *            @arg TIM_Channel_2: TIM Channel 2
1210:../src/stm32f30x_tim.c ****   *            @arg TIM_Channel_3: TIM Channel 3
1211:../src/stm32f30x_tim.c ****   *            @arg TIM_Channel_4: TIM Channel 4
1212:../src/stm32f30x_tim.c ****   * @param  TIM_OCMode: specifies the TIM Output Compare Mode.
1213:../src/stm32f30x_tim.c ****   *           This parameter can be one of the following values:
1214:../src/stm32f30x_tim.c ****   *            @arg TIM_OCMode_Timing
1215:../src/stm32f30x_tim.c ****   *            @arg TIM_OCMode_Active
1216:../src/stm32f30x_tim.c ****   *            @arg TIM_OCMode_Toggle
1217:../src/stm32f30x_tim.c ****   *            @arg TIM_OCMode_PWM1
1218:../src/stm32f30x_tim.c ****   *            @arg TIM_OCMode_PWM2
1219:../src/stm32f30x_tim.c ****   *            @arg TIM_ForcedAction_Active
1220:../src/stm32f30x_tim.c ****   *            @arg TIM_ForcedAction_InActive
1221:../src/stm32f30x_tim.c ****   *            @arg TIM_OCMode_Retrigerrable_OPM1
1222:../src/stm32f30x_tim.c ****   *            @arg TIM_OCMode_Retrigerrable_OPM2
1223:../src/stm32f30x_tim.c ****   *            @arg TIM_OCMode_Combined_PWM1
1224:../src/stm32f30x_tim.c ****   *            @arg TIM_OCMode_Combined_PWM2
1225:../src/stm32f30x_tim.c ****   *            @arg TIM_OCMode_Asymmetric_PWM1
1226:../src/stm32f30x_tim.c ****   *            @arg TIM_OCMode_Asymmetric_PWM2            
1227:../src/stm32f30x_tim.c ****   * @retval None
1228:../src/stm32f30x_tim.c ****   */
1229:../src/stm32f30x_tim.c **** void TIM_SelectOCxM(TIM_TypeDef* TIMx, uint16_t TIM_Channel, uint32_t TIM_OCMode) /* to be updated*
1230:../src/stm32f30x_tim.c **** {
 2141              		.loc 1 1230 0
 2142              		.cfi_startproc
 2143              		@ args = 0, pretend = 0, frame = 24
 2144              		@ frame_needed = 1, uses_anonymous_args = 0
 2145              		@ link register save eliminated.
 2146 0c04 80B4     		push	{r7}
 2147              	.LCFI78:
 2148              		.cfi_def_cfa_offset 4
 2149              		.cfi_offset 7, -4
 2150 0c06 87B0     		sub	sp, sp, #28
 2151              	.LCFI79:
 2152              		.cfi_def_cfa_offset 32
 2153 0c08 00AF     		add	r7, sp, #0
 2154              	.LCFI80:
 2155              		.cfi_def_cfa_register 7
 2156 0c0a F860     		str	r0, [r7, #12]
 2157 0c0c 0B46     		mov	r3, r1
 2158 0c0e 7A60     		str	r2, [r7, #4]
 2159 0c10 7B81     		strh	r3, [r7, #10]	@ movhi
1231:../src/stm32f30x_tim.c ****   uint32_t tmp = 0;
 2160              		.loc 1 1231 0
 2161 0c12 4FF00003 		mov	r3, #0
 2162 0c16 7B61     		str	r3, [r7, #20]
1232:../src/stm32f30x_tim.c ****   uint16_t tmp1 = 0;
 2163              		.loc 1 1232 0
 2164 0c18 4FF00003 		mov	r3, #0
 2165 0c1c 7B82     		strh	r3, [r7, #18]	@ movhi
1233:../src/stm32f30x_tim.c **** 
1234:../src/stm32f30x_tim.c ****   /* Check the parameters */
1235:../src/stm32f30x_tim.c ****   assert_param(IS_TIM_LIST1_PERIPH(TIMx));
1236:../src/stm32f30x_tim.c ****   assert_param(IS_TIM_CHANNEL(TIM_Channel));
1237:../src/stm32f30x_tim.c ****   assert_param(IS_TIM_OCM(TIM_OCMode));
1238:../src/stm32f30x_tim.c **** 
1239:../src/stm32f30x_tim.c ****   tmp = (uint32_t) TIMx;
 2166              		.loc 1 1239 0
 2167 0c1e FB68     		ldr	r3, [r7, #12]
 2168 0c20 7B61     		str	r3, [r7, #20]
1240:../src/stm32f30x_tim.c ****   tmp += CCMR_OFFSET;
 2169              		.loc 1 1240 0
 2170 0c22 7B69     		ldr	r3, [r7, #20]
 2171 0c24 03F11803 		add	r3, r3, #24
 2172 0c28 7B61     		str	r3, [r7, #20]
1241:../src/stm32f30x_tim.c **** 
1242:../src/stm32f30x_tim.c ****   tmp1 = CCER_CCE_SET << (uint16_t)TIM_Channel;
 2173              		.loc 1 1242 0
 2174 0c2a 7B89     		ldrh	r3, [r7, #10]
 2175 0c2c 4FF00102 		mov	r2, #1
 2176 0c30 02FA03F3 		lsl	r3, r2, r3
 2177 0c34 7B82     		strh	r3, [r7, #18]	@ movhi
1243:../src/stm32f30x_tim.c **** 
1244:../src/stm32f30x_tim.c ****   /* Disable the Channel: Reset the CCxE Bit */
1245:../src/stm32f30x_tim.c ****   TIMx->CCER &= (uint16_t) ~tmp1;
 2178              		.loc 1 1245 0
 2179 0c36 FB68     		ldr	r3, [r7, #12]
 2180 0c38 1A6A     		ldr	r2, [r3, #32]
 2181 0c3a 7B8A     		ldrh	r3, [r7, #18]	@ movhi
 2182 0c3c 6FEA0303 		mvn	r3, r3
 2183 0c40 9BB2     		uxth	r3, r3
 2184 0c42 1A40     		ands	r2, r2, r3
 2185 0c44 FB68     		ldr	r3, [r7, #12]
 2186 0c46 1A62     		str	r2, [r3, #32]
1246:../src/stm32f30x_tim.c **** 
1247:../src/stm32f30x_tim.c ****   if((TIM_Channel == TIM_Channel_1) ||(TIM_Channel == TIM_Channel_3))
 2187              		.loc 1 1247 0
 2188 0c48 7B89     		ldrh	r3, [r7, #10]
 2189 0c4a 002B     		cmp	r3, #0
 2190 0c4c 02D0     		beq	.L73
 2191              		.loc 1 1247 0 is_stmt 0 discriminator 1
 2192 0c4e 7B89     		ldrh	r3, [r7, #10]
 2193 0c50 082B     		cmp	r3, #8
 2194 0c52 15D1     		bne	.L74
 2195              	.L73:
1248:../src/stm32f30x_tim.c ****   {
1249:../src/stm32f30x_tim.c ****     tmp += (TIM_Channel>>1);
 2196              		.loc 1 1249 0 is_stmt 1
 2197 0c54 7B89     		ldrh	r3, [r7, #10]
 2198 0c56 4FEA5303 		lsr	r3, r3, #1
 2199 0c5a 9BB2     		uxth	r3, r3
 2200 0c5c 7A69     		ldr	r2, [r7, #20]
 2201 0c5e D318     		adds	r3, r2, r3
 2202 0c60 7B61     		str	r3, [r7, #20]
1250:../src/stm32f30x_tim.c **** 
1251:../src/stm32f30x_tim.c ****     /* Reset the OCxM bits in the CCMRx register */
1252:../src/stm32f30x_tim.c ****     *(__IO uint32_t *) tmp &= CCMR_OC13M_MASK;
 2203              		.loc 1 1252 0
 2204 0c62 7A69     		ldr	r2, [r7, #20]
 2205 0c64 7B69     		ldr	r3, [r7, #20]
 2206 0c66 1B68     		ldr	r3, [r3, #0]
 2207 0c68 23F48033 		bic	r3, r3, #65536
 2208 0c6c 23F07003 		bic	r3, r3, #112
 2209 0c70 1360     		str	r3, [r2, #0]
1253:../src/stm32f30x_tim.c ****    
1254:../src/stm32f30x_tim.c ****     /* Configure the OCxM bits in the CCMRx register */
1255:../src/stm32f30x_tim.c ****     *(__IO uint32_t *) tmp |= TIM_OCMode;
 2210              		.loc 1 1255 0
 2211 0c72 7B69     		ldr	r3, [r7, #20]
 2212 0c74 7A69     		ldr	r2, [r7, #20]
 2213 0c76 1168     		ldr	r1, [r2, #0]
 2214 0c78 7A68     		ldr	r2, [r7, #4]
 2215 0c7a 0A43     		orrs	r2, r2, r1
 2216 0c7c 1A60     		str	r2, [r3, #0]
 2217 0c7e 19E0     		b	.L72
 2218              	.L74:
1256:../src/stm32f30x_tim.c ****   }
1257:../src/stm32f30x_tim.c ****   else
1258:../src/stm32f30x_tim.c ****   {
1259:../src/stm32f30x_tim.c ****     tmp += (uint32_t)(TIM_Channel - (uint32_t)4)>> (uint32_t)1;
 2219              		.loc 1 1259 0
 2220 0c80 7B89     		ldrh	r3, [r7, #10]
 2221 0c82 A3F10403 		sub	r3, r3, #4
 2222 0c86 4FEA5303 		lsr	r3, r3, #1
 2223 0c8a 7A69     		ldr	r2, [r7, #20]
 2224 0c8c D318     		adds	r3, r2, r3
 2225 0c8e 7B61     		str	r3, [r7, #20]
1260:../src/stm32f30x_tim.c **** 
1261:../src/stm32f30x_tim.c ****     /* Reset the OCxM bits in the CCMRx register */
1262:../src/stm32f30x_tim.c ****     *(__IO uint32_t *) tmp &= CCMR_OC24M_MASK;
 2226              		.loc 1 1262 0
 2227 0c90 7A69     		ldr	r2, [r7, #20]
 2228 0c92 7B69     		ldr	r3, [r7, #20]
 2229 0c94 1B68     		ldr	r3, [r3, #0]
 2230 0c96 23F08073 		bic	r3, r3, #16777216
 2231 0c9a 23F4E043 		bic	r3, r3, #28672
 2232 0c9e 1360     		str	r3, [r2, #0]
1263:../src/stm32f30x_tim.c ****     
1264:../src/stm32f30x_tim.c ****     /* Configure the OCxM bits in the CCMRx register */
1265:../src/stm32f30x_tim.c ****     *(__IO uint32_t *) tmp |= (uint16_t)(TIM_OCMode << 8);
 2233              		.loc 1 1265 0
 2234 0ca0 7B69     		ldr	r3, [r7, #20]
 2235 0ca2 7A69     		ldr	r2, [r7, #20]
 2236 0ca4 1168     		ldr	r1, [r2, #0]
 2237 0ca6 7A68     		ldr	r2, [r7, #4]
 2238 0ca8 92B2     		uxth	r2, r2
 2239 0caa 4FEA0222 		lsl	r2, r2, #8
 2240 0cae 92B2     		uxth	r2, r2
 2241 0cb0 0A43     		orrs	r2, r2, r1
 2242 0cb2 1A60     		str	r2, [r3, #0]
 2243              	.L72:
1266:../src/stm32f30x_tim.c ****   }
1267:../src/stm32f30x_tim.c **** }
 2244              		.loc 1 1267 0
 2245 0cb4 07F11C07 		add	r7, r7, #28
 2246 0cb8 BD46     		mov	sp, r7
 2247 0cba 80BC     		pop	{r7}
 2248 0cbc 7047     		bx	lr
 2249              		.cfi_endproc
 2250              	.LFE137:
 2252 0cbe 00BF     		.align	2
 2253              		.global	TIM_SetCompare1
 2254              		.thumb
 2255              		.thumb_func
 2257              	TIM_SetCompare1:
 2258              	.LFB138:
1268:../src/stm32f30x_tim.c **** 
1269:../src/stm32f30x_tim.c **** /**
1270:../src/stm32f30x_tim.c ****   * @brief  Sets the TIMx Capture Compare1 Register value
1271:../src/stm32f30x_tim.c ****   * @param  TIMx: where x can be 1, 2, 3, 4, 8, 15, 16 or 17 to select the TIM peripheral.
1272:../src/stm32f30x_tim.c ****   * @param  Compare1: specifies the Capture Compare1 register new value.
1273:../src/stm32f30x_tim.c ****   * @retval None
1274:../src/stm32f30x_tim.c ****   */
1275:../src/stm32f30x_tim.c **** void TIM_SetCompare1(TIM_TypeDef* TIMx, uint32_t Compare1)
1276:../src/stm32f30x_tim.c **** {
 2259              		.loc 1 1276 0
 2260              		.cfi_startproc
 2261              		@ args = 0, pretend = 0, frame = 8
 2262              		@ frame_needed = 1, uses_anonymous_args = 0
 2263              		@ link register save eliminated.
 2264 0cc0 80B4     		push	{r7}
 2265              	.LCFI81:
 2266              		.cfi_def_cfa_offset 4
 2267              		.cfi_offset 7, -4
 2268 0cc2 83B0     		sub	sp, sp, #12
 2269              	.LCFI82:
 2270              		.cfi_def_cfa_offset 16
 2271 0cc4 00AF     		add	r7, sp, #0
 2272              	.LCFI83:
 2273              		.cfi_def_cfa_register 7
 2274 0cc6 7860     		str	r0, [r7, #4]
 2275 0cc8 3960     		str	r1, [r7, #0]
1277:../src/stm32f30x_tim.c ****   /* Check the parameters */
1278:../src/stm32f30x_tim.c ****   assert_param(IS_TIM_LIST1_PERIPH(TIMx));
1279:../src/stm32f30x_tim.c **** 
1280:../src/stm32f30x_tim.c ****   /* Set the Capture Compare1 Register value */
1281:../src/stm32f30x_tim.c ****   TIMx->CCR1 = Compare1;
 2276              		.loc 1 1281 0
 2277 0cca 7B68     		ldr	r3, [r7, #4]
 2278 0ccc 3A68     		ldr	r2, [r7, #0]
 2279 0cce 5A63     		str	r2, [r3, #52]
1282:../src/stm32f30x_tim.c **** }
 2280              		.loc 1 1282 0
 2281 0cd0 07F10C07 		add	r7, r7, #12
 2282 0cd4 BD46     		mov	sp, r7
 2283 0cd6 80BC     		pop	{r7}
 2284 0cd8 7047     		bx	lr
 2285              		.cfi_endproc
 2286              	.LFE138:
 2288 0cda 00BF     		.align	2
 2289              		.global	TIM_SetCompare2
 2290              		.thumb
 2291              		.thumb_func
 2293              	TIM_SetCompare2:
 2294              	.LFB139:
1283:../src/stm32f30x_tim.c **** 
1284:../src/stm32f30x_tim.c **** /**
1285:../src/stm32f30x_tim.c ****   * @brief  Sets the TIMx Capture Compare2 Register value
1286:../src/stm32f30x_tim.c ****   * @param  TIMx: where x can be 1, 2, 3, 4, 8 or 15 to select the TIM 
1287:../src/stm32f30x_tim.c ****   *         peripheral.
1288:../src/stm32f30x_tim.c ****   * @param  Compare2: specifies the Capture Compare2 register new value.
1289:../src/stm32f30x_tim.c ****   * @retval None
1290:../src/stm32f30x_tim.c ****   */
1291:../src/stm32f30x_tim.c **** void TIM_SetCompare2(TIM_TypeDef* TIMx, uint32_t Compare2)
1292:../src/stm32f30x_tim.c **** {
 2295              		.loc 1 1292 0
 2296              		.cfi_startproc
 2297              		@ args = 0, pretend = 0, frame = 8
 2298              		@ frame_needed = 1, uses_anonymous_args = 0
 2299              		@ link register save eliminated.
 2300 0cdc 80B4     		push	{r7}
 2301              	.LCFI84:
 2302              		.cfi_def_cfa_offset 4
 2303              		.cfi_offset 7, -4
 2304 0cde 83B0     		sub	sp, sp, #12
 2305              	.LCFI85:
 2306              		.cfi_def_cfa_offset 16
 2307 0ce0 00AF     		add	r7, sp, #0
 2308              	.LCFI86:
 2309              		.cfi_def_cfa_register 7
 2310 0ce2 7860     		str	r0, [r7, #4]
 2311 0ce4 3960     		str	r1, [r7, #0]
1293:../src/stm32f30x_tim.c ****   /* Check the parameters */
1294:../src/stm32f30x_tim.c ****   assert_param(IS_TIM_LIST2_PERIPH(TIMx));
1295:../src/stm32f30x_tim.c **** 
1296:../src/stm32f30x_tim.c ****   /* Set the Capture Compare2 Register value */
1297:../src/stm32f30x_tim.c ****   TIMx->CCR2 = Compare2;
 2312              		.loc 1 1297 0
 2313 0ce6 7B68     		ldr	r3, [r7, #4]
 2314 0ce8 3A68     		ldr	r2, [r7, #0]
 2315 0cea 9A63     		str	r2, [r3, #56]
1298:../src/stm32f30x_tim.c **** }
 2316              		.loc 1 1298 0
 2317 0cec 07F10C07 		add	r7, r7, #12
 2318 0cf0 BD46     		mov	sp, r7
 2319 0cf2 80BC     		pop	{r7}
 2320 0cf4 7047     		bx	lr
 2321              		.cfi_endproc
 2322              	.LFE139:
 2324 0cf6 00BF     		.align	2
 2325              		.global	TIM_SetCompare3
 2326              		.thumb
 2327              		.thumb_func
 2329              	TIM_SetCompare3:
 2330              	.LFB140:
1299:../src/stm32f30x_tim.c **** 
1300:../src/stm32f30x_tim.c **** /**
1301:../src/stm32f30x_tim.c ****   * @brief  Sets the TIMx Capture Compare3 Register value
1302:../src/stm32f30x_tim.c ****   * @param  TIMx: where x can be 1, 2, 3, 4, 5 or 8 to select the TIM peripheral.
1303:../src/stm32f30x_tim.c ****   * @param  Compare3: specifies the Capture Compare3 register new value.
1304:../src/stm32f30x_tim.c ****   * @retval None
1305:../src/stm32f30x_tim.c ****   */
1306:../src/stm32f30x_tim.c **** void TIM_SetCompare3(TIM_TypeDef* TIMx, uint32_t Compare3)
1307:../src/stm32f30x_tim.c **** {
 2331              		.loc 1 1307 0
 2332              		.cfi_startproc
 2333              		@ args = 0, pretend = 0, frame = 8
 2334              		@ frame_needed = 1, uses_anonymous_args = 0
 2335              		@ link register save eliminated.
 2336 0cf8 80B4     		push	{r7}
 2337              	.LCFI87:
 2338              		.cfi_def_cfa_offset 4
 2339              		.cfi_offset 7, -4
 2340 0cfa 83B0     		sub	sp, sp, #12
 2341              	.LCFI88:
 2342              		.cfi_def_cfa_offset 16
 2343 0cfc 00AF     		add	r7, sp, #0
 2344              	.LCFI89:
 2345              		.cfi_def_cfa_register 7
 2346 0cfe 7860     		str	r0, [r7, #4]
 2347 0d00 3960     		str	r1, [r7, #0]
1308:../src/stm32f30x_tim.c ****   /* Check the parameters */
1309:../src/stm32f30x_tim.c ****   assert_param(IS_TIM_LIST3_PERIPH(TIMx));
1310:../src/stm32f30x_tim.c **** 
1311:../src/stm32f30x_tim.c ****   /* Set the Capture Compare3 Register value */
1312:../src/stm32f30x_tim.c ****   TIMx->CCR3 = Compare3;
 2348              		.loc 1 1312 0
 2349 0d02 7B68     		ldr	r3, [r7, #4]
 2350 0d04 3A68     		ldr	r2, [r7, #0]
 2351 0d06 DA63     		str	r2, [r3, #60]
1313:../src/stm32f30x_tim.c **** }
 2352              		.loc 1 1313 0
 2353 0d08 07F10C07 		add	r7, r7, #12
 2354 0d0c BD46     		mov	sp, r7
 2355 0d0e 80BC     		pop	{r7}
 2356 0d10 7047     		bx	lr
 2357              		.cfi_endproc
 2358              	.LFE140:
 2360 0d12 00BF     		.align	2
 2361              		.global	TIM_SetCompare4
 2362              		.thumb
 2363              		.thumb_func
 2365              	TIM_SetCompare4:
 2366              	.LFB141:
1314:../src/stm32f30x_tim.c **** 
1315:../src/stm32f30x_tim.c **** /**
1316:../src/stm32f30x_tim.c ****   * @brief  Sets the TIMx Capture Compare4 Register value
1317:../src/stm32f30x_tim.c ****   * @param  TIMx: where x can be 1, 2, 3, 4, 5 or 8 to select the TIM peripheral.
1318:../src/stm32f30x_tim.c ****   * @param  Compare4: specifies the Capture Compare4 register new value.
1319:../src/stm32f30x_tim.c ****   * @retval None
1320:../src/stm32f30x_tim.c ****   */
1321:../src/stm32f30x_tim.c **** void TIM_SetCompare4(TIM_TypeDef* TIMx, uint32_t Compare4)
1322:../src/stm32f30x_tim.c **** {
 2367              		.loc 1 1322 0
 2368              		.cfi_startproc
 2369              		@ args = 0, pretend = 0, frame = 8
 2370              		@ frame_needed = 1, uses_anonymous_args = 0
 2371              		@ link register save eliminated.
 2372 0d14 80B4     		push	{r7}
 2373              	.LCFI90:
 2374              		.cfi_def_cfa_offset 4
 2375              		.cfi_offset 7, -4
 2376 0d16 83B0     		sub	sp, sp, #12
 2377              	.LCFI91:
 2378              		.cfi_def_cfa_offset 16
 2379 0d18 00AF     		add	r7, sp, #0
 2380              	.LCFI92:
 2381              		.cfi_def_cfa_register 7
 2382 0d1a 7860     		str	r0, [r7, #4]
 2383 0d1c 3960     		str	r1, [r7, #0]
1323:../src/stm32f30x_tim.c ****   /* Check the parameters */
1324:../src/stm32f30x_tim.c ****   assert_param(IS_TIM_LIST3_PERIPH(TIMx));
1325:../src/stm32f30x_tim.c **** 
1326:../src/stm32f30x_tim.c ****   /* Set the Capture Compare4 Register value */
1327:../src/stm32f30x_tim.c ****   TIMx->CCR4 = Compare4;
 2384              		.loc 1 1327 0
 2385 0d1e 7B68     		ldr	r3, [r7, #4]
 2386 0d20 3A68     		ldr	r2, [r7, #0]
 2387 0d22 1A64     		str	r2, [r3, #64]
1328:../src/stm32f30x_tim.c **** }
 2388              		.loc 1 1328 0
 2389 0d24 07F10C07 		add	r7, r7, #12
 2390 0d28 BD46     		mov	sp, r7
 2391 0d2a 80BC     		pop	{r7}
 2392 0d2c 7047     		bx	lr
 2393              		.cfi_endproc
 2394              	.LFE141:
 2396 0d2e 00BF     		.align	2
 2397              		.global	TIM_SetCompare5
 2398              		.thumb
 2399              		.thumb_func
 2401              	TIM_SetCompare5:
 2402              	.LFB142:
1329:../src/stm32f30x_tim.c **** 
1330:../src/stm32f30x_tim.c **** /**
1331:../src/stm32f30x_tim.c ****   * @brief  Sets the TIMx Capture Compare5 Register value
1332:../src/stm32f30x_tim.c ****   * @param  TIMx: where x can be 1 or 8 to select the TIM peripheral.
1333:../src/stm32f30x_tim.c ****   * @param  Compare5: specifies the Capture Compare5 register new value.
1334:../src/stm32f30x_tim.c ****   * @retval None
1335:../src/stm32f30x_tim.c ****   */
1336:../src/stm32f30x_tim.c **** void TIM_SetCompare5(TIM_TypeDef* TIMx, uint32_t Compare5)
1337:../src/stm32f30x_tim.c **** {
 2403              		.loc 1 1337 0
 2404              		.cfi_startproc
 2405              		@ args = 0, pretend = 0, frame = 8
 2406              		@ frame_needed = 1, uses_anonymous_args = 0
 2407              		@ link register save eliminated.
 2408 0d30 80B4     		push	{r7}
 2409              	.LCFI93:
 2410              		.cfi_def_cfa_offset 4
 2411              		.cfi_offset 7, -4
 2412 0d32 83B0     		sub	sp, sp, #12
 2413              	.LCFI94:
 2414              		.cfi_def_cfa_offset 16
 2415 0d34 00AF     		add	r7, sp, #0
 2416              	.LCFI95:
 2417              		.cfi_def_cfa_register 7
 2418 0d36 7860     		str	r0, [r7, #4]
 2419 0d38 3960     		str	r1, [r7, #0]
1338:../src/stm32f30x_tim.c ****   /* Check the parameters */
1339:../src/stm32f30x_tim.c ****   assert_param(IS_TIM_LIST4_PERIPH(TIMx));
1340:../src/stm32f30x_tim.c **** 
1341:../src/stm32f30x_tim.c ****   /* Set the Capture Compare5 Register value */
1342:../src/stm32f30x_tim.c ****   TIMx->CCR5 = Compare5;
 2420              		.loc 1 1342 0
 2421 0d3a 7B68     		ldr	r3, [r7, #4]
 2422 0d3c 3A68     		ldr	r2, [r7, #0]
 2423 0d3e 9A65     		str	r2, [r3, #88]
1343:../src/stm32f30x_tim.c **** }
 2424              		.loc 1 1343 0
 2425 0d40 07F10C07 		add	r7, r7, #12
 2426 0d44 BD46     		mov	sp, r7
 2427 0d46 80BC     		pop	{r7}
 2428 0d48 7047     		bx	lr
 2429              		.cfi_endproc
 2430              	.LFE142:
 2432 0d4a 00BF     		.align	2
 2433              		.global	TIM_SetCompare6
 2434              		.thumb
 2435              		.thumb_func
 2437              	TIM_SetCompare6:
 2438              	.LFB143:
1344:../src/stm32f30x_tim.c **** 
1345:../src/stm32f30x_tim.c **** /**
1346:../src/stm32f30x_tim.c ****   * @brief  Sets the TIMx Capture Compare6 Register value
1347:../src/stm32f30x_tim.c ****   * @param  TIMx: where x can be 1 or 8 to select the TIM peripheral.
1348:../src/stm32f30x_tim.c ****   * @param  Compare6: specifies the Capture Compare5 register new value.
1349:../src/stm32f30x_tim.c ****   * @retval None
1350:../src/stm32f30x_tim.c ****   */
1351:../src/stm32f30x_tim.c **** void TIM_SetCompare6(TIM_TypeDef* TIMx, uint32_t Compare6)
1352:../src/stm32f30x_tim.c **** {
 2439              		.loc 1 1352 0
 2440              		.cfi_startproc
 2441              		@ args = 0, pretend = 0, frame = 8
 2442              		@ frame_needed = 1, uses_anonymous_args = 0
 2443              		@ link register save eliminated.
 2444 0d4c 80B4     		push	{r7}
 2445              	.LCFI96:
 2446              		.cfi_def_cfa_offset 4
 2447              		.cfi_offset 7, -4
 2448 0d4e 83B0     		sub	sp, sp, #12
 2449              	.LCFI97:
 2450              		.cfi_def_cfa_offset 16
 2451 0d50 00AF     		add	r7, sp, #0
 2452              	.LCFI98:
 2453              		.cfi_def_cfa_register 7
 2454 0d52 7860     		str	r0, [r7, #4]
 2455 0d54 3960     		str	r1, [r7, #0]
1353:../src/stm32f30x_tim.c ****   /* Check the parameters */
1354:../src/stm32f30x_tim.c ****   assert_param(IS_TIM_LIST4_PERIPH(TIMx));
1355:../src/stm32f30x_tim.c **** 
1356:../src/stm32f30x_tim.c ****   /* Set the Capture Compare6 Register value */
1357:../src/stm32f30x_tim.c ****   TIMx->CCR6 = Compare6;
 2456              		.loc 1 1357 0
 2457 0d56 7B68     		ldr	r3, [r7, #4]
 2458 0d58 3A68     		ldr	r2, [r7, #0]
 2459 0d5a DA65     		str	r2, [r3, #92]
1358:../src/stm32f30x_tim.c **** }
 2460              		.loc 1 1358 0
 2461 0d5c 07F10C07 		add	r7, r7, #12
 2462 0d60 BD46     		mov	sp, r7
 2463 0d62 80BC     		pop	{r7}
 2464 0d64 7047     		bx	lr
 2465              		.cfi_endproc
 2466              	.LFE143:
 2468 0d66 00BF     		.align	2
 2469              		.global	TIM_ForcedOC1Config
 2470              		.thumb
 2471              		.thumb_func
 2473              	TIM_ForcedOC1Config:
 2474              	.LFB144:
1359:../src/stm32f30x_tim.c **** 
1360:../src/stm32f30x_tim.c **** /**
1361:../src/stm32f30x_tim.c ****   * @brief  Forces the TIMx output 1 waveform to active or inactive level.
1362:../src/stm32f30x_tim.c ****   * @param  TIMx: where x can be 1, 2, 3, 4, 8, 15, 16 or 17 to select the TIM peripheral.
1363:../src/stm32f30x_tim.c ****   * @param  TIM_ForcedAction: specifies the forced Action to be set to the output waveform.
1364:../src/stm32f30x_tim.c ****   *          This parameter can be one of the following values:
1365:../src/stm32f30x_tim.c ****   *            @arg TIM_ForcedAction_Active: Force active level on OC1REF
1366:../src/stm32f30x_tim.c ****   *            @arg TIM_ForcedAction_InActive: Force inactive level on OC1REF.
1367:../src/stm32f30x_tim.c ****   * @retval None
1368:../src/stm32f30x_tim.c ****   */
1369:../src/stm32f30x_tim.c **** void TIM_ForcedOC1Config(TIM_TypeDef* TIMx, uint16_t TIM_ForcedAction)
1370:../src/stm32f30x_tim.c **** {
 2475              		.loc 1 1370 0
 2476              		.cfi_startproc
 2477              		@ args = 0, pretend = 0, frame = 16
 2478              		@ frame_needed = 1, uses_anonymous_args = 0
 2479              		@ link register save eliminated.
 2480 0d68 80B4     		push	{r7}
 2481              	.LCFI99:
 2482              		.cfi_def_cfa_offset 4
 2483              		.cfi_offset 7, -4
 2484 0d6a 85B0     		sub	sp, sp, #20
 2485              	.LCFI100:
 2486              		.cfi_def_cfa_offset 24
 2487 0d6c 00AF     		add	r7, sp, #0
 2488              	.LCFI101:
 2489              		.cfi_def_cfa_register 7
 2490 0d6e 7860     		str	r0, [r7, #4]
 2491 0d70 0B46     		mov	r3, r1
 2492 0d72 7B80     		strh	r3, [r7, #2]	@ movhi
1371:../src/stm32f30x_tim.c ****   uint32_t tmpccmr1 = 0;
 2493              		.loc 1 1371 0
 2494 0d74 4FF00003 		mov	r3, #0
 2495 0d78 FB60     		str	r3, [r7, #12]
1372:../src/stm32f30x_tim.c **** 
1373:../src/stm32f30x_tim.c ****   /* Check the parameters */
1374:../src/stm32f30x_tim.c ****   assert_param(IS_TIM_LIST1_PERIPH(TIMx));
1375:../src/stm32f30x_tim.c ****   assert_param(IS_TIM_FORCED_ACTION(TIM_ForcedAction));
1376:../src/stm32f30x_tim.c ****   tmpccmr1 = TIMx->CCMR1;
 2496              		.loc 1 1376 0
 2497 0d7a 7B68     		ldr	r3, [r7, #4]
 2498 0d7c 9B69     		ldr	r3, [r3, #24]
 2499 0d7e FB60     		str	r3, [r7, #12]
1377:../src/stm32f30x_tim.c **** 
1378:../src/stm32f30x_tim.c ****   /* Reset the OC1M Bits */
1379:../src/stm32f30x_tim.c ****   tmpccmr1 &= (uint32_t)~TIM_CCMR1_OC1M;
 2500              		.loc 1 1379 0
 2501 0d80 FB68     		ldr	r3, [r7, #12]
 2502 0d82 23F48033 		bic	r3, r3, #65536
 2503 0d86 23F07003 		bic	r3, r3, #112
 2504 0d8a FB60     		str	r3, [r7, #12]
1380:../src/stm32f30x_tim.c **** 
1381:../src/stm32f30x_tim.c ****   /* Configure The Forced output Mode */
1382:../src/stm32f30x_tim.c ****   tmpccmr1 |= TIM_ForcedAction;
 2505              		.loc 1 1382 0
 2506 0d8c 7B88     		ldrh	r3, [r7, #2]
 2507 0d8e FA68     		ldr	r2, [r7, #12]
 2508 0d90 1343     		orrs	r3, r3, r2
 2509 0d92 FB60     		str	r3, [r7, #12]
1383:../src/stm32f30x_tim.c **** 
1384:../src/stm32f30x_tim.c ****   /* Write to TIMx CCMR1 register */
1385:../src/stm32f30x_tim.c ****   TIMx->CCMR1 = tmpccmr1;
 2510              		.loc 1 1385 0
 2511 0d94 7B68     		ldr	r3, [r7, #4]
 2512 0d96 FA68     		ldr	r2, [r7, #12]
 2513 0d98 9A61     		str	r2, [r3, #24]
1386:../src/stm32f30x_tim.c **** }
 2514              		.loc 1 1386 0
 2515 0d9a 07F11407 		add	r7, r7, #20
 2516 0d9e BD46     		mov	sp, r7
 2517 0da0 80BC     		pop	{r7}
 2518 0da2 7047     		bx	lr
 2519              		.cfi_endproc
 2520              	.LFE144:
 2522              		.align	2
 2523              		.global	TIM_ForcedOC2Config
 2524              		.thumb
 2525              		.thumb_func
 2527              	TIM_ForcedOC2Config:
 2528              	.LFB145:
1387:../src/stm32f30x_tim.c **** 
1388:../src/stm32f30x_tim.c **** /**
1389:../src/stm32f30x_tim.c ****   * @brief  Forces the TIMx output 2 waveform to active or inactive level.
1390:../src/stm32f30x_tim.c ****   * @param  TIMx: where x can be   1, 2, 3, 4, 8 or 15 to select the TIM 
1391:../src/stm32f30x_tim.c ****   *         peripheral.
1392:../src/stm32f30x_tim.c ****   * @param  TIM_ForcedAction: specifies the forced Action to be set to the output waveform.
1393:../src/stm32f30x_tim.c ****   *          This parameter can be one of the following values:
1394:../src/stm32f30x_tim.c ****   *            @arg TIM_ForcedAction_Active: Force active level on OC2REF
1395:../src/stm32f30x_tim.c ****   *            @arg TIM_ForcedAction_InActive: Force inactive level on OC2REF.
1396:../src/stm32f30x_tim.c ****   * @retval None
1397:../src/stm32f30x_tim.c ****   */
1398:../src/stm32f30x_tim.c **** void TIM_ForcedOC2Config(TIM_TypeDef* TIMx, uint16_t TIM_ForcedAction)
1399:../src/stm32f30x_tim.c **** {
 2529              		.loc 1 1399 0
 2530              		.cfi_startproc
 2531              		@ args = 0, pretend = 0, frame = 16
 2532              		@ frame_needed = 1, uses_anonymous_args = 0
 2533              		@ link register save eliminated.
 2534 0da4 80B4     		push	{r7}
 2535              	.LCFI102:
 2536              		.cfi_def_cfa_offset 4
 2537              		.cfi_offset 7, -4
 2538 0da6 85B0     		sub	sp, sp, #20
 2539              	.LCFI103:
 2540              		.cfi_def_cfa_offset 24
 2541 0da8 00AF     		add	r7, sp, #0
 2542              	.LCFI104:
 2543              		.cfi_def_cfa_register 7
 2544 0daa 7860     		str	r0, [r7, #4]
 2545 0dac 0B46     		mov	r3, r1
 2546 0dae 7B80     		strh	r3, [r7, #2]	@ movhi
1400:../src/stm32f30x_tim.c ****   uint32_t tmpccmr1 = 0;
 2547              		.loc 1 1400 0
 2548 0db0 4FF00003 		mov	r3, #0
 2549 0db4 FB60     		str	r3, [r7, #12]
1401:../src/stm32f30x_tim.c **** 
1402:../src/stm32f30x_tim.c ****   /* Check the parameters */
1403:../src/stm32f30x_tim.c ****   assert_param(IS_TIM_LIST2_PERIPH(TIMx));
1404:../src/stm32f30x_tim.c ****   assert_param(IS_TIM_FORCED_ACTION(TIM_ForcedAction));
1405:../src/stm32f30x_tim.c ****   tmpccmr1 = TIMx->CCMR1;
 2550              		.loc 1 1405 0
 2551 0db6 7B68     		ldr	r3, [r7, #4]
 2552 0db8 9B69     		ldr	r3, [r3, #24]
 2553 0dba FB60     		str	r3, [r7, #12]
1406:../src/stm32f30x_tim.c **** 
1407:../src/stm32f30x_tim.c ****   /* Reset the OC2M Bits */
1408:../src/stm32f30x_tim.c ****   tmpccmr1 &= (uint32_t)~TIM_CCMR1_OC2M;
 2554              		.loc 1 1408 0
 2555 0dbc FB68     		ldr	r3, [r7, #12]
 2556 0dbe 23F08073 		bic	r3, r3, #16777216
 2557 0dc2 23F4E043 		bic	r3, r3, #28672
 2558 0dc6 FB60     		str	r3, [r7, #12]
1409:../src/stm32f30x_tim.c **** 
1410:../src/stm32f30x_tim.c ****   /* Configure The Forced output Mode */
1411:../src/stm32f30x_tim.c ****   tmpccmr1 |= ((uint32_t)TIM_ForcedAction << 8);
 2559              		.loc 1 1411 0
 2560 0dc8 7B88     		ldrh	r3, [r7, #2]
 2561 0dca 4FEA0323 		lsl	r3, r3, #8
 2562 0dce FA68     		ldr	r2, [r7, #12]
 2563 0dd0 1343     		orrs	r3, r3, r2
 2564 0dd2 FB60     		str	r3, [r7, #12]
1412:../src/stm32f30x_tim.c **** 
1413:../src/stm32f30x_tim.c ****   /* Write to TIMx CCMR1 register */
1414:../src/stm32f30x_tim.c ****   TIMx->CCMR1 = tmpccmr1;
 2565              		.loc 1 1414 0
 2566 0dd4 7B68     		ldr	r3, [r7, #4]
 2567 0dd6 FA68     		ldr	r2, [r7, #12]
 2568 0dd8 9A61     		str	r2, [r3, #24]
1415:../src/stm32f30x_tim.c **** }
 2569              		.loc 1 1415 0
 2570 0dda 07F11407 		add	r7, r7, #20
 2571 0dde BD46     		mov	sp, r7
 2572 0de0 80BC     		pop	{r7}
 2573 0de2 7047     		bx	lr
 2574              		.cfi_endproc
 2575              	.LFE145:
 2577              		.align	2
 2578              		.global	TIM_ForcedOC3Config
 2579              		.thumb
 2580              		.thumb_func
 2582              	TIM_ForcedOC3Config:
 2583              	.LFB146:
1416:../src/stm32f30x_tim.c **** 
1417:../src/stm32f30x_tim.c **** /**
1418:../src/stm32f30x_tim.c ****   * @brief  Forces the TIMx output 3 waveform to active or inactive level.
1419:../src/stm32f30x_tim.c ****   * @param  TIMx: where x can be  1, 2, 3, 4 or 8 to select the TIM peripheral.
1420:../src/stm32f30x_tim.c ****   * @param  TIM_ForcedAction: specifies the forced Action to be set to the output waveform.
1421:../src/stm32f30x_tim.c ****   *          This parameter can be one of the following values:
1422:../src/stm32f30x_tim.c ****   *            @arg TIM_ForcedAction_Active: Force active level on OC3REF
1423:../src/stm32f30x_tim.c ****   *            @arg TIM_ForcedAction_InActive: Force inactive level on OC3REF.
1424:../src/stm32f30x_tim.c ****   * @retval None
1425:../src/stm32f30x_tim.c ****   */
1426:../src/stm32f30x_tim.c **** void TIM_ForcedOC3Config(TIM_TypeDef* TIMx, uint16_t TIM_ForcedAction)
1427:../src/stm32f30x_tim.c **** {
 2584              		.loc 1 1427 0
 2585              		.cfi_startproc
 2586              		@ args = 0, pretend = 0, frame = 16
 2587              		@ frame_needed = 1, uses_anonymous_args = 0
 2588              		@ link register save eliminated.
 2589 0de4 80B4     		push	{r7}
 2590              	.LCFI105:
 2591              		.cfi_def_cfa_offset 4
 2592              		.cfi_offset 7, -4
 2593 0de6 85B0     		sub	sp, sp, #20
 2594              	.LCFI106:
 2595              		.cfi_def_cfa_offset 24
 2596 0de8 00AF     		add	r7, sp, #0
 2597              	.LCFI107:
 2598              		.cfi_def_cfa_register 7
 2599 0dea 7860     		str	r0, [r7, #4]
 2600 0dec 0B46     		mov	r3, r1
 2601 0dee 7B80     		strh	r3, [r7, #2]	@ movhi
1428:../src/stm32f30x_tim.c ****   uint32_t tmpccmr2 = 0;
 2602              		.loc 1 1428 0
 2603 0df0 4FF00003 		mov	r3, #0
 2604 0df4 FB60     		str	r3, [r7, #12]
1429:../src/stm32f30x_tim.c **** 
1430:../src/stm32f30x_tim.c ****   /* Check the parameters */
1431:../src/stm32f30x_tim.c ****   assert_param(IS_TIM_LIST3_PERIPH(TIMx));
1432:../src/stm32f30x_tim.c ****   assert_param(IS_TIM_FORCED_ACTION(TIM_ForcedAction));
1433:../src/stm32f30x_tim.c **** 
1434:../src/stm32f30x_tim.c ****   tmpccmr2 = TIMx->CCMR2;
 2605              		.loc 1 1434 0
 2606 0df6 7B68     		ldr	r3, [r7, #4]
 2607 0df8 DB69     		ldr	r3, [r3, #28]
 2608 0dfa FB60     		str	r3, [r7, #12]
1435:../src/stm32f30x_tim.c **** 
1436:../src/stm32f30x_tim.c ****   /* Reset the OC1M Bits */
1437:../src/stm32f30x_tim.c ****   tmpccmr2 &= (uint32_t)~TIM_CCMR2_OC3M;
 2609              		.loc 1 1437 0
 2610 0dfc FB68     		ldr	r3, [r7, #12]
 2611 0dfe 23F07003 		bic	r3, r3, #112
 2612 0e02 FB60     		str	r3, [r7, #12]
1438:../src/stm32f30x_tim.c **** 
1439:../src/stm32f30x_tim.c ****   /* Configure The Forced output Mode */
1440:../src/stm32f30x_tim.c ****   tmpccmr2 |= TIM_ForcedAction;
 2613              		.loc 1 1440 0
 2614 0e04 7B88     		ldrh	r3, [r7, #2]
 2615 0e06 FA68     		ldr	r2, [r7, #12]
 2616 0e08 1343     		orrs	r3, r3, r2
 2617 0e0a FB60     		str	r3, [r7, #12]
1441:../src/stm32f30x_tim.c **** 
1442:../src/stm32f30x_tim.c ****   /* Write to TIMx CCMR2 register */
1443:../src/stm32f30x_tim.c ****   TIMx->CCMR2 = tmpccmr2;
 2618              		.loc 1 1443 0
 2619 0e0c 7B68     		ldr	r3, [r7, #4]
 2620 0e0e FA68     		ldr	r2, [r7, #12]
 2621 0e10 DA61     		str	r2, [r3, #28]
1444:../src/stm32f30x_tim.c **** }
 2622              		.loc 1 1444 0
 2623 0e12 07F11407 		add	r7, r7, #20
 2624 0e16 BD46     		mov	sp, r7
 2625 0e18 80BC     		pop	{r7}
 2626 0e1a 7047     		bx	lr
 2627              		.cfi_endproc
 2628              	.LFE146:
 2630              		.align	2
 2631              		.global	TIM_ForcedOC4Config
 2632              		.thumb
 2633              		.thumb_func
 2635              	TIM_ForcedOC4Config:
 2636              	.LFB147:
1445:../src/stm32f30x_tim.c **** 
1446:../src/stm32f30x_tim.c **** /**
1447:../src/stm32f30x_tim.c ****   * @brief  Forces the TIMx output 4 waveform to active or inactive level.
1448:../src/stm32f30x_tim.c ****   * @param  TIMx: where x can be  1, 2, 3, 4 or 8 to select the TIM peripheral.
1449:../src/stm32f30x_tim.c ****   * @param  TIM_ForcedAction: specifies the forced Action to be set to the output waveform.
1450:../src/stm32f30x_tim.c ****   *          This parameter can be one of the following values:
1451:../src/stm32f30x_tim.c ****   *            @arg TIM_ForcedAction_Active: Force active level on OC4REF
1452:../src/stm32f30x_tim.c ****   *            @arg TIM_ForcedAction_InActive: Force inactive level on OC4REF.
1453:../src/stm32f30x_tim.c ****   * @retval None
1454:../src/stm32f30x_tim.c ****   */
1455:../src/stm32f30x_tim.c **** void TIM_ForcedOC4Config(TIM_TypeDef* TIMx, uint16_t TIM_ForcedAction)
1456:../src/stm32f30x_tim.c **** {
 2637              		.loc 1 1456 0
 2638              		.cfi_startproc
 2639              		@ args = 0, pretend = 0, frame = 16
 2640              		@ frame_needed = 1, uses_anonymous_args = 0
 2641              		@ link register save eliminated.
 2642 0e1c 80B4     		push	{r7}
 2643              	.LCFI108:
 2644              		.cfi_def_cfa_offset 4
 2645              		.cfi_offset 7, -4
 2646 0e1e 85B0     		sub	sp, sp, #20
 2647              	.LCFI109:
 2648              		.cfi_def_cfa_offset 24
 2649 0e20 00AF     		add	r7, sp, #0
 2650              	.LCFI110:
 2651              		.cfi_def_cfa_register 7
 2652 0e22 7860     		str	r0, [r7, #4]
 2653 0e24 0B46     		mov	r3, r1
 2654 0e26 7B80     		strh	r3, [r7, #2]	@ movhi
1457:../src/stm32f30x_tim.c ****   uint32_t tmpccmr2 = 0;
 2655              		.loc 1 1457 0
 2656 0e28 4FF00003 		mov	r3, #0
 2657 0e2c FB60     		str	r3, [r7, #12]
1458:../src/stm32f30x_tim.c **** 
1459:../src/stm32f30x_tim.c ****   /* Check the parameters */
1460:../src/stm32f30x_tim.c ****   assert_param(IS_TIM_LIST3_PERIPH(TIMx));
1461:../src/stm32f30x_tim.c ****   assert_param(IS_TIM_FORCED_ACTION(TIM_ForcedAction));
1462:../src/stm32f30x_tim.c ****   tmpccmr2 = TIMx->CCMR2;
 2658              		.loc 1 1462 0
 2659 0e2e 7B68     		ldr	r3, [r7, #4]
 2660 0e30 DB69     		ldr	r3, [r3, #28]
 2661 0e32 FB60     		str	r3, [r7, #12]
1463:../src/stm32f30x_tim.c **** 
1464:../src/stm32f30x_tim.c ****   /* Reset the OC2M Bits */
1465:../src/stm32f30x_tim.c ****   tmpccmr2 &= (uint32_t)~TIM_CCMR2_OC4M;
 2662              		.loc 1 1465 0
 2663 0e34 FB68     		ldr	r3, [r7, #12]
 2664 0e36 23F4E043 		bic	r3, r3, #28672
 2665 0e3a FB60     		str	r3, [r7, #12]
1466:../src/stm32f30x_tim.c **** 
1467:../src/stm32f30x_tim.c ****   /* Configure The Forced output Mode */
1468:../src/stm32f30x_tim.c ****   tmpccmr2 |= ((uint32_t)TIM_ForcedAction << 8);
 2666              		.loc 1 1468 0
 2667 0e3c 7B88     		ldrh	r3, [r7, #2]
 2668 0e3e 4FEA0323 		lsl	r3, r3, #8
 2669 0e42 FA68     		ldr	r2, [r7, #12]
 2670 0e44 1343     		orrs	r3, r3, r2
 2671 0e46 FB60     		str	r3, [r7, #12]
1469:../src/stm32f30x_tim.c **** 
1470:../src/stm32f30x_tim.c ****   /* Write to TIMx CCMR2 register */
1471:../src/stm32f30x_tim.c ****   TIMx->CCMR2 = tmpccmr2;
 2672              		.loc 1 1471 0
 2673 0e48 7B68     		ldr	r3, [r7, #4]
 2674 0e4a FA68     		ldr	r2, [r7, #12]
 2675 0e4c DA61     		str	r2, [r3, #28]
1472:../src/stm32f30x_tim.c **** }
 2676              		.loc 1 1472 0
 2677 0e4e 07F11407 		add	r7, r7, #20
 2678 0e52 BD46     		mov	sp, r7
 2679 0e54 80BC     		pop	{r7}
 2680 0e56 7047     		bx	lr
 2681              		.cfi_endproc
 2682              	.LFE147:
 2684              		.align	2
 2685              		.global	TIM_ForcedOC5Config
 2686              		.thumb
 2687              		.thumb_func
 2689              	TIM_ForcedOC5Config:
 2690              	.LFB148:
1473:../src/stm32f30x_tim.c **** 
1474:../src/stm32f30x_tim.c **** /**
1475:../src/stm32f30x_tim.c ****   * @brief  Forces the TIMx output 5 waveform to active or inactive level.
1476:../src/stm32f30x_tim.c ****   * @param  TIMx: where x can be  1 or 8 to select the TIM peripheral.
1477:../src/stm32f30x_tim.c ****   * @param  TIM_ForcedAction: specifies the forced Action to be set to the output waveform.
1478:../src/stm32f30x_tim.c ****   *          This parameter can be one of the following values:
1479:../src/stm32f30x_tim.c ****   *            @arg TIM_ForcedAction_Active: Force active level on OC5REF
1480:../src/stm32f30x_tim.c ****   *            @arg TIM_ForcedAction_InActive: Force inactive level on OC5REF.
1481:../src/stm32f30x_tim.c ****   * @retval None
1482:../src/stm32f30x_tim.c ****   */
1483:../src/stm32f30x_tim.c **** void TIM_ForcedOC5Config(TIM_TypeDef* TIMx, uint16_t TIM_ForcedAction)
1484:../src/stm32f30x_tim.c **** {
 2691              		.loc 1 1484 0
 2692              		.cfi_startproc
 2693              		@ args = 0, pretend = 0, frame = 16
 2694              		@ frame_needed = 1, uses_anonymous_args = 0
 2695              		@ link register save eliminated.
 2696 0e58 80B4     		push	{r7}
 2697              	.LCFI111:
 2698              		.cfi_def_cfa_offset 4
 2699              		.cfi_offset 7, -4
 2700 0e5a 85B0     		sub	sp, sp, #20
 2701              	.LCFI112:
 2702              		.cfi_def_cfa_offset 24
 2703 0e5c 00AF     		add	r7, sp, #0
 2704              	.LCFI113:
 2705              		.cfi_def_cfa_register 7
 2706 0e5e 7860     		str	r0, [r7, #4]
 2707 0e60 0B46     		mov	r3, r1
 2708 0e62 7B80     		strh	r3, [r7, #2]	@ movhi
1485:../src/stm32f30x_tim.c ****   uint32_t tmpccmr3 = 0;
 2709              		.loc 1 1485 0
 2710 0e64 4FF00003 		mov	r3, #0
 2711 0e68 FB60     		str	r3, [r7, #12]
1486:../src/stm32f30x_tim.c **** 
1487:../src/stm32f30x_tim.c ****   /* Check the parameters */
1488:../src/stm32f30x_tim.c ****   assert_param(IS_TIM_LIST4_PERIPH(TIMx));
1489:../src/stm32f30x_tim.c ****   assert_param(IS_TIM_FORCED_ACTION(TIM_ForcedAction));
1490:../src/stm32f30x_tim.c ****   tmpccmr3 = TIMx->CCMR3;
 2712              		.loc 1 1490 0
 2713 0e6a 7B68     		ldr	r3, [r7, #4]
 2714 0e6c 5B6D     		ldr	r3, [r3, #84]
 2715 0e6e FB60     		str	r3, [r7, #12]
1491:../src/stm32f30x_tim.c **** 
1492:../src/stm32f30x_tim.c ****   /* Reset the OC5M Bits */
1493:../src/stm32f30x_tim.c ****   tmpccmr3 &= (uint32_t)~TIM_CCMR3_OC5M;
 2716              		.loc 1 1493 0
 2717 0e70 FB68     		ldr	r3, [r7, #12]
 2718 0e72 23F07003 		bic	r3, r3, #112
 2719 0e76 FB60     		str	r3, [r7, #12]
1494:../src/stm32f30x_tim.c **** 
1495:../src/stm32f30x_tim.c ****   /* Configure The Forced output Mode */
1496:../src/stm32f30x_tim.c ****   tmpccmr3 |= (uint32_t)(TIM_ForcedAction);
 2720              		.loc 1 1496 0
 2721 0e78 7B88     		ldrh	r3, [r7, #2]
 2722 0e7a FA68     		ldr	r2, [r7, #12]
 2723 0e7c 1343     		orrs	r3, r3, r2
 2724 0e7e FB60     		str	r3, [r7, #12]
1497:../src/stm32f30x_tim.c **** 
1498:../src/stm32f30x_tim.c ****   /* Write to TIMx CCMR3 register */
1499:../src/stm32f30x_tim.c ****   TIMx->CCMR3 = tmpccmr3;
 2725              		.loc 1 1499 0
 2726 0e80 7B68     		ldr	r3, [r7, #4]
 2727 0e82 FA68     		ldr	r2, [r7, #12]
 2728 0e84 5A65     		str	r2, [r3, #84]
1500:../src/stm32f30x_tim.c **** }
 2729              		.loc 1 1500 0
 2730 0e86 07F11407 		add	r7, r7, #20
 2731 0e8a BD46     		mov	sp, r7
 2732 0e8c 80BC     		pop	{r7}
 2733 0e8e 7047     		bx	lr
 2734              		.cfi_endproc
 2735              	.LFE148:
 2737              		.align	2
 2738              		.global	TIM_ForcedOC6Config
 2739              		.thumb
 2740              		.thumb_func
 2742              	TIM_ForcedOC6Config:
 2743              	.LFB149:
1501:../src/stm32f30x_tim.c **** 
1502:../src/stm32f30x_tim.c **** /**
1503:../src/stm32f30x_tim.c ****   * @brief  Forces the TIMx output 6 waveform to active or inactive level.
1504:../src/stm32f30x_tim.c ****   * @param  TIMx: where x can be 1 or 8 to select the TIM peripheral.
1505:../src/stm32f30x_tim.c ****   * @param  TIM_ForcedAction: specifies the forced Action to be set to the output waveform.
1506:../src/stm32f30x_tim.c ****   *          This parameter can be one of the following values:
1507:../src/stm32f30x_tim.c ****   *            @arg TIM_ForcedAction_Active: Force active level on OC5REF
1508:../src/stm32f30x_tim.c ****   *            @arg TIM_ForcedAction_InActive: Force inactive level on OC5REF.
1509:../src/stm32f30x_tim.c ****   * @retval None
1510:../src/stm32f30x_tim.c ****   */
1511:../src/stm32f30x_tim.c **** void TIM_ForcedOC6Config(TIM_TypeDef* TIMx, uint16_t TIM_ForcedAction)
1512:../src/stm32f30x_tim.c **** {
 2744              		.loc 1 1512 0
 2745              		.cfi_startproc
 2746              		@ args = 0, pretend = 0, frame = 16
 2747              		@ frame_needed = 1, uses_anonymous_args = 0
 2748              		@ link register save eliminated.
 2749 0e90 80B4     		push	{r7}
 2750              	.LCFI114:
 2751              		.cfi_def_cfa_offset 4
 2752              		.cfi_offset 7, -4
 2753 0e92 85B0     		sub	sp, sp, #20
 2754              	.LCFI115:
 2755              		.cfi_def_cfa_offset 24
 2756 0e94 00AF     		add	r7, sp, #0
 2757              	.LCFI116:
 2758              		.cfi_def_cfa_register 7
 2759 0e96 7860     		str	r0, [r7, #4]
 2760 0e98 0B46     		mov	r3, r1
 2761 0e9a 7B80     		strh	r3, [r7, #2]	@ movhi
1513:../src/stm32f30x_tim.c ****   uint32_t tmpccmr3 = 0;
 2762              		.loc 1 1513 0
 2763 0e9c 4FF00003 		mov	r3, #0
 2764 0ea0 FB60     		str	r3, [r7, #12]
1514:../src/stm32f30x_tim.c **** 
1515:../src/stm32f30x_tim.c ****   /* Check the parameters */
1516:../src/stm32f30x_tim.c ****   assert_param(IS_TIM_LIST4_PERIPH(TIMx));
1517:../src/stm32f30x_tim.c ****   assert_param(IS_TIM_FORCED_ACTION(TIM_ForcedAction));
1518:../src/stm32f30x_tim.c ****   tmpccmr3 = TIMx->CCMR3;
 2765              		.loc 1 1518 0
 2766 0ea2 7B68     		ldr	r3, [r7, #4]
 2767 0ea4 5B6D     		ldr	r3, [r3, #84]
 2768 0ea6 FB60     		str	r3, [r7, #12]
1519:../src/stm32f30x_tim.c **** 
1520:../src/stm32f30x_tim.c ****   /* Reset the OC6M Bits */
1521:../src/stm32f30x_tim.c ****   tmpccmr3 &= (uint32_t)~TIM_CCMR3_OC6M;
 2769              		.loc 1 1521 0
 2770 0ea8 FB68     		ldr	r3, [r7, #12]
 2771 0eaa 23F4E043 		bic	r3, r3, #28672
 2772 0eae FB60     		str	r3, [r7, #12]
1522:../src/stm32f30x_tim.c **** 
1523:../src/stm32f30x_tim.c ****   /* Configure The Forced output Mode */
1524:../src/stm32f30x_tim.c ****   tmpccmr3 |= ((uint32_t)TIM_ForcedAction << 8);
 2773              		.loc 1 1524 0
 2774 0eb0 7B88     		ldrh	r3, [r7, #2]
 2775 0eb2 4FEA0323 		lsl	r3, r3, #8
 2776 0eb6 FA68     		ldr	r2, [r7, #12]
 2777 0eb8 1343     		orrs	r3, r3, r2
 2778 0eba FB60     		str	r3, [r7, #12]
1525:../src/stm32f30x_tim.c **** 
1526:../src/stm32f30x_tim.c ****   /* Write to TIMx CCMR3 register */
1527:../src/stm32f30x_tim.c ****   TIMx->CCMR3 = tmpccmr3;
 2779              		.loc 1 1527 0
 2780 0ebc 7B68     		ldr	r3, [r7, #4]
 2781 0ebe FA68     		ldr	r2, [r7, #12]
 2782 0ec0 5A65     		str	r2, [r3, #84]
1528:../src/stm32f30x_tim.c **** }
 2783              		.loc 1 1528 0
 2784 0ec2 07F11407 		add	r7, r7, #20
 2785 0ec6 BD46     		mov	sp, r7
 2786 0ec8 80BC     		pop	{r7}
 2787 0eca 7047     		bx	lr
 2788              		.cfi_endproc
 2789              	.LFE149:
 2791              		.align	2
 2792              		.global	TIM_OC1PreloadConfig
 2793              		.thumb
 2794              		.thumb_func
 2796              	TIM_OC1PreloadConfig:
 2797              	.LFB150:
1529:../src/stm32f30x_tim.c **** 
1530:../src/stm32f30x_tim.c **** /**
1531:../src/stm32f30x_tim.c ****   * @brief  Enables or disables the TIMx peripheral Preload register on CCR1.
1532:../src/stm32f30x_tim.c ****   * @param  TIMx: where x can be 1, 2, 3, 4, 8, 15, 16 or 17 to select the TIM peripheral.
1533:../src/stm32f30x_tim.c ****   * @param  TIM_OCPreload: new state of the TIMx peripheral Preload register
1534:../src/stm32f30x_tim.c ****   *          This parameter can be one of the following values:
1535:../src/stm32f30x_tim.c ****   *            @arg TIM_OCPreload_Enable
1536:../src/stm32f30x_tim.c ****   *            @arg TIM_OCPreload_Disable
1537:../src/stm32f30x_tim.c ****   * @retval None
1538:../src/stm32f30x_tim.c ****   */
1539:../src/stm32f30x_tim.c **** void TIM_OC1PreloadConfig(TIM_TypeDef* TIMx, uint16_t TIM_OCPreload)
1540:../src/stm32f30x_tim.c **** {
 2798              		.loc 1 1540 0
 2799              		.cfi_startproc
 2800              		@ args = 0, pretend = 0, frame = 16
 2801              		@ frame_needed = 1, uses_anonymous_args = 0
 2802              		@ link register save eliminated.
 2803 0ecc 80B4     		push	{r7}
 2804              	.LCFI117:
 2805              		.cfi_def_cfa_offset 4
 2806              		.cfi_offset 7, -4
 2807 0ece 85B0     		sub	sp, sp, #20
 2808              	.LCFI118:
 2809              		.cfi_def_cfa_offset 24
 2810 0ed0 00AF     		add	r7, sp, #0
 2811              	.LCFI119:
 2812              		.cfi_def_cfa_register 7
 2813 0ed2 7860     		str	r0, [r7, #4]
 2814 0ed4 0B46     		mov	r3, r1
 2815 0ed6 7B80     		strh	r3, [r7, #2]	@ movhi
1541:../src/stm32f30x_tim.c ****   uint32_t tmpccmr1 = 0;
 2816              		.loc 1 1541 0
 2817 0ed8 4FF00003 		mov	r3, #0
 2818 0edc FB60     		str	r3, [r7, #12]
1542:../src/stm32f30x_tim.c **** 
1543:../src/stm32f30x_tim.c ****   /* Check the parameters */
1544:../src/stm32f30x_tim.c ****   assert_param(IS_TIM_LIST1_PERIPH(TIMx));
1545:../src/stm32f30x_tim.c ****   assert_param(IS_TIM_OCPRELOAD_STATE(TIM_OCPreload));
1546:../src/stm32f30x_tim.c **** 
1547:../src/stm32f30x_tim.c ****   tmpccmr1 = TIMx->CCMR1;
 2819              		.loc 1 1547 0
 2820 0ede 7B68     		ldr	r3, [r7, #4]
 2821 0ee0 9B69     		ldr	r3, [r3, #24]
 2822 0ee2 FB60     		str	r3, [r7, #12]
1548:../src/stm32f30x_tim.c **** 
1549:../src/stm32f30x_tim.c ****   /* Reset the OC1PE Bit */
1550:../src/stm32f30x_tim.c ****   tmpccmr1 &= (uint32_t)(~TIM_CCMR1_OC1PE);
 2823              		.loc 1 1550 0
 2824 0ee4 FB68     		ldr	r3, [r7, #12]
 2825 0ee6 23F00803 		bic	r3, r3, #8
 2826 0eea FB60     		str	r3, [r7, #12]
1551:../src/stm32f30x_tim.c **** 
1552:../src/stm32f30x_tim.c ****   /* Enable or Disable the Output Compare Preload feature */
1553:../src/stm32f30x_tim.c ****   tmpccmr1 |= TIM_OCPreload;
 2827              		.loc 1 1553 0
 2828 0eec 7B88     		ldrh	r3, [r7, #2]
 2829 0eee FA68     		ldr	r2, [r7, #12]
 2830 0ef0 1343     		orrs	r3, r3, r2
 2831 0ef2 FB60     		str	r3, [r7, #12]
1554:../src/stm32f30x_tim.c **** 
1555:../src/stm32f30x_tim.c ****   /* Write to TIMx CCMR1 register */
1556:../src/stm32f30x_tim.c ****   TIMx->CCMR1 = tmpccmr1;
 2832              		.loc 1 1556 0
 2833 0ef4 7B68     		ldr	r3, [r7, #4]
 2834 0ef6 FA68     		ldr	r2, [r7, #12]
 2835 0ef8 9A61     		str	r2, [r3, #24]
1557:../src/stm32f30x_tim.c **** }
 2836              		.loc 1 1557 0
 2837 0efa 07F11407 		add	r7, r7, #20
 2838 0efe BD46     		mov	sp, r7
 2839 0f00 80BC     		pop	{r7}
 2840 0f02 7047     		bx	lr
 2841              		.cfi_endproc
 2842              	.LFE150:
 2844              		.align	2
 2845              		.global	TIM_OC2PreloadConfig
 2846              		.thumb
 2847              		.thumb_func
 2849              	TIM_OC2PreloadConfig:
 2850              	.LFB151:
1558:../src/stm32f30x_tim.c **** 
1559:../src/stm32f30x_tim.c **** /**
1560:../src/stm32f30x_tim.c ****   * @brief  Enables or disables the TIMx peripheral Preload register on CCR2.
1561:../src/stm32f30x_tim.c ****   * @param  TIMx: where x can be  1, 2, 3, 4, 8 or 15 to select the TIM 
1562:../src/stm32f30x_tim.c ****   *         peripheral.
1563:../src/stm32f30x_tim.c ****   * @param  TIM_OCPreload: new state of the TIMx peripheral Preload register
1564:../src/stm32f30x_tim.c ****   *          This parameter can be one of the following values:
1565:../src/stm32f30x_tim.c ****   *            @arg TIM_OCPreload_Enable
1566:../src/stm32f30x_tim.c ****   *            @arg TIM_OCPreload_Disable
1567:../src/stm32f30x_tim.c ****   * @retval None
1568:../src/stm32f30x_tim.c ****   */
1569:../src/stm32f30x_tim.c **** void TIM_OC2PreloadConfig(TIM_TypeDef* TIMx, uint16_t TIM_OCPreload)
1570:../src/stm32f30x_tim.c **** {
 2851              		.loc 1 1570 0
 2852              		.cfi_startproc
 2853              		@ args = 0, pretend = 0, frame = 16
 2854              		@ frame_needed = 1, uses_anonymous_args = 0
 2855              		@ link register save eliminated.
 2856 0f04 80B4     		push	{r7}
 2857              	.LCFI120:
 2858              		.cfi_def_cfa_offset 4
 2859              		.cfi_offset 7, -4
 2860 0f06 85B0     		sub	sp, sp, #20
 2861              	.LCFI121:
 2862              		.cfi_def_cfa_offset 24
 2863 0f08 00AF     		add	r7, sp, #0
 2864              	.LCFI122:
 2865              		.cfi_def_cfa_register 7
 2866 0f0a 7860     		str	r0, [r7, #4]
 2867 0f0c 0B46     		mov	r3, r1
 2868 0f0e 7B80     		strh	r3, [r7, #2]	@ movhi
1571:../src/stm32f30x_tim.c ****   uint32_t tmpccmr1 = 0;
 2869              		.loc 1 1571 0
 2870 0f10 4FF00003 		mov	r3, #0
 2871 0f14 FB60     		str	r3, [r7, #12]
1572:../src/stm32f30x_tim.c **** 
1573:../src/stm32f30x_tim.c ****   /* Check the parameters */
1574:../src/stm32f30x_tim.c ****   assert_param(IS_TIM_LIST2_PERIPH(TIMx));
1575:../src/stm32f30x_tim.c ****   assert_param(IS_TIM_OCPRELOAD_STATE(TIM_OCPreload));
1576:../src/stm32f30x_tim.c **** 
1577:../src/stm32f30x_tim.c ****   tmpccmr1 = TIMx->CCMR1;
 2872              		.loc 1 1577 0
 2873 0f16 7B68     		ldr	r3, [r7, #4]
 2874 0f18 9B69     		ldr	r3, [r3, #24]
 2875 0f1a FB60     		str	r3, [r7, #12]
1578:../src/stm32f30x_tim.c **** 
1579:../src/stm32f30x_tim.c ****   /* Reset the OC2PE Bit */
1580:../src/stm32f30x_tim.c ****   tmpccmr1 &= (uint32_t)(~TIM_CCMR1_OC2PE);
 2876              		.loc 1 1580 0
 2877 0f1c FB68     		ldr	r3, [r7, #12]
 2878 0f1e 23F40063 		bic	r3, r3, #2048
 2879 0f22 FB60     		str	r3, [r7, #12]
1581:../src/stm32f30x_tim.c **** 
1582:../src/stm32f30x_tim.c ****   /* Enable or Disable the Output Compare Preload feature */
1583:../src/stm32f30x_tim.c ****   tmpccmr1 |= ((uint32_t)TIM_OCPreload << 8);
 2880              		.loc 1 1583 0
 2881 0f24 7B88     		ldrh	r3, [r7, #2]
 2882 0f26 4FEA0323 		lsl	r3, r3, #8
 2883 0f2a FA68     		ldr	r2, [r7, #12]
 2884 0f2c 1343     		orrs	r3, r3, r2
 2885 0f2e FB60     		str	r3, [r7, #12]
1584:../src/stm32f30x_tim.c **** 
1585:../src/stm32f30x_tim.c ****   /* Write to TIMx CCMR1 register */
1586:../src/stm32f30x_tim.c ****   TIMx->CCMR1 = tmpccmr1;
 2886              		.loc 1 1586 0
 2887 0f30 7B68     		ldr	r3, [r7, #4]
 2888 0f32 FA68     		ldr	r2, [r7, #12]
 2889 0f34 9A61     		str	r2, [r3, #24]
1587:../src/stm32f30x_tim.c **** }
 2890              		.loc 1 1587 0
 2891 0f36 07F11407 		add	r7, r7, #20
 2892 0f3a BD46     		mov	sp, r7
 2893 0f3c 80BC     		pop	{r7}
 2894 0f3e 7047     		bx	lr
 2895              		.cfi_endproc
 2896              	.LFE151:
 2898              		.align	2
 2899              		.global	TIM_OC3PreloadConfig
 2900              		.thumb
 2901              		.thumb_func
 2903              	TIM_OC3PreloadConfig:
 2904              	.LFB152:
1588:../src/stm32f30x_tim.c **** 
1589:../src/stm32f30x_tim.c **** /**
1590:../src/stm32f30x_tim.c ****   * @brief  Enables or disables the TIMx peripheral Preload register on CCR3.
1591:../src/stm32f30x_tim.c ****   * @param  TIMx: where x can be  1, 2, 3, 4 or 8 to select the TIM peripheral.
1592:../src/stm32f30x_tim.c ****   * @param  TIM_OCPreload: new state of the TIMx peripheral Preload register
1593:../src/stm32f30x_tim.c ****   *          This parameter can be one of the following values:
1594:../src/stm32f30x_tim.c ****   *            @arg TIM_OCPreload_Enable
1595:../src/stm32f30x_tim.c ****   *            @arg TIM_OCPreload_Disable
1596:../src/stm32f30x_tim.c ****   * @retval None
1597:../src/stm32f30x_tim.c ****   */
1598:../src/stm32f30x_tim.c **** void TIM_OC3PreloadConfig(TIM_TypeDef* TIMx, uint16_t TIM_OCPreload)
1599:../src/stm32f30x_tim.c **** {
 2905              		.loc 1 1599 0
 2906              		.cfi_startproc
 2907              		@ args = 0, pretend = 0, frame = 16
 2908              		@ frame_needed = 1, uses_anonymous_args = 0
 2909              		@ link register save eliminated.
 2910 0f40 80B4     		push	{r7}
 2911              	.LCFI123:
 2912              		.cfi_def_cfa_offset 4
 2913              		.cfi_offset 7, -4
 2914 0f42 85B0     		sub	sp, sp, #20
 2915              	.LCFI124:
 2916              		.cfi_def_cfa_offset 24
 2917 0f44 00AF     		add	r7, sp, #0
 2918              	.LCFI125:
 2919              		.cfi_def_cfa_register 7
 2920 0f46 7860     		str	r0, [r7, #4]
 2921 0f48 0B46     		mov	r3, r1
 2922 0f4a 7B80     		strh	r3, [r7, #2]	@ movhi
1600:../src/stm32f30x_tim.c ****   uint32_t tmpccmr2 = 0;
 2923              		.loc 1 1600 0
 2924 0f4c 4FF00003 		mov	r3, #0
 2925 0f50 FB60     		str	r3, [r7, #12]
1601:../src/stm32f30x_tim.c **** 
1602:../src/stm32f30x_tim.c ****   /* Check the parameters */
1603:../src/stm32f30x_tim.c ****   assert_param(IS_TIM_LIST3_PERIPH(TIMx));
1604:../src/stm32f30x_tim.c ****   assert_param(IS_TIM_OCPRELOAD_STATE(TIM_OCPreload));
1605:../src/stm32f30x_tim.c **** 
1606:../src/stm32f30x_tim.c ****   tmpccmr2 = TIMx->CCMR2;
 2926              		.loc 1 1606 0
 2927 0f52 7B68     		ldr	r3, [r7, #4]
 2928 0f54 DB69     		ldr	r3, [r3, #28]
 2929 0f56 FB60     		str	r3, [r7, #12]
1607:../src/stm32f30x_tim.c **** 
1608:../src/stm32f30x_tim.c ****   /* Reset the OC3PE Bit */
1609:../src/stm32f30x_tim.c ****   tmpccmr2 &= (uint32_t)(~TIM_CCMR2_OC3PE);
 2930              		.loc 1 1609 0
 2931 0f58 FB68     		ldr	r3, [r7, #12]
 2932 0f5a 23F00803 		bic	r3, r3, #8
 2933 0f5e FB60     		str	r3, [r7, #12]
1610:../src/stm32f30x_tim.c **** 
1611:../src/stm32f30x_tim.c ****   /* Enable or Disable the Output Compare Preload feature */
1612:../src/stm32f30x_tim.c ****   tmpccmr2 |= TIM_OCPreload;
 2934              		.loc 1 1612 0
 2935 0f60 7B88     		ldrh	r3, [r7, #2]
 2936 0f62 FA68     		ldr	r2, [r7, #12]
 2937 0f64 1343     		orrs	r3, r3, r2
 2938 0f66 FB60     		str	r3, [r7, #12]
1613:../src/stm32f30x_tim.c **** 
1614:../src/stm32f30x_tim.c ****   /* Write to TIMx CCMR2 register */
1615:../src/stm32f30x_tim.c ****   TIMx->CCMR2 = tmpccmr2;
 2939              		.loc 1 1615 0
 2940 0f68 7B68     		ldr	r3, [r7, #4]
 2941 0f6a FA68     		ldr	r2, [r7, #12]
 2942 0f6c DA61     		str	r2, [r3, #28]
1616:../src/stm32f30x_tim.c **** }
 2943              		.loc 1 1616 0
 2944 0f6e 07F11407 		add	r7, r7, #20
 2945 0f72 BD46     		mov	sp, r7
 2946 0f74 80BC     		pop	{r7}
 2947 0f76 7047     		bx	lr
 2948              		.cfi_endproc
 2949              	.LFE152:
 2951              		.align	2
 2952              		.global	TIM_OC4PreloadConfig
 2953              		.thumb
 2954              		.thumb_func
 2956              	TIM_OC4PreloadConfig:
 2957              	.LFB153:
1617:../src/stm32f30x_tim.c **** 
1618:../src/stm32f30x_tim.c **** /**
1619:../src/stm32f30x_tim.c ****   * @brief  Enables or disables the TIMx peripheral Preload register on CCR4.
1620:../src/stm32f30x_tim.c ****   * @param  TIMx: where x can be  1, 2, 3, 4 or 8 to select the TIM peripheral.
1621:../src/stm32f30x_tim.c ****   * @param  TIM_OCPreload: new state of the TIMx peripheral Preload register
1622:../src/stm32f30x_tim.c ****   *          This parameter can be one of the following values:
1623:../src/stm32f30x_tim.c ****   *            @arg TIM_OCPreload_Enable
1624:../src/stm32f30x_tim.c ****   *            @arg TIM_OCPreload_Disable
1625:../src/stm32f30x_tim.c ****   * @retval None
1626:../src/stm32f30x_tim.c ****   */
1627:../src/stm32f30x_tim.c **** void TIM_OC4PreloadConfig(TIM_TypeDef* TIMx, uint16_t TIM_OCPreload)
1628:../src/stm32f30x_tim.c **** {
 2958              		.loc 1 1628 0
 2959              		.cfi_startproc
 2960              		@ args = 0, pretend = 0, frame = 16
 2961              		@ frame_needed = 1, uses_anonymous_args = 0
 2962              		@ link register save eliminated.
 2963 0f78 80B4     		push	{r7}
 2964              	.LCFI126:
 2965              		.cfi_def_cfa_offset 4
 2966              		.cfi_offset 7, -4
 2967 0f7a 85B0     		sub	sp, sp, #20
 2968              	.LCFI127:
 2969              		.cfi_def_cfa_offset 24
 2970 0f7c 00AF     		add	r7, sp, #0
 2971              	.LCFI128:
 2972              		.cfi_def_cfa_register 7
 2973 0f7e 7860     		str	r0, [r7, #4]
 2974 0f80 0B46     		mov	r3, r1
 2975 0f82 7B80     		strh	r3, [r7, #2]	@ movhi
1629:../src/stm32f30x_tim.c ****   uint32_t tmpccmr2 = 0;
 2976              		.loc 1 1629 0
 2977 0f84 4FF00003 		mov	r3, #0
 2978 0f88 FB60     		str	r3, [r7, #12]
1630:../src/stm32f30x_tim.c **** 
1631:../src/stm32f30x_tim.c ****   /* Check the parameters */
1632:../src/stm32f30x_tim.c ****   assert_param(IS_TIM_LIST3_PERIPH(TIMx));
1633:../src/stm32f30x_tim.c ****   assert_param(IS_TIM_OCPRELOAD_STATE(TIM_OCPreload));
1634:../src/stm32f30x_tim.c **** 
1635:../src/stm32f30x_tim.c ****   tmpccmr2 = TIMx->CCMR2;
 2979              		.loc 1 1635 0
 2980 0f8a 7B68     		ldr	r3, [r7, #4]
 2981 0f8c DB69     		ldr	r3, [r3, #28]
 2982 0f8e FB60     		str	r3, [r7, #12]
1636:../src/stm32f30x_tim.c **** 
1637:../src/stm32f30x_tim.c ****   /* Reset the OC4PE Bit */
1638:../src/stm32f30x_tim.c ****   tmpccmr2 &= (uint32_t)(~TIM_CCMR2_OC4PE);
 2983              		.loc 1 1638 0
 2984 0f90 FB68     		ldr	r3, [r7, #12]
 2985 0f92 23F40063 		bic	r3, r3, #2048
 2986 0f96 FB60     		str	r3, [r7, #12]
1639:../src/stm32f30x_tim.c **** 
1640:../src/stm32f30x_tim.c ****   /* Enable or Disable the Output Compare Preload feature */
1641:../src/stm32f30x_tim.c ****   tmpccmr2 |= ((uint32_t)TIM_OCPreload << 8);
 2987              		.loc 1 1641 0
 2988 0f98 7B88     		ldrh	r3, [r7, #2]
 2989 0f9a 4FEA0323 		lsl	r3, r3, #8
 2990 0f9e FA68     		ldr	r2, [r7, #12]
 2991 0fa0 1343     		orrs	r3, r3, r2
 2992 0fa2 FB60     		str	r3, [r7, #12]
1642:../src/stm32f30x_tim.c **** 
1643:../src/stm32f30x_tim.c ****   /* Write to TIMx CCMR2 register */
1644:../src/stm32f30x_tim.c ****   TIMx->CCMR2 = tmpccmr2;
 2993              		.loc 1 1644 0
 2994 0fa4 7B68     		ldr	r3, [r7, #4]
 2995 0fa6 FA68     		ldr	r2, [r7, #12]
 2996 0fa8 DA61     		str	r2, [r3, #28]
1645:../src/stm32f30x_tim.c **** }
 2997              		.loc 1 1645 0
 2998 0faa 07F11407 		add	r7, r7, #20
 2999 0fae BD46     		mov	sp, r7
 3000 0fb0 80BC     		pop	{r7}
 3001 0fb2 7047     		bx	lr
 3002              		.cfi_endproc
 3003              	.LFE153:
 3005              		.align	2
 3006              		.global	TIM_OC5PreloadConfig
 3007              		.thumb
 3008              		.thumb_func
 3010              	TIM_OC5PreloadConfig:
 3011              	.LFB154:
1646:../src/stm32f30x_tim.c **** 
1647:../src/stm32f30x_tim.c **** /**
1648:../src/stm32f30x_tim.c ****   * @brief  Enables or disables the TIMx peripheral Preload register on CCR5.
1649:../src/stm32f30x_tim.c ****   * @param  TIMx: where x can be  1 or 8 to select the TIM peripheral.
1650:../src/stm32f30x_tim.c ****   * @param  TIM_OCPreload: new state of the TIMx peripheral Preload register
1651:../src/stm32f30x_tim.c ****   *          This parameter can be one of the following values:
1652:../src/stm32f30x_tim.c ****   *            @arg TIM_OCPreload_Enable
1653:../src/stm32f30x_tim.c ****   *            @arg TIM_OCPreload_Disable
1654:../src/stm32f30x_tim.c ****   * @retval None
1655:../src/stm32f30x_tim.c ****   */
1656:../src/stm32f30x_tim.c **** void TIM_OC5PreloadConfig(TIM_TypeDef* TIMx, uint16_t TIM_OCPreload)
1657:../src/stm32f30x_tim.c **** {
 3012              		.loc 1 1657 0
 3013              		.cfi_startproc
 3014              		@ args = 0, pretend = 0, frame = 16
 3015              		@ frame_needed = 1, uses_anonymous_args = 0
 3016              		@ link register save eliminated.
 3017 0fb4 80B4     		push	{r7}
 3018              	.LCFI129:
 3019              		.cfi_def_cfa_offset 4
 3020              		.cfi_offset 7, -4
 3021 0fb6 85B0     		sub	sp, sp, #20
 3022              	.LCFI130:
 3023              		.cfi_def_cfa_offset 24
 3024 0fb8 00AF     		add	r7, sp, #0
 3025              	.LCFI131:
 3026              		.cfi_def_cfa_register 7
 3027 0fba 7860     		str	r0, [r7, #4]
 3028 0fbc 0B46     		mov	r3, r1
 3029 0fbe 7B80     		strh	r3, [r7, #2]	@ movhi
1658:../src/stm32f30x_tim.c ****   uint32_t tmpccmr3 = 0;
 3030              		.loc 1 1658 0
 3031 0fc0 4FF00003 		mov	r3, #0
 3032 0fc4 FB60     		str	r3, [r7, #12]
1659:../src/stm32f30x_tim.c **** 
1660:../src/stm32f30x_tim.c ****   /* Check the parameters */
1661:../src/stm32f30x_tim.c ****   assert_param(IS_TIM_LIST4_PERIPH(TIMx));
1662:../src/stm32f30x_tim.c ****   assert_param(IS_TIM_OCPRELOAD_STATE(TIM_OCPreload));
1663:../src/stm32f30x_tim.c **** 
1664:../src/stm32f30x_tim.c ****   tmpccmr3 = TIMx->CCMR3;
 3033              		.loc 1 1664 0
 3034 0fc6 7B68     		ldr	r3, [r7, #4]
 3035 0fc8 5B6D     		ldr	r3, [r3, #84]
 3036 0fca FB60     		str	r3, [r7, #12]
1665:../src/stm32f30x_tim.c **** 
1666:../src/stm32f30x_tim.c ****   /* Reset the OC5PE Bit */
1667:../src/stm32f30x_tim.c ****   tmpccmr3 &= (uint32_t)(~TIM_CCMR3_OC5PE);
 3037              		.loc 1 1667 0
 3038 0fcc FB68     		ldr	r3, [r7, #12]
 3039 0fce 23F00803 		bic	r3, r3, #8
 3040 0fd2 FB60     		str	r3, [r7, #12]
1668:../src/stm32f30x_tim.c **** 
1669:../src/stm32f30x_tim.c ****   /* Enable or Disable the Output Compare Preload feature */
1670:../src/stm32f30x_tim.c ****   tmpccmr3 |= (uint32_t)(TIM_OCPreload);
 3041              		.loc 1 1670 0
 3042 0fd4 7B88     		ldrh	r3, [r7, #2]
 3043 0fd6 FA68     		ldr	r2, [r7, #12]
 3044 0fd8 1343     		orrs	r3, r3, r2
 3045 0fda FB60     		str	r3, [r7, #12]
1671:../src/stm32f30x_tim.c **** 
1672:../src/stm32f30x_tim.c ****   /* Write to TIMx CCMR3 register */
1673:../src/stm32f30x_tim.c ****   TIMx->CCMR3 = tmpccmr3;
 3046              		.loc 1 1673 0
 3047 0fdc 7B68     		ldr	r3, [r7, #4]
 3048 0fde FA68     		ldr	r2, [r7, #12]
 3049 0fe0 5A65     		str	r2, [r3, #84]
1674:../src/stm32f30x_tim.c **** }
 3050              		.loc 1 1674 0
 3051 0fe2 07F11407 		add	r7, r7, #20
 3052 0fe6 BD46     		mov	sp, r7
 3053 0fe8 80BC     		pop	{r7}
 3054 0fea 7047     		bx	lr
 3055              		.cfi_endproc
 3056              	.LFE154:
 3058              		.align	2
 3059              		.global	TIM_OC6PreloadConfig
 3060              		.thumb
 3061              		.thumb_func
 3063              	TIM_OC6PreloadConfig:
 3064              	.LFB155:
1675:../src/stm32f30x_tim.c **** 
1676:../src/stm32f30x_tim.c **** /**
1677:../src/stm32f30x_tim.c ****   * @brief  Enables or disables the TIMx peripheral Preload register on CCR6.
1678:../src/stm32f30x_tim.c ****   * @param  TIMx: where x can be  1 or 8 to select the TIM peripheral.
1679:../src/stm32f30x_tim.c ****   * @param  TIM_OCPreload: new state of the TIMx peripheral Preload register
1680:../src/stm32f30x_tim.c ****   *          This parameter can be one of the following values:
1681:../src/stm32f30x_tim.c ****   *            @arg TIM_OCPreload_Enable
1682:../src/stm32f30x_tim.c ****   *            @arg TIM_OCPreload_Disable
1683:../src/stm32f30x_tim.c ****   * @retval None
1684:../src/stm32f30x_tim.c ****   */
1685:../src/stm32f30x_tim.c **** void TIM_OC6PreloadConfig(TIM_TypeDef* TIMx, uint16_t TIM_OCPreload)
1686:../src/stm32f30x_tim.c **** {
 3065              		.loc 1 1686 0
 3066              		.cfi_startproc
 3067              		@ args = 0, pretend = 0, frame = 16
 3068              		@ frame_needed = 1, uses_anonymous_args = 0
 3069              		@ link register save eliminated.
 3070 0fec 80B4     		push	{r7}
 3071              	.LCFI132:
 3072              		.cfi_def_cfa_offset 4
 3073              		.cfi_offset 7, -4
 3074 0fee 85B0     		sub	sp, sp, #20
 3075              	.LCFI133:
 3076              		.cfi_def_cfa_offset 24
 3077 0ff0 00AF     		add	r7, sp, #0
 3078              	.LCFI134:
 3079              		.cfi_def_cfa_register 7
 3080 0ff2 7860     		str	r0, [r7, #4]
 3081 0ff4 0B46     		mov	r3, r1
 3082 0ff6 7B80     		strh	r3, [r7, #2]	@ movhi
1687:../src/stm32f30x_tim.c ****   uint32_t tmpccmr3 = 0;
 3083              		.loc 1 1687 0
 3084 0ff8 4FF00003 		mov	r3, #0
 3085 0ffc FB60     		str	r3, [r7, #12]
1688:../src/stm32f30x_tim.c **** 
1689:../src/stm32f30x_tim.c ****   /* Check the parameters */
1690:../src/stm32f30x_tim.c ****   assert_param(IS_TIM_LIST4_PERIPH(TIMx));
1691:../src/stm32f30x_tim.c ****   assert_param(IS_TIM_OCPRELOAD_STATE(TIM_OCPreload));
1692:../src/stm32f30x_tim.c **** 
1693:../src/stm32f30x_tim.c ****   tmpccmr3 = TIMx->CCMR3;
 3086              		.loc 1 1693 0
 3087 0ffe 7B68     		ldr	r3, [r7, #4]
 3088 1000 5B6D     		ldr	r3, [r3, #84]
 3089 1002 FB60     		str	r3, [r7, #12]
1694:../src/stm32f30x_tim.c **** 
1695:../src/stm32f30x_tim.c ****   /* Reset the OC5PE Bit */
1696:../src/stm32f30x_tim.c ****   tmpccmr3 &= (uint32_t)(~TIM_CCMR3_OC6PE);
 3090              		.loc 1 1696 0
 3091 1004 FB68     		ldr	r3, [r7, #12]
 3092 1006 23F40063 		bic	r3, r3, #2048
 3093 100a FB60     		str	r3, [r7, #12]
1697:../src/stm32f30x_tim.c **** 
1698:../src/stm32f30x_tim.c ****   /* Enable or Disable the Output Compare Preload feature */
1699:../src/stm32f30x_tim.c ****   tmpccmr3 |= ((uint32_t)TIM_OCPreload << 8);
 3094              		.loc 1 1699 0
 3095 100c 7B88     		ldrh	r3, [r7, #2]
 3096 100e 4FEA0323 		lsl	r3, r3, #8
 3097 1012 FA68     		ldr	r2, [r7, #12]
 3098 1014 1343     		orrs	r3, r3, r2
 3099 1016 FB60     		str	r3, [r7, #12]
1700:../src/stm32f30x_tim.c **** 
1701:../src/stm32f30x_tim.c ****   /* Write to TIMx CCMR3 register */
1702:../src/stm32f30x_tim.c ****   TIMx->CCMR3 = tmpccmr3;
 3100              		.loc 1 1702 0
 3101 1018 7B68     		ldr	r3, [r7, #4]
 3102 101a FA68     		ldr	r2, [r7, #12]
 3103 101c 5A65     		str	r2, [r3, #84]
1703:../src/stm32f30x_tim.c **** }
 3104              		.loc 1 1703 0
 3105 101e 07F11407 		add	r7, r7, #20
 3106 1022 BD46     		mov	sp, r7
 3107 1024 80BC     		pop	{r7}
 3108 1026 7047     		bx	lr
 3109              		.cfi_endproc
 3110              	.LFE155:
 3112              		.align	2
 3113              		.global	TIM_OC1FastConfig
 3114              		.thumb
 3115              		.thumb_func
 3117              	TIM_OC1FastConfig:
 3118              	.LFB156:
1704:../src/stm32f30x_tim.c **** 
1705:../src/stm32f30x_tim.c **** /**
1706:../src/stm32f30x_tim.c ****   * @brief  Configures the TIMx Output Compare 1 Fast feature.
1707:../src/stm32f30x_tim.c ****   * @param  TIMx: where x can be 1, 2, 3, 4, 8, 15, 16 or 17 to select the TIM peripheral.
1708:../src/stm32f30x_tim.c ****   * @param  TIM_OCFast: new state of the Output Compare Fast Enable Bit.
1709:../src/stm32f30x_tim.c ****   *          This parameter can be one of the following values:
1710:../src/stm32f30x_tim.c ****   *            @arg TIM_OCFast_Enable: TIM output compare fast enable
1711:../src/stm32f30x_tim.c ****   *            @arg TIM_OCFast_Disable: TIM output compare fast disable
1712:../src/stm32f30x_tim.c ****   * @retval None
1713:../src/stm32f30x_tim.c ****   */
1714:../src/stm32f30x_tim.c **** void TIM_OC1FastConfig(TIM_TypeDef* TIMx, uint16_t TIM_OCFast)
1715:../src/stm32f30x_tim.c **** {
 3119              		.loc 1 1715 0
 3120              		.cfi_startproc
 3121              		@ args = 0, pretend = 0, frame = 16
 3122              		@ frame_needed = 1, uses_anonymous_args = 0
 3123              		@ link register save eliminated.
 3124 1028 80B4     		push	{r7}
 3125              	.LCFI135:
 3126              		.cfi_def_cfa_offset 4
 3127              		.cfi_offset 7, -4
 3128 102a 85B0     		sub	sp, sp, #20
 3129              	.LCFI136:
 3130              		.cfi_def_cfa_offset 24
 3131 102c 00AF     		add	r7, sp, #0
 3132              	.LCFI137:
 3133              		.cfi_def_cfa_register 7
 3134 102e 7860     		str	r0, [r7, #4]
 3135 1030 0B46     		mov	r3, r1
 3136 1032 7B80     		strh	r3, [r7, #2]	@ movhi
1716:../src/stm32f30x_tim.c ****   uint32_t tmpccmr1 = 0;
 3137              		.loc 1 1716 0
 3138 1034 4FF00003 		mov	r3, #0
 3139 1038 FB60     		str	r3, [r7, #12]
1717:../src/stm32f30x_tim.c **** 
1718:../src/stm32f30x_tim.c ****   /* Check the parameters */
1719:../src/stm32f30x_tim.c ****   assert_param(IS_TIM_LIST1_PERIPH(TIMx));
1720:../src/stm32f30x_tim.c ****   assert_param(IS_TIM_OCFAST_STATE(TIM_OCFast));
1721:../src/stm32f30x_tim.c **** 
1722:../src/stm32f30x_tim.c ****   /* Get the TIMx CCMR1 register value */
1723:../src/stm32f30x_tim.c ****   tmpccmr1 = TIMx->CCMR1;
 3140              		.loc 1 1723 0
 3141 103a 7B68     		ldr	r3, [r7, #4]
 3142 103c 9B69     		ldr	r3, [r3, #24]
 3143 103e FB60     		str	r3, [r7, #12]
1724:../src/stm32f30x_tim.c **** 
1725:../src/stm32f30x_tim.c ****   /* Reset the OC1FE Bit */
1726:../src/stm32f30x_tim.c ****   tmpccmr1 &= (uint32_t)~TIM_CCMR1_OC1FE;
 3144              		.loc 1 1726 0
 3145 1040 FB68     		ldr	r3, [r7, #12]
 3146 1042 23F00403 		bic	r3, r3, #4
 3147 1046 FB60     		str	r3, [r7, #12]
1727:../src/stm32f30x_tim.c **** 
1728:../src/stm32f30x_tim.c ****   /* Enable or Disable the Output Compare Fast Bit */
1729:../src/stm32f30x_tim.c ****   tmpccmr1 |= TIM_OCFast;
 3148              		.loc 1 1729 0
 3149 1048 7B88     		ldrh	r3, [r7, #2]
 3150 104a FA68     		ldr	r2, [r7, #12]
 3151 104c 1343     		orrs	r3, r3, r2
 3152 104e FB60     		str	r3, [r7, #12]
1730:../src/stm32f30x_tim.c **** 
1731:../src/stm32f30x_tim.c ****   /* Write to TIMx CCMR1 */
1732:../src/stm32f30x_tim.c ****   TIMx->CCMR1 = tmpccmr1;
 3153              		.loc 1 1732 0
 3154 1050 7B68     		ldr	r3, [r7, #4]
 3155 1052 FA68     		ldr	r2, [r7, #12]
 3156 1054 9A61     		str	r2, [r3, #24]
1733:../src/stm32f30x_tim.c **** }
 3157              		.loc 1 1733 0
 3158 1056 07F11407 		add	r7, r7, #20
 3159 105a BD46     		mov	sp, r7
 3160 105c 80BC     		pop	{r7}
 3161 105e 7047     		bx	lr
 3162              		.cfi_endproc
 3163              	.LFE156:
 3165              		.align	2
 3166              		.global	TIM_OC2FastConfig
 3167              		.thumb
 3168              		.thumb_func
 3170              	TIM_OC2FastConfig:
 3171              	.LFB157:
1734:../src/stm32f30x_tim.c **** 
1735:../src/stm32f30x_tim.c **** /**
1736:../src/stm32f30x_tim.c ****   * @brief  Configures the TIMx Output Compare 2 Fast feature.
1737:../src/stm32f30x_tim.c ****   * @param  TIMx: where x can be 1, 2, 3, 4, 8 or 15 to select the TIM 
1738:../src/stm32f30x_tim.c ****   *         peripheral.
1739:../src/stm32f30x_tim.c ****   * @param  TIM_OCFast: new state of the Output Compare Fast Enable Bit.
1740:../src/stm32f30x_tim.c ****   *          This parameter can be one of the following values:
1741:../src/stm32f30x_tim.c ****   *            @arg TIM_OCFast_Enable: TIM output compare fast enable
1742:../src/stm32f30x_tim.c ****   *            @arg TIM_OCFast_Disable: TIM output compare fast disable
1743:../src/stm32f30x_tim.c ****   * @retval None
1744:../src/stm32f30x_tim.c ****   */
1745:../src/stm32f30x_tim.c **** void TIM_OC2FastConfig(TIM_TypeDef* TIMx, uint16_t TIM_OCFast)
1746:../src/stm32f30x_tim.c **** {
 3172              		.loc 1 1746 0
 3173              		.cfi_startproc
 3174              		@ args = 0, pretend = 0, frame = 16
 3175              		@ frame_needed = 1, uses_anonymous_args = 0
 3176              		@ link register save eliminated.
 3177 1060 80B4     		push	{r7}
 3178              	.LCFI138:
 3179              		.cfi_def_cfa_offset 4
 3180              		.cfi_offset 7, -4
 3181 1062 85B0     		sub	sp, sp, #20
 3182              	.LCFI139:
 3183              		.cfi_def_cfa_offset 24
 3184 1064 00AF     		add	r7, sp, #0
 3185              	.LCFI140:
 3186              		.cfi_def_cfa_register 7
 3187 1066 7860     		str	r0, [r7, #4]
 3188 1068 0B46     		mov	r3, r1
 3189 106a 7B80     		strh	r3, [r7, #2]	@ movhi
1747:../src/stm32f30x_tim.c ****   uint32_t tmpccmr1 = 0;
 3190              		.loc 1 1747 0
 3191 106c 4FF00003 		mov	r3, #0
 3192 1070 FB60     		str	r3, [r7, #12]
1748:../src/stm32f30x_tim.c **** 
1749:../src/stm32f30x_tim.c ****   /* Check the parameters */
1750:../src/stm32f30x_tim.c ****   assert_param(IS_TIM_LIST2_PERIPH(TIMx));
1751:../src/stm32f30x_tim.c ****   assert_param(IS_TIM_OCFAST_STATE(TIM_OCFast));
1752:../src/stm32f30x_tim.c **** 
1753:../src/stm32f30x_tim.c ****   /* Get the TIMx CCMR1 register value */
1754:../src/stm32f30x_tim.c ****   tmpccmr1 = TIMx->CCMR1;
 3193              		.loc 1 1754 0
 3194 1072 7B68     		ldr	r3, [r7, #4]
 3195 1074 9B69     		ldr	r3, [r3, #24]
 3196 1076 FB60     		str	r3, [r7, #12]
1755:../src/stm32f30x_tim.c **** 
1756:../src/stm32f30x_tim.c ****   /* Reset the OC2FE Bit */
1757:../src/stm32f30x_tim.c ****   tmpccmr1 &= (uint32_t)(~TIM_CCMR1_OC2FE);
 3197              		.loc 1 1757 0
 3198 1078 FB68     		ldr	r3, [r7, #12]
 3199 107a 23F48063 		bic	r3, r3, #1024
 3200 107e FB60     		str	r3, [r7, #12]
1758:../src/stm32f30x_tim.c **** 
1759:../src/stm32f30x_tim.c ****   /* Enable or Disable the Output Compare Fast Bit */
1760:../src/stm32f30x_tim.c ****   tmpccmr1 |= ((uint32_t)TIM_OCFast << 8);
 3201              		.loc 1 1760 0
 3202 1080 7B88     		ldrh	r3, [r7, #2]
 3203 1082 4FEA0323 		lsl	r3, r3, #8
 3204 1086 FA68     		ldr	r2, [r7, #12]
 3205 1088 1343     		orrs	r3, r3, r2
 3206 108a FB60     		str	r3, [r7, #12]
1761:../src/stm32f30x_tim.c **** 
1762:../src/stm32f30x_tim.c ****   /* Write to TIMx CCMR1 */
1763:../src/stm32f30x_tim.c ****   TIMx->CCMR1 = tmpccmr1;
 3207              		.loc 1 1763 0
 3208 108c 7B68     		ldr	r3, [r7, #4]
 3209 108e FA68     		ldr	r2, [r7, #12]
 3210 1090 9A61     		str	r2, [r3, #24]
1764:../src/stm32f30x_tim.c **** }
 3211              		.loc 1 1764 0
 3212 1092 07F11407 		add	r7, r7, #20
 3213 1096 BD46     		mov	sp, r7
 3214 1098 80BC     		pop	{r7}
 3215 109a 7047     		bx	lr
 3216              		.cfi_endproc
 3217              	.LFE157:
 3219              		.align	2
 3220              		.global	TIM_OC3FastConfig
 3221              		.thumb
 3222              		.thumb_func
 3224              	TIM_OC3FastConfig:
 3225              	.LFB158:
1765:../src/stm32f30x_tim.c **** 
1766:../src/stm32f30x_tim.c **** /**
1767:../src/stm32f30x_tim.c ****   * @brief  Configures the TIMx Output Compare 3 Fast feature.
1768:../src/stm32f30x_tim.c ****   * @param  TIMx: where x can be  1, 2, 3, 4 or 8 to select the TIM peripheral.
1769:../src/stm32f30x_tim.c ****   * @param  TIM_OCFast: new state of the Output Compare Fast Enable Bit.
1770:../src/stm32f30x_tim.c ****   *          This parameter can be one of the following values:
1771:../src/stm32f30x_tim.c ****   *            @arg TIM_OCFast_Enable: TIM output compare fast enable
1772:../src/stm32f30x_tim.c ****   *            @arg TIM_OCFast_Disable: TIM output compare fast disable
1773:../src/stm32f30x_tim.c ****   * @retval None
1774:../src/stm32f30x_tim.c ****   */
1775:../src/stm32f30x_tim.c **** void TIM_OC3FastConfig(TIM_TypeDef* TIMx, uint16_t TIM_OCFast)
1776:../src/stm32f30x_tim.c **** {
 3226              		.loc 1 1776 0
 3227              		.cfi_startproc
 3228              		@ args = 0, pretend = 0, frame = 16
 3229              		@ frame_needed = 1, uses_anonymous_args = 0
 3230              		@ link register save eliminated.
 3231 109c 80B4     		push	{r7}
 3232              	.LCFI141:
 3233              		.cfi_def_cfa_offset 4
 3234              		.cfi_offset 7, -4
 3235 109e 85B0     		sub	sp, sp, #20
 3236              	.LCFI142:
 3237              		.cfi_def_cfa_offset 24
 3238 10a0 00AF     		add	r7, sp, #0
 3239              	.LCFI143:
 3240              		.cfi_def_cfa_register 7
 3241 10a2 7860     		str	r0, [r7, #4]
 3242 10a4 0B46     		mov	r3, r1
 3243 10a6 7B80     		strh	r3, [r7, #2]	@ movhi
1777:../src/stm32f30x_tim.c ****   uint32_t tmpccmr2 = 0;
 3244              		.loc 1 1777 0
 3245 10a8 4FF00003 		mov	r3, #0
 3246 10ac FB60     		str	r3, [r7, #12]
1778:../src/stm32f30x_tim.c ****   
1779:../src/stm32f30x_tim.c ****   /* Check the parameters */
1780:../src/stm32f30x_tim.c ****   assert_param(IS_TIM_LIST3_PERIPH(TIMx));
1781:../src/stm32f30x_tim.c ****   assert_param(IS_TIM_OCFAST_STATE(TIM_OCFast));
1782:../src/stm32f30x_tim.c **** 
1783:../src/stm32f30x_tim.c ****   /* Get the TIMx CCMR2 register value */
1784:../src/stm32f30x_tim.c ****   tmpccmr2 = TIMx->CCMR2;
 3247              		.loc 1 1784 0
 3248 10ae 7B68     		ldr	r3, [r7, #4]
 3249 10b0 DB69     		ldr	r3, [r3, #28]
 3250 10b2 FB60     		str	r3, [r7, #12]
1785:../src/stm32f30x_tim.c **** 
1786:../src/stm32f30x_tim.c ****   /* Reset the OC3FE Bit */
1787:../src/stm32f30x_tim.c ****   tmpccmr2 &= (uint32_t)~TIM_CCMR2_OC3FE;
 3251              		.loc 1 1787 0
 3252 10b4 FB68     		ldr	r3, [r7, #12]
 3253 10b6 23F00403 		bic	r3, r3, #4
 3254 10ba FB60     		str	r3, [r7, #12]
1788:../src/stm32f30x_tim.c **** 
1789:../src/stm32f30x_tim.c ****   /* Enable or Disable the Output Compare Fast Bit */
1790:../src/stm32f30x_tim.c ****   tmpccmr2 |= TIM_OCFast;
 3255              		.loc 1 1790 0
 3256 10bc 7B88     		ldrh	r3, [r7, #2]
 3257 10be FA68     		ldr	r2, [r7, #12]
 3258 10c0 1343     		orrs	r3, r3, r2
 3259 10c2 FB60     		str	r3, [r7, #12]
1791:../src/stm32f30x_tim.c **** 
1792:../src/stm32f30x_tim.c ****   /* Write to TIMx CCMR2 */
1793:../src/stm32f30x_tim.c ****   TIMx->CCMR2 = tmpccmr2;
 3260              		.loc 1 1793 0
 3261 10c4 7B68     		ldr	r3, [r7, #4]
 3262 10c6 FA68     		ldr	r2, [r7, #12]
 3263 10c8 DA61     		str	r2, [r3, #28]
1794:../src/stm32f30x_tim.c **** }
 3264              		.loc 1 1794 0
 3265 10ca 07F11407 		add	r7, r7, #20
 3266 10ce BD46     		mov	sp, r7
 3267 10d0 80BC     		pop	{r7}
 3268 10d2 7047     		bx	lr
 3269              		.cfi_endproc
 3270              	.LFE158:
 3272              		.align	2
 3273              		.global	TIM_OC4FastConfig
 3274              		.thumb
 3275              		.thumb_func
 3277              	TIM_OC4FastConfig:
 3278              	.LFB159:
1795:../src/stm32f30x_tim.c **** 
1796:../src/stm32f30x_tim.c **** /**
1797:../src/stm32f30x_tim.c ****   * @brief  Configures the TIMx Output Compare 4 Fast feature.
1798:../src/stm32f30x_tim.c ****   * @param  TIMx: where x can be  1, 2, 3, 4 or 8 to select the TIM peripheral.
1799:../src/stm32f30x_tim.c ****   * @param  TIM_OCFast: new state of the Output Compare Fast Enable Bit.
1800:../src/stm32f30x_tim.c ****   *          This parameter can be one of the following values:
1801:../src/stm32f30x_tim.c ****   *            @arg TIM_OCFast_Enable: TIM output compare fast enable
1802:../src/stm32f30x_tim.c ****   *            @arg TIM_OCFast_Disable: TIM output compare fast disable
1803:../src/stm32f30x_tim.c ****   * @retval None
1804:../src/stm32f30x_tim.c ****   */
1805:../src/stm32f30x_tim.c **** void TIM_OC4FastConfig(TIM_TypeDef* TIMx, uint16_t TIM_OCFast)
1806:../src/stm32f30x_tim.c **** {
 3279              		.loc 1 1806 0
 3280              		.cfi_startproc
 3281              		@ args = 0, pretend = 0, frame = 16
 3282              		@ frame_needed = 1, uses_anonymous_args = 0
 3283              		@ link register save eliminated.
 3284 10d4 80B4     		push	{r7}
 3285              	.LCFI144:
 3286              		.cfi_def_cfa_offset 4
 3287              		.cfi_offset 7, -4
 3288 10d6 85B0     		sub	sp, sp, #20
 3289              	.LCFI145:
 3290              		.cfi_def_cfa_offset 24
 3291 10d8 00AF     		add	r7, sp, #0
 3292              	.LCFI146:
 3293              		.cfi_def_cfa_register 7
 3294 10da 7860     		str	r0, [r7, #4]
 3295 10dc 0B46     		mov	r3, r1
 3296 10de 7B80     		strh	r3, [r7, #2]	@ movhi
1807:../src/stm32f30x_tim.c ****   uint32_t tmpccmr2 = 0;
 3297              		.loc 1 1807 0
 3298 10e0 4FF00003 		mov	r3, #0
 3299 10e4 FB60     		str	r3, [r7, #12]
1808:../src/stm32f30x_tim.c **** 
1809:../src/stm32f30x_tim.c ****   /* Check the parameters */
1810:../src/stm32f30x_tim.c ****   assert_param(IS_TIM_LIST3_PERIPH(TIMx));
1811:../src/stm32f30x_tim.c ****   assert_param(IS_TIM_OCFAST_STATE(TIM_OCFast));
1812:../src/stm32f30x_tim.c **** 
1813:../src/stm32f30x_tim.c ****   /* Get the TIMx CCMR2 register value */
1814:../src/stm32f30x_tim.c ****   tmpccmr2 = TIMx->CCMR2;
 3300              		.loc 1 1814 0
 3301 10e6 7B68     		ldr	r3, [r7, #4]
 3302 10e8 DB69     		ldr	r3, [r3, #28]
 3303 10ea FB60     		str	r3, [r7, #12]
1815:../src/stm32f30x_tim.c **** 
1816:../src/stm32f30x_tim.c ****   /* Reset the OC4FE Bit */
1817:../src/stm32f30x_tim.c ****   tmpccmr2 &= (uint32_t)(~TIM_CCMR2_OC4FE);
 3304              		.loc 1 1817 0
 3305 10ec FB68     		ldr	r3, [r7, #12]
 3306 10ee 23F48063 		bic	r3, r3, #1024
 3307 10f2 FB60     		str	r3, [r7, #12]
1818:../src/stm32f30x_tim.c **** 
1819:../src/stm32f30x_tim.c ****   /* Enable or Disable the Output Compare Fast Bit */
1820:../src/stm32f30x_tim.c ****   tmpccmr2 |= ((uint32_t)TIM_OCFast << 8);
 3308              		.loc 1 1820 0
 3309 10f4 7B88     		ldrh	r3, [r7, #2]
 3310 10f6 4FEA0323 		lsl	r3, r3, #8
 3311 10fa FA68     		ldr	r2, [r7, #12]
 3312 10fc 1343     		orrs	r3, r3, r2
 3313 10fe FB60     		str	r3, [r7, #12]
1821:../src/stm32f30x_tim.c **** 
1822:../src/stm32f30x_tim.c ****   /* Write to TIMx CCMR2 */
1823:../src/stm32f30x_tim.c ****   TIMx->CCMR2 = tmpccmr2;
 3314              		.loc 1 1823 0
 3315 1100 7B68     		ldr	r3, [r7, #4]
 3316 1102 FA68     		ldr	r2, [r7, #12]
 3317 1104 DA61     		str	r2, [r3, #28]
1824:../src/stm32f30x_tim.c **** }
 3318              		.loc 1 1824 0
 3319 1106 07F11407 		add	r7, r7, #20
 3320 110a BD46     		mov	sp, r7
 3321 110c 80BC     		pop	{r7}
 3322 110e 7047     		bx	lr
 3323              		.cfi_endproc
 3324              	.LFE159:
 3326              		.align	2
 3327              		.global	TIM_ClearOC1Ref
 3328              		.thumb
 3329              		.thumb_func
 3331              	TIM_ClearOC1Ref:
 3332              	.LFB160:
1825:../src/stm32f30x_tim.c **** 
1826:../src/stm32f30x_tim.c **** /**
1827:../src/stm32f30x_tim.c ****   * @brief  Clears or safeguards the OCREF1 signal on an external event
1828:../src/stm32f30x_tim.c ****   * @param  TIMx: where x can be 1, 2, 3, 4, 8, 15, 16 or 17 to select the TIM peripheral.
1829:../src/stm32f30x_tim.c ****   * @param  TIM_OCClear: new state of the Output Compare Clear Enable Bit.
1830:../src/stm32f30x_tim.c ****   *          This parameter can be one of the following values:
1831:../src/stm32f30x_tim.c ****   *            @arg TIM_OCClear_Enable: TIM Output clear enable
1832:../src/stm32f30x_tim.c ****   *            @arg TIM_OCClear_Disable: TIM Output clear disable
1833:../src/stm32f30x_tim.c ****   * @retval None
1834:../src/stm32f30x_tim.c ****   */
1835:../src/stm32f30x_tim.c **** void TIM_ClearOC1Ref(TIM_TypeDef* TIMx, uint16_t TIM_OCClear)
1836:../src/stm32f30x_tim.c **** {
 3333              		.loc 1 1836 0
 3334              		.cfi_startproc
 3335              		@ args = 0, pretend = 0, frame = 16
 3336              		@ frame_needed = 1, uses_anonymous_args = 0
 3337              		@ link register save eliminated.
 3338 1110 80B4     		push	{r7}
 3339              	.LCFI147:
 3340              		.cfi_def_cfa_offset 4
 3341              		.cfi_offset 7, -4
 3342 1112 85B0     		sub	sp, sp, #20
 3343              	.LCFI148:
 3344              		.cfi_def_cfa_offset 24
 3345 1114 00AF     		add	r7, sp, #0
 3346              	.LCFI149:
 3347              		.cfi_def_cfa_register 7
 3348 1116 7860     		str	r0, [r7, #4]
 3349 1118 0B46     		mov	r3, r1
 3350 111a 7B80     		strh	r3, [r7, #2]	@ movhi
1837:../src/stm32f30x_tim.c ****   uint32_t tmpccmr1 = 0;
 3351              		.loc 1 1837 0
 3352 111c 4FF00003 		mov	r3, #0
 3353 1120 FB60     		str	r3, [r7, #12]
1838:../src/stm32f30x_tim.c **** 
1839:../src/stm32f30x_tim.c ****   /* Check the parameters */
1840:../src/stm32f30x_tim.c ****   assert_param(IS_TIM_LIST1_PERIPH(TIMx));
1841:../src/stm32f30x_tim.c ****   assert_param(IS_TIM_OCCLEAR_STATE(TIM_OCClear));
1842:../src/stm32f30x_tim.c **** 
1843:../src/stm32f30x_tim.c ****   tmpccmr1 = TIMx->CCMR1;
 3354              		.loc 1 1843 0
 3355 1122 7B68     		ldr	r3, [r7, #4]
 3356 1124 9B69     		ldr	r3, [r3, #24]
 3357 1126 FB60     		str	r3, [r7, #12]
1844:../src/stm32f30x_tim.c **** 
1845:../src/stm32f30x_tim.c ****   /* Reset the OC1CE Bit */
1846:../src/stm32f30x_tim.c ****   tmpccmr1 &= (uint32_t)~TIM_CCMR1_OC1CE;
 3358              		.loc 1 1846 0
 3359 1128 FB68     		ldr	r3, [r7, #12]
 3360 112a 23F08003 		bic	r3, r3, #128
 3361 112e FB60     		str	r3, [r7, #12]
1847:../src/stm32f30x_tim.c **** 
1848:../src/stm32f30x_tim.c ****   /* Enable or Disable the Output Compare Clear Bit */
1849:../src/stm32f30x_tim.c ****   tmpccmr1 |= TIM_OCClear;
 3362              		.loc 1 1849 0
 3363 1130 7B88     		ldrh	r3, [r7, #2]
 3364 1132 FA68     		ldr	r2, [r7, #12]
 3365 1134 1343     		orrs	r3, r3, r2
 3366 1136 FB60     		str	r3, [r7, #12]
1850:../src/stm32f30x_tim.c **** 
1851:../src/stm32f30x_tim.c ****   /* Write to TIMx CCMR1 register */
1852:../src/stm32f30x_tim.c ****   TIMx->CCMR1 = tmpccmr1;
 3367              		.loc 1 1852 0
 3368 1138 7B68     		ldr	r3, [r7, #4]
 3369 113a FA68     		ldr	r2, [r7, #12]
 3370 113c 9A61     		str	r2, [r3, #24]
1853:../src/stm32f30x_tim.c **** }
 3371              		.loc 1 1853 0
 3372 113e 07F11407 		add	r7, r7, #20
 3373 1142 BD46     		mov	sp, r7
 3374 1144 80BC     		pop	{r7}
 3375 1146 7047     		bx	lr
 3376              		.cfi_endproc
 3377              	.LFE160:
 3379              		.align	2
 3380              		.global	TIM_ClearOC2Ref
 3381              		.thumb
 3382              		.thumb_func
 3384              	TIM_ClearOC2Ref:
 3385              	.LFB161:
1854:../src/stm32f30x_tim.c **** 
1855:../src/stm32f30x_tim.c **** /**
1856:../src/stm32f30x_tim.c ****   * @brief  Clears or safeguards the OCREF2 signal on an external event
1857:../src/stm32f30x_tim.c ****   * @param  TIMx: where x can be 1, 2, 3, 4, 8 or 15 to select the TIM 
1858:../src/stm32f30x_tim.c ****   *         peripheral.
1859:../src/stm32f30x_tim.c ****   * @param  TIM_OCClear: new state of the Output Compare Clear Enable Bit.
1860:../src/stm32f30x_tim.c ****   *          This parameter can be one of the following values:
1861:../src/stm32f30x_tim.c ****   *            @arg TIM_OCClear_Enable: TIM Output clear enable
1862:../src/stm32f30x_tim.c ****   *            @arg TIM_OCClear_Disable: TIM Output clear disable
1863:../src/stm32f30x_tim.c ****   * @retval None
1864:../src/stm32f30x_tim.c ****   */
1865:../src/stm32f30x_tim.c **** void TIM_ClearOC2Ref(TIM_TypeDef* TIMx, uint16_t TIM_OCClear)
1866:../src/stm32f30x_tim.c **** {
 3386              		.loc 1 1866 0
 3387              		.cfi_startproc
 3388              		@ args = 0, pretend = 0, frame = 16
 3389              		@ frame_needed = 1, uses_anonymous_args = 0
 3390              		@ link register save eliminated.
 3391 1148 80B4     		push	{r7}
 3392              	.LCFI150:
 3393              		.cfi_def_cfa_offset 4
 3394              		.cfi_offset 7, -4
 3395 114a 85B0     		sub	sp, sp, #20
 3396              	.LCFI151:
 3397              		.cfi_def_cfa_offset 24
 3398 114c 00AF     		add	r7, sp, #0
 3399              	.LCFI152:
 3400              		.cfi_def_cfa_register 7
 3401 114e 7860     		str	r0, [r7, #4]
 3402 1150 0B46     		mov	r3, r1
 3403 1152 7B80     		strh	r3, [r7, #2]	@ movhi
1867:../src/stm32f30x_tim.c ****   uint32_t tmpccmr1 = 0;
 3404              		.loc 1 1867 0
 3405 1154 4FF00003 		mov	r3, #0
 3406 1158 FB60     		str	r3, [r7, #12]
1868:../src/stm32f30x_tim.c **** 
1869:../src/stm32f30x_tim.c ****   /* Check the parameters */
1870:../src/stm32f30x_tim.c ****   assert_param(IS_TIM_LIST2_PERIPH(TIMx));
