   1              		.syntax unified
   2              		.cpu cortex-m4
   3              		.eabi_attribute 27, 3
   4              		.eabi_attribute 28, 1
   5              		.fpu fpv4-sp-d16
   6              		.eabi_attribute 20, 1
   7              		.eabi_attribute 21, 1
   8              		.eabi_attribute 23, 3
   9              		.eabi_attribute 24, 1
  10              		.eabi_attribute 25, 1
  11              		.eabi_attribute 26, 1
  12              		.eabi_attribute 30, 6
  13              		.eabi_attribute 34, 1
  14              		.eabi_attribute 18, 4
  15              		.thumb
  16              		.file	"stm32f30x_exti.c"
  17              		.text
  18              	.Ltext0:
  19              		.cfi_sections	.debug_frame
  20              		.align	2
  21              		.global	EXTI_DeInit
  22              		.thumb
  23              		.thumb_func
  25              	EXTI_DeInit:
  26              	.LFB111:
  27              		.file 1 "../src/stm32f30x_exti.c"
   1:../src/stm32f30x_exti.c **** /**
   2:../src/stm32f30x_exti.c ****   ******************************************************************************
   3:../src/stm32f30x_exti.c ****   * @file    stm32f30x_exti.c
   4:../src/stm32f30x_exti.c ****   * @author  MCD Application Team
   5:../src/stm32f30x_exti.c ****   * @version V1.0.1
   6:../src/stm32f30x_exti.c ****   * @date    23-October-2012
   7:../src/stm32f30x_exti.c ****   * @brief   This file provides firmware functions to manage the following 
   8:../src/stm32f30x_exti.c ****   *          functionalities of the EXTI peripheral:
   9:../src/stm32f30x_exti.c ****   *           + Initialization and Configuration 
  10:../src/stm32f30x_exti.c ****   *           + Interrupts and flags management 
  11:../src/stm32f30x_exti.c ****   *
  12:../src/stm32f30x_exti.c ****   @verbatim
  13:../src/stm32f30x_exti.c ****  ===============================================================================
  14:../src/stm32f30x_exti.c ****                           ##### EXTI features #####
  15:../src/stm32f30x_exti.c ****  ===============================================================================
  16:../src/stm32f30x_exti.c ****     [..] External interrupt/event lines are mapped as following:
  17:../src/stm32f30x_exti.c ****          (#) All available GPIO pins are connected to the 16 external 
  18:../src/stm32f30x_exti.c ****              interrupt/event lines from EXTI0 to EXTI15.
  19:../src/stm32f30x_exti.c ****          (#) EXTI line 16 is connected to the PVD output
  20:../src/stm32f30x_exti.c ****          (#) EXTI line 17 is connected to the RTC Alarm event
  21:../src/stm32f30x_exti.c ****          (#) EXTI line 18 is connected to USB Device wakeup event  
  22:../src/stm32f30x_exti.c ****          (#) EXTI line 19 is connected to the RTC Tamper and TimeStamp events
  23:../src/stm32f30x_exti.c ****          (#) EXTI line 20 is connected to the RTC wakeup event  
  24:../src/stm32f30x_exti.c ****          (#) EXTI line 21 is connected to the Comparator 1 wakeup event 
  25:../src/stm32f30x_exti.c ****          (#) EXTI line 22 is connected to the Comparator 2 wakeup event
  26:../src/stm32f30x_exti.c ****          (#) EXTI line 23 is connected to the I2C1 wakeup event
  27:../src/stm32f30x_exti.c ****          (#) EXTI line 24 is connected to the I2C2 wakeup event  
  28:../src/stm32f30x_exti.c ****          (#) EXTI line 25 is connected to the USART1 wakeup event
  29:../src/stm32f30x_exti.c ****          (#) EXTI line 26 is connected to the USART2 wakeup event  
  30:../src/stm32f30x_exti.c ****          (#) EXTI line 27 is reserved
  31:../src/stm32f30x_exti.c ****          (#) EXTI line 28 is connected to the USART3 wakeup event
  32:../src/stm32f30x_exti.c ****          (#) EXTI line 29 is connected to the Comparator 3 event
  33:../src/stm32f30x_exti.c ****          (#) EXTI line 30 is connected to the Comparator 4 event
  34:../src/stm32f30x_exti.c ****          (#) EXTI line 31 is connected to the Comparator 5 event
  35:../src/stm32f30x_exti.c ****          (#) EXTI line 32 is connected to the Comparator 6 event
  36:../src/stm32f30x_exti.c ****          (#) EXTI line 33 is connected to the Comparator 7 event
  37:../src/stm32f30x_exti.c ****          (#) EXTI line 34 is connected for thr UART4 wakeup event
  38:../src/stm32f30x_exti.c ****          (#) EXTI line 35 is connected for the UART5 wakeup event               
  39:../src/stm32f30x_exti.c **** 
  40:../src/stm32f30x_exti.c ****                        ##### How to use this driver #####
  41:../src/stm32f30x_exti.c ****  ===============================================================================
  42:../src/stm32f30x_exti.c ****     [..] In order to use an I/O pin as an external interrupt source, 
  43:../src/stm32f30x_exti.c ****          follow steps below:
  44:../src/stm32f30x_exti.c ****          (#) Configure the I/O in input mode using GPIO_Init().
  45:../src/stm32f30x_exti.c ****          (#) Select the input source pin for the EXTI line using
  46:../src/stm32f30x_exti.c ****              SYSCFG_EXTILineConfig().
  47:../src/stm32f30x_exti.c ****          (#) Select the mode(interrupt, event) and configure the trigger 
  48:../src/stm32f30x_exti.c ****              selection (Rising, falling or both) using EXTI_Init(). For the 
  49:../src/stm32f30x_exti.c ****              internal interrupt, the trigger selection is not needed 
  50:../src/stm32f30x_exti.c ****              (the active edge is always the rising one).
  51:../src/stm32f30x_exti.c ****          (#) Configure NVIC IRQ channel mapped to the EXTI line using NVIC_Init().
  52:../src/stm32f30x_exti.c ****          (#) Optionally, you can generate a software interrupt using the function 
  53:../src/stm32f30x_exti.c ****              EXTI_GenerateSWInterrupt().
  54:../src/stm32f30x_exti.c ****     [..]
  55:../src/stm32f30x_exti.c ****     (@) SYSCFG APB clock must be enabled to get write access to SYSCFG_EXTICRx
  56:../src/stm32f30x_exti.c ****       registers using RCC_APB2PeriphClockCmd(RCC_APB2Periph_SYSCFG, ENABLE);
  57:../src/stm32f30x_exti.c ****                 
  58:../src/stm32f30x_exti.c ****   @endverbatim
  59:../src/stm32f30x_exti.c **** 
  60:../src/stm32f30x_exti.c ****   ******************************************************************************
  61:../src/stm32f30x_exti.c ****   * @attention
  62:../src/stm32f30x_exti.c ****   *
  63:../src/stm32f30x_exti.c ****   * <h2><center>&copy; COPYRIGHT 2012 STMicroelectronics</center></h2>
  64:../src/stm32f30x_exti.c ****   *
  65:../src/stm32f30x_exti.c ****   * Licensed under MCD-ST Liberty SW License Agreement V2, (the "License");
  66:../src/stm32f30x_exti.c ****   * You may not use this file except in compliance with the License.
  67:../src/stm32f30x_exti.c ****   * You may obtain a copy of the License at:
  68:../src/stm32f30x_exti.c ****   *
  69:../src/stm32f30x_exti.c ****   *        http://www.st.com/software_license_agreement_liberty_v2
  70:../src/stm32f30x_exti.c ****   *
  71:../src/stm32f30x_exti.c ****   * Unless required by applicable law or agreed to in writing, software 
  72:../src/stm32f30x_exti.c ****   * distributed under the License is distributed on an "AS IS" BASIS, 
  73:../src/stm32f30x_exti.c ****   * WITHOUT WARRANTIES OR CONDITIONS OF ANY KIND, either express or implied.
  74:../src/stm32f30x_exti.c ****   * See the License for the specific language governing permissions and
  75:../src/stm32f30x_exti.c ****   * limitations under the License.
  76:../src/stm32f30x_exti.c ****   *
  77:../src/stm32f30x_exti.c ****   ******************************************************************************
  78:../src/stm32f30x_exti.c ****   */
  79:../src/stm32f30x_exti.c **** 
  80:../src/stm32f30x_exti.c **** /* Includes ------------------------------------------------------------------*/
  81:../src/stm32f30x_exti.c **** #include "stm32f30x_exti.h"
  82:../src/stm32f30x_exti.c **** 
  83:../src/stm32f30x_exti.c **** /** @addtogroup STM32F30x_StdPeriph_Driver
  84:../src/stm32f30x_exti.c ****   * @{
  85:../src/stm32f30x_exti.c ****   */
  86:../src/stm32f30x_exti.c **** 
  87:../src/stm32f30x_exti.c **** /** @defgroup EXTI 
  88:../src/stm32f30x_exti.c ****   * @brief EXTI driver modules
  89:../src/stm32f30x_exti.c ****   * @{
  90:../src/stm32f30x_exti.c ****   */
  91:../src/stm32f30x_exti.c **** 
  92:../src/stm32f30x_exti.c **** 
  93:../src/stm32f30x_exti.c **** /* Private typedef -----------------------------------------------------------*/
  94:../src/stm32f30x_exti.c **** /* Private define ------------------------------------------------------------*/
  95:../src/stm32f30x_exti.c **** #define EXTI_LINENONE     ((uint32_t)0x00000)        /* No interrupt selected */
  96:../src/stm32f30x_exti.c **** 
  97:../src/stm32f30x_exti.c **** /* Private macro -------------------------------------------------------------*/
  98:../src/stm32f30x_exti.c **** /* Private variables ---------------------------------------------------------*/
  99:../src/stm32f30x_exti.c **** /* Private function prototypes -----------------------------------------------*/
 100:../src/stm32f30x_exti.c **** /* Private functions ---------------------------------------------------------*/
 101:../src/stm32f30x_exti.c **** 
 102:../src/stm32f30x_exti.c **** /** @defgroup EXTI_Private_Functions 
 103:../src/stm32f30x_exti.c ****   * @{
 104:../src/stm32f30x_exti.c ****   */
 105:../src/stm32f30x_exti.c **** 
 106:../src/stm32f30x_exti.c **** /** @defgroup EXTI_Group1 Initialization and Configuration functions
 107:../src/stm32f30x_exti.c ****  *  @brief   Initialization and Configuration functions
 108:../src/stm32f30x_exti.c ****  *
 109:../src/stm32f30x_exti.c **** @verbatim
 110:../src/stm32f30x_exti.c ****  ===============================================================================
 111:../src/stm32f30x_exti.c ****               ##### Initialization and Configuration functions #####
 112:../src/stm32f30x_exti.c ****  ===============================================================================
 113:../src/stm32f30x_exti.c **** 
 114:../src/stm32f30x_exti.c **** @endverbatim
 115:../src/stm32f30x_exti.c ****   * @{
 116:../src/stm32f30x_exti.c ****   */
 117:../src/stm32f30x_exti.c ****     
 118:../src/stm32f30x_exti.c **** /**
 119:../src/stm32f30x_exti.c ****   * @brief  Deinitializes the EXTI peripheral registers to their default reset 
 120:../src/stm32f30x_exti.c ****   *         values.
 121:../src/stm32f30x_exti.c ****   * @param  None
 122:../src/stm32f30x_exti.c ****   * @retval None
 123:../src/stm32f30x_exti.c ****   */
 124:../src/stm32f30x_exti.c **** void EXTI_DeInit(void)
 125:../src/stm32f30x_exti.c **** {
  28              		.loc 1 125 0
  29              		.cfi_startproc
  30              		@ args = 0, pretend = 0, frame = 0
  31              		@ frame_needed = 1, uses_anonymous_args = 0
  32              		@ link register save eliminated.
  33 0000 80B4     		push	{r7}
  34              	.LCFI0:
  35              		.cfi_def_cfa_offset 4
  36              		.cfi_offset 7, -4
  37 0002 00AF     		add	r7, sp, #0
  38              	.LCFI1:
  39              		.cfi_def_cfa_register 7
 126:../src/stm32f30x_exti.c ****   EXTI->IMR    = 0x1F800000;
  40              		.loc 1 126 0
  41 0004 4FF48063 		mov	r3, #1024
  42 0008 C4F20103 		movt	r3, 16385
  43 000c 4FF0FC52 		mov	r2, #528482304
  44 0010 1A60     		str	r2, [r3, #0]
 127:../src/stm32f30x_exti.c ****   EXTI->EMR    = 0x00000000;
  45              		.loc 1 127 0
  46 0012 4FF48063 		mov	r3, #1024
  47 0016 C4F20103 		movt	r3, 16385
  48 001a 4FF00002 		mov	r2, #0
  49 001e 5A60     		str	r2, [r3, #4]
 128:../src/stm32f30x_exti.c ****   EXTI->RTSR   = 0x00000000;
  50              		.loc 1 128 0
  51 0020 4FF48063 		mov	r3, #1024
  52 0024 C4F20103 		movt	r3, 16385
  53 0028 4FF00002 		mov	r2, #0
  54 002c 9A60     		str	r2, [r3, #8]
 129:../src/stm32f30x_exti.c ****   EXTI->FTSR   = 0x00000000;
  55              		.loc 1 129 0
  56 002e 4FF48063 		mov	r3, #1024
  57 0032 C4F20103 		movt	r3, 16385
  58 0036 4FF00002 		mov	r2, #0
  59 003a DA60     		str	r2, [r3, #12]
 130:../src/stm32f30x_exti.c ****   EXTI->SWIER  = 0x00000000;
  60              		.loc 1 130 0
  61 003c 4FF48063 		mov	r3, #1024
  62 0040 C4F20103 		movt	r3, 16385
  63 0044 4FF00002 		mov	r2, #0
  64 0048 1A61     		str	r2, [r3, #16]
 131:../src/stm32f30x_exti.c ****   EXTI->PR     = 0xE07FFFFF;
  65              		.loc 1 131 0
  66 004a 4FF48063 		mov	r3, #1024
  67 004e C4F20103 		movt	r3, 16385
  68 0052 6FF0FC52 		mvn	r2, #528482304
  69 0056 5A61     		str	r2, [r3, #20]
 132:../src/stm32f30x_exti.c ****   EXTI->IMR2   = 0x0000000C;
  70              		.loc 1 132 0
  71 0058 4FF48063 		mov	r3, #1024
  72 005c C4F20103 		movt	r3, 16385
  73 0060 4FF00C02 		mov	r2, #12
  74 0064 1A62     		str	r2, [r3, #32]
 133:../src/stm32f30x_exti.c ****   EXTI->EMR2   = 0x00000000;
  75              		.loc 1 133 0
  76 0066 4FF48063 		mov	r3, #1024
  77 006a C4F20103 		movt	r3, 16385
  78 006e 4FF00002 		mov	r2, #0
  79 0072 5A62     		str	r2, [r3, #36]
 134:../src/stm32f30x_exti.c ****   EXTI->RTSR2  = 0x00000000;
  80              		.loc 1 134 0
  81 0074 4FF48063 		mov	r3, #1024
  82 0078 C4F20103 		movt	r3, 16385
  83 007c 4FF00002 		mov	r2, #0
  84 0080 9A62     		str	r2, [r3, #40]
 135:../src/stm32f30x_exti.c ****   EXTI->FTSR2  = 0x00000000;
  85              		.loc 1 135 0
  86 0082 4FF48063 		mov	r3, #1024
  87 0086 C4F20103 		movt	r3, 16385
  88 008a 4FF00002 		mov	r2, #0
  89 008e DA62     		str	r2, [r3, #44]
 136:../src/stm32f30x_exti.c ****   EXTI->SWIER2 = 0x00000000;
  90              		.loc 1 136 0
  91 0090 4FF48063 		mov	r3, #1024
  92 0094 C4F20103 		movt	r3, 16385
  93 0098 4FF00002 		mov	r2, #0
  94 009c 1A63     		str	r2, [r3, #48]
 137:../src/stm32f30x_exti.c ****   EXTI->PR2    = 0x00000003;
  95              		.loc 1 137 0
  96 009e 4FF48063 		mov	r3, #1024
  97 00a2 C4F20103 		movt	r3, 16385
  98 00a6 4FF00302 		mov	r2, #3
  99 00aa 5A63     		str	r2, [r3, #52]
 138:../src/stm32f30x_exti.c **** }
 100              		.loc 1 138 0
 101 00ac BD46     		mov	sp, r7
 102 00ae 80BC     		pop	{r7}
 103 00b0 7047     		bx	lr
 104              		.cfi_endproc
 105              	.LFE111:
 107 00b2 00BF     		.align	2
 108              		.global	EXTI_Init
 109              		.thumb
 110              		.thumb_func
 112              	EXTI_Init:
 113              	.LFB112:
 139:../src/stm32f30x_exti.c **** 
 140:../src/stm32f30x_exti.c **** /**
 141:../src/stm32f30x_exti.c ****   * @brief  Initializes the EXTI peripheral according to the specified
 142:../src/stm32f30x_exti.c ****   *         parameters in the EXTI_InitStruct.
 143:../src/stm32f30x_exti.c ****   *    EXTI_Line specifies the EXTI line (EXTI0....EXTI35).
 144:../src/stm32f30x_exti.c ****   *    EXTI_Mode specifies which EXTI line is used as interrupt or an event.
 145:../src/stm32f30x_exti.c ****   *    EXTI_Trigger selects the trigger. When the trigger occurs, interrupt
 146:../src/stm32f30x_exti.c ****   *                 pending bit will be set.
 147:../src/stm32f30x_exti.c ****   *    EXTI_LineCmd controls (Enable/Disable) the EXTI line.
 148:../src/stm32f30x_exti.c ****   * @param  EXTI_InitStruct: pointer to a EXTI_InitTypeDef structure that 
 149:../src/stm32f30x_exti.c ****   *         contains the configuration information for the EXTI peripheral.
 150:../src/stm32f30x_exti.c ****   * @retval None
 151:../src/stm32f30x_exti.c ****   */
 152:../src/stm32f30x_exti.c ****   
 153:../src/stm32f30x_exti.c **** 
 154:../src/stm32f30x_exti.c **** void EXTI_Init(EXTI_InitTypeDef* EXTI_InitStruct)
 155:../src/stm32f30x_exti.c **** {
 114              		.loc 1 155 0
 115              		.cfi_startproc
 116              		@ args = 0, pretend = 0, frame = 16
 117              		@ frame_needed = 1, uses_anonymous_args = 0
 118              		@ link register save eliminated.
 119 00b4 80B4     		push	{r7}
 120              	.LCFI2:
 121              		.cfi_def_cfa_offset 4
 122              		.cfi_offset 7, -4
 123 00b6 85B0     		sub	sp, sp, #20
 124              	.LCFI3:
 125              		.cfi_def_cfa_offset 24
 126 00b8 00AF     		add	r7, sp, #0
 127              	.LCFI4:
 128              		.cfi_def_cfa_register 7
 129 00ba 7860     		str	r0, [r7, #4]
 156:../src/stm32f30x_exti.c ****   uint32_t tmp = 0;
 130              		.loc 1 156 0
 131 00bc 4FF00003 		mov	r3, #0
 132 00c0 FB60     		str	r3, [r7, #12]
 157:../src/stm32f30x_exti.c **** 
 158:../src/stm32f30x_exti.c ****   /* Check the parameters */
 159:../src/stm32f30x_exti.c ****   assert_param(IS_EXTI_MODE(EXTI_InitStruct->EXTI_Mode));
 160:../src/stm32f30x_exti.c ****   assert_param(IS_EXTI_TRIGGER(EXTI_InitStruct->EXTI_Trigger));
 161:../src/stm32f30x_exti.c ****   assert_param(IS_EXTI_LINE_ALL(EXTI_InitStruct->EXTI_Line));
 162:../src/stm32f30x_exti.c ****   assert_param(IS_FUNCTIONAL_STATE(EXTI_InitStruct->EXTI_LineCmd));
 163:../src/stm32f30x_exti.c **** 
 164:../src/stm32f30x_exti.c ****   tmp = (uint32_t)EXTI_BASE;
 133              		.loc 1 164 0
 134 00c2 4FF48063 		mov	r3, #1024
 135 00c6 C4F20103 		movt	r3, 16385
 136 00ca FB60     		str	r3, [r7, #12]
 165:../src/stm32f30x_exti.c ****       
 166:../src/stm32f30x_exti.c ****   if (EXTI_InitStruct->EXTI_LineCmd != DISABLE)
 137              		.loc 1 166 0
 138 00cc 7B68     		ldr	r3, [r7, #4]
 139 00ce 9B79     		ldrb	r3, [r3, #6]	@ zero_extendqisi2
 140 00d0 002B     		cmp	r3, #0
 141 00d2 00F01181 		beq	.L3
 167:../src/stm32f30x_exti.c ****   {
 168:../src/stm32f30x_exti.c ****     /* Clear EXTI line configuration */   
 169:../src/stm32f30x_exti.c ****     *(__IO uint32_t *) (((uint32_t) &(EXTI->IMR)) + ((EXTI_InitStruct->EXTI_Line) >> 5 ) * 0x20) &=
 142              		.loc 1 169 0
 143 00d6 7B68     		ldr	r3, [r7, #4]
 144 00d8 1B68     		ldr	r3, [r3, #0]
 145 00da 4FEA5313 		lsr	r3, r3, #5
 146 00de 03F10073 		add	r3, r3, #33554432
 147 00e2 03F50263 		add	r3, r3, #2080
 148 00e6 4FEA4313 		lsl	r3, r3, #5
 149 00ea 1A46     		mov	r2, r3
 150 00ec 7B68     		ldr	r3, [r7, #4]
 151 00ee 1B68     		ldr	r3, [r3, #0]
 152 00f0 4FEA5313 		lsr	r3, r3, #5
 153 00f4 03F10073 		add	r3, r3, #33554432
 154 00f8 03F50263 		add	r3, r3, #2080
 155 00fc 4FEA4313 		lsl	r3, r3, #5
 156 0100 1968     		ldr	r1, [r3, #0]
 157 0102 7B68     		ldr	r3, [r7, #4]
 158 0104 1B68     		ldr	r3, [r3, #0]
 159 0106 03F01F03 		and	r3, r3, #31
 160 010a 4FF00100 		mov	r0, #1
 161 010e 00FA03F3 		lsl	r3, r0, r3
 162 0112 6FEA0303 		mvn	r3, r3
 163 0116 0B40     		ands	r3, r3, r1
 164 0118 1360     		str	r3, [r2, #0]
 170:../src/stm32f30x_exti.c ****     *(__IO uint32_t *) (((uint32_t) &(EXTI->EMR)) + ((EXTI_InitStruct->EXTI_Line) >> 5 ) * 0x20) &=
 165              		.loc 1 170 0
 166 011a 7B68     		ldr	r3, [r7, #4]
 167 011c 1B68     		ldr	r3, [r3, #0]
 168 011e 4FEA5313 		lsr	r3, r3, #5
 169 0122 4FEA4312 		lsl	r2, r3, #5
 170 0126 40F20443 		movw	r3, #1028
 171 012a C4F20103 		movt	r3, 16385
 172 012e D318     		adds	r3, r2, r3
 173 0130 1A46     		mov	r2, r3
 174 0132 7B68     		ldr	r3, [r7, #4]
 175 0134 1B68     		ldr	r3, [r3, #0]
 176 0136 4FEA5313 		lsr	r3, r3, #5
 177 013a 4FEA4311 		lsl	r1, r3, #5
 178 013e 40F20443 		movw	r3, #1028
 179 0142 C4F20103 		movt	r3, 16385
 180 0146 CB18     		adds	r3, r1, r3
 181 0148 1968     		ldr	r1, [r3, #0]
 182 014a 7B68     		ldr	r3, [r7, #4]
 183 014c 1B68     		ldr	r3, [r3, #0]
 184 014e 03F01F03 		and	r3, r3, #31
 185 0152 4FF00100 		mov	r0, #1
 186 0156 00FA03F3 		lsl	r3, r0, r3
 187 015a 6FEA0303 		mvn	r3, r3
 188 015e 0B40     		ands	r3, r3, r1
 189 0160 1360     		str	r3, [r2, #0]
 171:../src/stm32f30x_exti.c ****      
 172:../src/stm32f30x_exti.c ****     tmp += EXTI_InitStruct->EXTI_Mode + (((EXTI_InitStruct->EXTI_Line) >> 5 ) * 0x20);
 190              		.loc 1 172 0
 191 0162 7B68     		ldr	r3, [r7, #4]
 192 0164 1B79     		ldrb	r3, [r3, #4]	@ zero_extendqisi2
 193 0166 1A46     		mov	r2, r3
 194 0168 7B68     		ldr	r3, [r7, #4]
 195 016a 1B68     		ldr	r3, [r3, #0]
 196 016c 4FEA5313 		lsr	r3, r3, #5
 197 0170 4FEA4313 		lsl	r3, r3, #5
 198 0174 D318     		adds	r3, r2, r3
 199 0176 FA68     		ldr	r2, [r7, #12]
 200 0178 D318     		adds	r3, r2, r3
 201 017a FB60     		str	r3, [r7, #12]
 173:../src/stm32f30x_exti.c **** 
 174:../src/stm32f30x_exti.c ****     *(__IO uint32_t *) tmp |= (uint32_t)(1 << (EXTI_InitStruct->EXTI_Line & 0x1F));
 202              		.loc 1 174 0
 203 017c FB68     		ldr	r3, [r7, #12]
 204 017e FA68     		ldr	r2, [r7, #12]
 205 0180 1168     		ldr	r1, [r2, #0]
 206 0182 7A68     		ldr	r2, [r7, #4]
 207 0184 1268     		ldr	r2, [r2, #0]
 208 0186 02F01F02 		and	r2, r2, #31
 209 018a 4FF00100 		mov	r0, #1
 210 018e 00FA02F2 		lsl	r2, r0, r2
 211 0192 0A43     		orrs	r2, r2, r1
 212 0194 1A60     		str	r2, [r3, #0]
 175:../src/stm32f30x_exti.c ****     
 176:../src/stm32f30x_exti.c ****     tmp = (uint32_t)EXTI_BASE;
 213              		.loc 1 176 0
 214 0196 4FF48063 		mov	r3, #1024
 215 019a C4F20103 		movt	r3, 16385
 216 019e FB60     		str	r3, [r7, #12]
 177:../src/stm32f30x_exti.c **** 
 178:../src/stm32f30x_exti.c ****     /* Clear Rising Falling edge configuration */
 179:../src/stm32f30x_exti.c ****     *(__IO uint32_t *) (((uint32_t) &(EXTI->RTSR)) + ((EXTI_InitStruct->EXTI_Line) >> 5 ) * 0x20) &
 217              		.loc 1 179 0
 218 01a0 7B68     		ldr	r3, [r7, #4]
 219 01a2 1B68     		ldr	r3, [r3, #0]
 220 01a4 4FEA5313 		lsr	r3, r3, #5
 221 01a8 4FEA4312 		lsl	r2, r3, #5
 222 01ac 4FF48163 		mov	r3, #1032
 223 01b0 C4F20103 		movt	r3, 16385
 224 01b4 D318     		adds	r3, r2, r3
 225 01b6 1A46     		mov	r2, r3
 226 01b8 7B68     		ldr	r3, [r7, #4]
 227 01ba 1B68     		ldr	r3, [r3, #0]
 228 01bc 4FEA5313 		lsr	r3, r3, #5
 229 01c0 4FEA4311 		lsl	r1, r3, #5
 230 01c4 4FF48163 		mov	r3, #1032
 231 01c8 C4F20103 		movt	r3, 16385
 232 01cc CB18     		adds	r3, r1, r3
 233 01ce 1968     		ldr	r1, [r3, #0]
 234 01d0 7B68     		ldr	r3, [r7, #4]
 235 01d2 1B68     		ldr	r3, [r3, #0]
 236 01d4 03F01F03 		and	r3, r3, #31
 237 01d8 4FF00100 		mov	r0, #1
 238 01dc 00FA03F3 		lsl	r3, r0, r3
 239 01e0 6FEA0303 		mvn	r3, r3
 240 01e4 0B40     		ands	r3, r3, r1
 241 01e6 1360     		str	r3, [r2, #0]
 180:../src/stm32f30x_exti.c ****     *(__IO uint32_t *) (((uint32_t) &(EXTI->FTSR)) + ((EXTI_InitStruct->EXTI_Line) >> 5 ) * 0x20) &
 242              		.loc 1 180 0
 243 01e8 7B68     		ldr	r3, [r7, #4]
 244 01ea 1B68     		ldr	r3, [r3, #0]
 245 01ec 4FEA5313 		lsr	r3, r3, #5
 246 01f0 4FEA4312 		lsl	r2, r3, #5
 247 01f4 40F20C43 		movw	r3, #1036
 248 01f8 C4F20103 		movt	r3, 16385
 249 01fc D318     		adds	r3, r2, r3
 250 01fe 1A46     		mov	r2, r3
 251 0200 7B68     		ldr	r3, [r7, #4]
 252 0202 1B68     		ldr	r3, [r3, #0]
 253 0204 4FEA5313 		lsr	r3, r3, #5
 254 0208 4FEA4311 		lsl	r1, r3, #5
 255 020c 40F20C43 		movw	r3, #1036
 256 0210 C4F20103 		movt	r3, 16385
 257 0214 CB18     		adds	r3, r1, r3
 258 0216 1968     		ldr	r1, [r3, #0]
 259 0218 7B68     		ldr	r3, [r7, #4]
 260 021a 1B68     		ldr	r3, [r3, #0]
 261 021c 03F01F03 		and	r3, r3, #31
 262 0220 4FF00100 		mov	r0, #1
 263 0224 00FA03F3 		lsl	r3, r0, r3
 264 0228 6FEA0303 		mvn	r3, r3
 265 022c 0B40     		ands	r3, r3, r1
 266 022e 1360     		str	r3, [r2, #0]
 181:../src/stm32f30x_exti.c ****     
 182:../src/stm32f30x_exti.c ****       /* Select the trigger for the selected interrupts */
 183:../src/stm32f30x_exti.c ****     if (EXTI_InitStruct->EXTI_Trigger == EXTI_Trigger_Rising_Falling)
 267              		.loc 1 183 0
 268 0230 7B68     		ldr	r3, [r7, #4]
 269 0232 5B79     		ldrb	r3, [r3, #5]	@ zero_extendqisi2
 270 0234 102B     		cmp	r3, #16
 271 0236 44D1     		bne	.L4
 184:../src/stm32f30x_exti.c ****     {
 185:../src/stm32f30x_exti.c ****       /* Rising Falling edge */
 186:../src/stm32f30x_exti.c ****     *(__IO uint32_t *) (((uint32_t) &(EXTI->RTSR)) + ((EXTI_InitStruct->EXTI_Line) >> 5 ) * 0x20) |
 272              		.loc 1 186 0
 273 0238 7B68     		ldr	r3, [r7, #4]
 274 023a 1B68     		ldr	r3, [r3, #0]
 275 023c 4FEA5313 		lsr	r3, r3, #5
 276 0240 4FEA4312 		lsl	r2, r3, #5
 277 0244 4FF48163 		mov	r3, #1032
 278 0248 C4F20103 		movt	r3, 16385
 279 024c D318     		adds	r3, r2, r3
 280 024e 1A46     		mov	r2, r3
 281 0250 7B68     		ldr	r3, [r7, #4]
 282 0252 1B68     		ldr	r3, [r3, #0]
 283 0254 4FEA5313 		lsr	r3, r3, #5
 284 0258 4FEA4311 		lsl	r1, r3, #5
 285 025c 4FF48163 		mov	r3, #1032
 286 0260 C4F20103 		movt	r3, 16385
 287 0264 CB18     		adds	r3, r1, r3
 288 0266 1968     		ldr	r1, [r3, #0]
 289 0268 7B68     		ldr	r3, [r7, #4]
 290 026a 1B68     		ldr	r3, [r3, #0]
 291 026c 03F01F03 		and	r3, r3, #31
 292 0270 4FF00100 		mov	r0, #1
 293 0274 00FA03F3 		lsl	r3, r0, r3
 294 0278 0B43     		orrs	r3, r3, r1
 295 027a 1360     		str	r3, [r2, #0]
 187:../src/stm32f30x_exti.c ****     *(__IO uint32_t *) (((uint32_t) &(EXTI->FTSR)) + ((EXTI_InitStruct->EXTI_Line) >> 5 ) * 0x20) |
 296              		.loc 1 187 0
 297 027c 7B68     		ldr	r3, [r7, #4]
 298 027e 1B68     		ldr	r3, [r3, #0]
 299 0280 4FEA5313 		lsr	r3, r3, #5
 300 0284 4FEA4312 		lsl	r2, r3, #5
 301 0288 40F20C43 		movw	r3, #1036
 302 028c C4F20103 		movt	r3, 16385
 303 0290 D318     		adds	r3, r2, r3
 304 0292 1A46     		mov	r2, r3
 305 0294 7B68     		ldr	r3, [r7, #4]
 306 0296 1B68     		ldr	r3, [r3, #0]
 307 0298 4FEA5313 		lsr	r3, r3, #5
 308 029c 4FEA4311 		lsl	r1, r3, #5
 309 02a0 40F20C43 		movw	r3, #1036
 310 02a4 C4F20103 		movt	r3, 16385
 311 02a8 CB18     		adds	r3, r1, r3
 312 02aa 1968     		ldr	r1, [r3, #0]
 313 02ac 7B68     		ldr	r3, [r7, #4]
 314 02ae 1B68     		ldr	r3, [r3, #0]
 315 02b0 03F01F03 		and	r3, r3, #31
 316 02b4 4FF00100 		mov	r0, #1
 317 02b8 00FA03F3 		lsl	r3, r0, r3
 318 02bc 0B43     		orrs	r3, r3, r1
 319 02be 1360     		str	r3, [r2, #0]
 320 02c0 36E0     		b	.L2
 321              	.L4:
 188:../src/stm32f30x_exti.c ****     }
 189:../src/stm32f30x_exti.c ****     else
 190:../src/stm32f30x_exti.c ****     {
 191:../src/stm32f30x_exti.c ****       tmp += EXTI_InitStruct->EXTI_Trigger + (((EXTI_InitStruct->EXTI_Line) >> 5 ) * 0x20);
 322              		.loc 1 191 0
 323 02c2 7B68     		ldr	r3, [r7, #4]
 324 02c4 5B79     		ldrb	r3, [r3, #5]	@ zero_extendqisi2
 325 02c6 1A46     		mov	r2, r3
 326 02c8 7B68     		ldr	r3, [r7, #4]
 327 02ca 1B68     		ldr	r3, [r3, #0]
 328 02cc 4FEA5313 		lsr	r3, r3, #5
 329 02d0 4FEA4313 		lsl	r3, r3, #5
 330 02d4 D318     		adds	r3, r2, r3
 331 02d6 FA68     		ldr	r2, [r7, #12]
 332 02d8 D318     		adds	r3, r2, r3
 333 02da FB60     		str	r3, [r7, #12]
 192:../src/stm32f30x_exti.c **** 
 193:../src/stm32f30x_exti.c ****       *(__IO uint32_t *) tmp |= (uint32_t)(1 << (EXTI_InitStruct->EXTI_Line & 0x1F));
 334              		.loc 1 193 0
 335 02dc FB68     		ldr	r3, [r7, #12]
 336 02de FA68     		ldr	r2, [r7, #12]
 337 02e0 1168     		ldr	r1, [r2, #0]
 338 02e2 7A68     		ldr	r2, [r7, #4]
 339 02e4 1268     		ldr	r2, [r2, #0]
 340 02e6 02F01F02 		and	r2, r2, #31
 341 02ea 4FF00100 		mov	r0, #1
 342 02ee 00FA02F2 		lsl	r2, r0, r2
 343 02f2 0A43     		orrs	r2, r2, r1
 344 02f4 1A60     		str	r2, [r3, #0]
 345 02f6 1BE0     		b	.L2
 346              	.L3:
 194:../src/stm32f30x_exti.c ****     }
 195:../src/stm32f30x_exti.c ****   }
 196:../src/stm32f30x_exti.c ****       
 197:../src/stm32f30x_exti.c ****   else
 198:../src/stm32f30x_exti.c ****   {
 199:../src/stm32f30x_exti.c ****     tmp += EXTI_InitStruct->EXTI_Mode + (((EXTI_InitStruct->EXTI_Line) >> 5 ) * 0x20);
 347              		.loc 1 199 0
 348 02f8 7B68     		ldr	r3, [r7, #4]
 349 02fa 1B79     		ldrb	r3, [r3, #4]	@ zero_extendqisi2
 350 02fc 1A46     		mov	r2, r3
 351 02fe 7B68     		ldr	r3, [r7, #4]
 352 0300 1B68     		ldr	r3, [r3, #0]
 353 0302 4FEA5313 		lsr	r3, r3, #5
 354 0306 4FEA4313 		lsl	r3, r3, #5
 355 030a D318     		adds	r3, r2, r3
 356 030c FA68     		ldr	r2, [r7, #12]
 357 030e D318     		adds	r3, r2, r3
 358 0310 FB60     		str	r3, [r7, #12]
 200:../src/stm32f30x_exti.c **** 
 201:../src/stm32f30x_exti.c ****     /* Disable the selected external lines */
 202:../src/stm32f30x_exti.c ****     *(__IO uint32_t *) tmp &= ~(uint32_t)(1 << (EXTI_InitStruct->EXTI_Line & 0x1F));
 359              		.loc 1 202 0
 360 0312 FB68     		ldr	r3, [r7, #12]
 361 0314 FA68     		ldr	r2, [r7, #12]
 362 0316 1168     		ldr	r1, [r2, #0]
 363 0318 7A68     		ldr	r2, [r7, #4]
 364 031a 1268     		ldr	r2, [r2, #0]
 365 031c 02F01F02 		and	r2, r2, #31
 366 0320 4FF00100 		mov	r0, #1
 367 0324 00FA02F2 		lsl	r2, r0, r2
 368 0328 6FEA0202 		mvn	r2, r2
 369 032c 0A40     		ands	r2, r2, r1
 370 032e 1A60     		str	r2, [r3, #0]
 371              	.L2:
 203:../src/stm32f30x_exti.c ****   }
 204:../src/stm32f30x_exti.c ****          
 205:../src/stm32f30x_exti.c **** }
 372              		.loc 1 205 0
 373 0330 07F11407 		add	r7, r7, #20
 374 0334 BD46     		mov	sp, r7
 375 0336 80BC     		pop	{r7}
 376 0338 7047     		bx	lr
 377              		.cfi_endproc
 378              	.LFE112:
 380 033a 00BF     		.align	2
 381              		.global	EXTI_StructInit
 382              		.thumb
 383              		.thumb_func
 385              	EXTI_StructInit:
 386              	.LFB113:
 206:../src/stm32f30x_exti.c **** 
 207:../src/stm32f30x_exti.c **** /**
 208:../src/stm32f30x_exti.c ****   * @brief  Fills each EXTI_InitStruct member with its reset value.
 209:../src/stm32f30x_exti.c ****   * @param  EXTI_InitStruct: pointer to a EXTI_InitTypeDef structure which will
 210:../src/stm32f30x_exti.c ****   *         be initialized.
 211:../src/stm32f30x_exti.c ****   * @retval None
 212:../src/stm32f30x_exti.c ****   */
 213:../src/stm32f30x_exti.c **** void EXTI_StructInit(EXTI_InitTypeDef* EXTI_InitStruct)
 214:../src/stm32f30x_exti.c **** {
 387              		.loc 1 214 0
 388              		.cfi_startproc
 389              		@ args = 0, pretend = 0, frame = 8
 390              		@ frame_needed = 1, uses_anonymous_args = 0
 391              		@ link register save eliminated.
 392 033c 80B4     		push	{r7}
 393              	.LCFI5:
 394              		.cfi_def_cfa_offset 4
 395              		.cfi_offset 7, -4
 396 033e 83B0     		sub	sp, sp, #12
 397              	.LCFI6:
 398              		.cfi_def_cfa_offset 16
 399 0340 00AF     		add	r7, sp, #0
 400              	.LCFI7:
 401              		.cfi_def_cfa_register 7
 402 0342 7860     		str	r0, [r7, #4]
 215:../src/stm32f30x_exti.c ****   EXTI_InitStruct->EXTI_Line = EXTI_LINENONE;
 403              		.loc 1 215 0
 404 0344 7B68     		ldr	r3, [r7, #4]
 405 0346 4FF00002 		mov	r2, #0
 406 034a 1A60     		str	r2, [r3, #0]
 216:../src/stm32f30x_exti.c ****   EXTI_InitStruct->EXTI_Mode = EXTI_Mode_Interrupt;
 407              		.loc 1 216 0
 408 034c 7B68     		ldr	r3, [r7, #4]
 409 034e 4FF00002 		mov	r2, #0
 410 0352 1A71     		strb	r2, [r3, #4]
 217:../src/stm32f30x_exti.c ****   EXTI_InitStruct->EXTI_Trigger = EXTI_Trigger_Rising_Falling;
 411              		.loc 1 217 0
 412 0354 7B68     		ldr	r3, [r7, #4]
 413 0356 4FF01002 		mov	r2, #16
 414 035a 5A71     		strb	r2, [r3, #5]
 218:../src/stm32f30x_exti.c ****   EXTI_InitStruct->EXTI_LineCmd = DISABLE;
 415              		.loc 1 218 0
 416 035c 7B68     		ldr	r3, [r7, #4]
 417 035e 4FF00002 		mov	r2, #0
 418 0362 9A71     		strb	r2, [r3, #6]
 219:../src/stm32f30x_exti.c **** }
 419              		.loc 1 219 0
 420 0364 07F10C07 		add	r7, r7, #12
 421 0368 BD46     		mov	sp, r7
 422 036a 80BC     		pop	{r7}
 423 036c 7047     		bx	lr
 424              		.cfi_endproc
 425              	.LFE113:
 427 036e 00BF     		.align	2
 428              		.global	EXTI_GenerateSWInterrupt
 429              		.thumb
 430              		.thumb_func
 432              	EXTI_GenerateSWInterrupt:
 433              	.LFB114:
 220:../src/stm32f30x_exti.c **** 
 221:../src/stm32f30x_exti.c **** /**
 222:../src/stm32f30x_exti.c ****   * @brief  Generates a Software interrupt on selected EXTI line.
 223:../src/stm32f30x_exti.c ****   * @param  EXTI_Line: specifies the EXTI line on which the software interrupt
 224:../src/stm32f30x_exti.c ****   *         will be generated.
 225:../src/stm32f30x_exti.c ****   *   This parameter can be any combination of EXTI_Linex where x can be (0..20).
 226:../src/stm32f30x_exti.c ****   * @retval None
 227:../src/stm32f30x_exti.c ****   */
 228:../src/stm32f30x_exti.c **** void EXTI_GenerateSWInterrupt(uint32_t EXTI_Line)
 229:../src/stm32f30x_exti.c **** {
 434              		.loc 1 229 0
 435              		.cfi_startproc
 436              		@ args = 0, pretend = 0, frame = 8
 437              		@ frame_needed = 1, uses_anonymous_args = 0
 438              		@ link register save eliminated.
 439 0370 80B4     		push	{r7}
 440              	.LCFI8:
 441              		.cfi_def_cfa_offset 4
 442              		.cfi_offset 7, -4
 443 0372 83B0     		sub	sp, sp, #12
 444              	.LCFI9:
 445              		.cfi_def_cfa_offset 16
 446 0374 00AF     		add	r7, sp, #0
 447              	.LCFI10:
 448              		.cfi_def_cfa_register 7
 449 0376 7860     		str	r0, [r7, #4]
 230:../src/stm32f30x_exti.c ****   /* Check the parameters */
 231:../src/stm32f30x_exti.c ****   assert_param(IS_EXTI_LINE_EXT(EXTI_Line));
 232:../src/stm32f30x_exti.c **** 
 233:../src/stm32f30x_exti.c ****   *(__IO uint32_t *) (((uint32_t) &(EXTI->SWIER)) + ((EXTI_Line) >> 5 ) * 0x20) |= (uint32_t)(1 << 
 450              		.loc 1 233 0
 451 0378 7B68     		ldr	r3, [r7, #4]
 452 037a 4FEA5313 		lsr	r3, r3, #5
 453 037e 4FEA4312 		lsl	r2, r3, #5
 454 0382 4FF48263 		mov	r3, #1040
 455 0386 C4F20103 		movt	r3, 16385
 456 038a D318     		adds	r3, r2, r3
 457 038c 1A46     		mov	r2, r3
 458 038e 7B68     		ldr	r3, [r7, #4]
 459 0390 4FEA5313 		lsr	r3, r3, #5
 460 0394 4FEA4311 		lsl	r1, r3, #5
 461 0398 4FF48263 		mov	r3, #1040
 462 039c C4F20103 		movt	r3, 16385
 463 03a0 CB18     		adds	r3, r1, r3
 464 03a2 1968     		ldr	r1, [r3, #0]
 465 03a4 7B68     		ldr	r3, [r7, #4]
 466 03a6 03F01F03 		and	r3, r3, #31
 467 03aa 4FF00100 		mov	r0, #1
 468 03ae 00FA03F3 		lsl	r3, r0, r3
 469 03b2 0B43     		orrs	r3, r3, r1
 470 03b4 1360     		str	r3, [r2, #0]
 234:../src/stm32f30x_exti.c **** 
 235:../src/stm32f30x_exti.c **** }
 471              		.loc 1 235 0
 472 03b6 07F10C07 		add	r7, r7, #12
 473 03ba BD46     		mov	sp, r7
 474 03bc 80BC     		pop	{r7}
 475 03be 7047     		bx	lr
 476              		.cfi_endproc
 477              	.LFE114:
 479              		.align	2
 480              		.global	EXTI_GetFlagStatus
 481              		.thumb
 482              		.thumb_func
 484              	EXTI_GetFlagStatus:
 485              	.LFB115:
 236:../src/stm32f30x_exti.c **** 
 237:../src/stm32f30x_exti.c **** /**
 238:../src/stm32f30x_exti.c ****   * @}
 239:../src/stm32f30x_exti.c ****   */
 240:../src/stm32f30x_exti.c ****   
 241:../src/stm32f30x_exti.c **** /** @defgroup EXTI_Group2 Interrupts and flags management functions
 242:../src/stm32f30x_exti.c ****  *  @brief    EXTI Interrupts and flags management functions
 243:../src/stm32f30x_exti.c ****  *
 244:../src/stm32f30x_exti.c **** @verbatim  
 245:../src/stm32f30x_exti.c ****  ===============================================================================
 246:../src/stm32f30x_exti.c ****               ##### Interrupts and flags management functions #####
 247:../src/stm32f30x_exti.c ****  ===============================================================================
 248:../src/stm32f30x_exti.c ****     [..]
 249:../src/stm32f30x_exti.c ****     This section provides functions allowing to configure the EXTI Interrupts 
 250:../src/stm32f30x_exti.c ****     sources and check or clear the flags or pending bits status.
 251:../src/stm32f30x_exti.c ****     
 252:../src/stm32f30x_exti.c **** @endverbatim
 253:../src/stm32f30x_exti.c ****   * @{
 254:../src/stm32f30x_exti.c ****   */
 255:../src/stm32f30x_exti.c **** 
 256:../src/stm32f30x_exti.c **** /**
 257:../src/stm32f30x_exti.c ****   * @brief  Checks whether the specified EXTI line flag is set or not.
 258:../src/stm32f30x_exti.c ****   * @param  EXTI_Line: specifies the EXTI line flag to check.
 259:../src/stm32f30x_exti.c ****   *   This parameter can be any combination of EXTI_Linex where x can be (0..20).
 260:../src/stm32f30x_exti.c ****   * @retval The new state of EXTI_Line (SET or RESET).                  
 261:../src/stm32f30x_exti.c ****   */
 262:../src/stm32f30x_exti.c **** FlagStatus EXTI_GetFlagStatus(uint32_t EXTI_Line)
 263:../src/stm32f30x_exti.c **** {
 486              		.loc 1 263 0
 487              		.cfi_startproc
 488              		@ args = 0, pretend = 0, frame = 16
 489              		@ frame_needed = 1, uses_anonymous_args = 0
 490              		@ link register save eliminated.
 491 03c0 80B4     		push	{r7}
 492              	.LCFI11:
 493              		.cfi_def_cfa_offset 4
 494              		.cfi_offset 7, -4
 495 03c2 85B0     		sub	sp, sp, #20
 496              	.LCFI12:
 497              		.cfi_def_cfa_offset 24
 498 03c4 00AF     		add	r7, sp, #0
 499              	.LCFI13:
 500              		.cfi_def_cfa_register 7
 501 03c6 7860     		str	r0, [r7, #4]
 264:../src/stm32f30x_exti.c ****   FlagStatus bitstatus = RESET;
 502              		.loc 1 264 0
 503 03c8 4FF00003 		mov	r3, #0
 504 03cc FB73     		strb	r3, [r7, #15]
 265:../src/stm32f30x_exti.c ****   
 266:../src/stm32f30x_exti.c ****   /* Check the parameters */
 267:../src/stm32f30x_exti.c ****   assert_param(IS_GET_EXTI_LINE(EXTI_Line));
 268:../src/stm32f30x_exti.c ****    
 269:../src/stm32f30x_exti.c ****   if ((*(__IO uint32_t *) (((uint32_t) &(EXTI->PR)) + ((EXTI_Line) >> 5 ) * 0x20)& (uint32_t)(1 << 
 505              		.loc 1 269 0
 506 03ce 7B68     		ldr	r3, [r7, #4]
 507 03d0 4FEA5313 		lsr	r3, r3, #5
 508 03d4 4FEA4312 		lsl	r2, r3, #5
 509 03d8 40F21443 		movw	r3, #1044
 510 03dc C4F20103 		movt	r3, 16385
 511 03e0 D318     		adds	r3, r2, r3
 512 03e2 1A68     		ldr	r2, [r3, #0]
 513 03e4 7B68     		ldr	r3, [r7, #4]
 514 03e6 03F01F03 		and	r3, r3, #31
 515 03ea 4FF00101 		mov	r1, #1
 516 03ee 01FA03F3 		lsl	r3, r1, r3
 517 03f2 1340     		ands	r3, r3, r2
 518 03f4 002B     		cmp	r3, #0
 519 03f6 03D0     		beq	.L9
 270:../src/stm32f30x_exti.c ****   {
 271:../src/stm32f30x_exti.c ****     bitstatus = SET;
 520              		.loc 1 271 0
 521 03f8 4FF00103 		mov	r3, #1
 522 03fc FB73     		strb	r3, [r7, #15]
 523 03fe 02E0     		b	.L10
 524              	.L9:
 272:../src/stm32f30x_exti.c ****   }
 273:../src/stm32f30x_exti.c ****   else
 274:../src/stm32f30x_exti.c ****   {
 275:../src/stm32f30x_exti.c ****     bitstatus = RESET;
 525              		.loc 1 275 0
 526 0400 4FF00003 		mov	r3, #0
 527 0404 FB73     		strb	r3, [r7, #15]
 528              	.L10:
 276:../src/stm32f30x_exti.c ****   }
 277:../src/stm32f30x_exti.c ****   return bitstatus;
 529              		.loc 1 277 0
 530 0406 FB7B     		ldrb	r3, [r7, #15]	@ zero_extendqisi2
 278:../src/stm32f30x_exti.c **** }
 531              		.loc 1 278 0
 532 0408 1846     		mov	r0, r3
 533 040a 07F11407 		add	r7, r7, #20
 534 040e BD46     		mov	sp, r7
 535 0410 80BC     		pop	{r7}
 536 0412 7047     		bx	lr
 537              		.cfi_endproc
 538              	.LFE115:
 540              		.align	2
 541              		.global	EXTI_ClearFlag
 542              		.thumb
 543              		.thumb_func
 545              	EXTI_ClearFlag:
 546              	.LFB116:
 279:../src/stm32f30x_exti.c **** 
 280:../src/stm32f30x_exti.c **** /**
 281:../src/stm32f30x_exti.c ****   * @brief  Clears the EXTI's line pending flags.
 282:../src/stm32f30x_exti.c ****   * @param  EXTI_Line: specifies the EXTI lines flags to clear.
 283:../src/stm32f30x_exti.c ****   *   This parameter can be any combination of EXTI_Linex where x can be (0..20).
 284:../src/stm32f30x_exti.c ****   * @retval None
 285:../src/stm32f30x_exti.c ****   */
 286:../src/stm32f30x_exti.c **** void EXTI_ClearFlag(uint32_t EXTI_Line)
 287:../src/stm32f30x_exti.c **** {
 547              		.loc 1 287 0
 548              		.cfi_startproc
 549              		@ args = 0, pretend = 0, frame = 8
 550              		@ frame_needed = 1, uses_anonymous_args = 0
 551              		@ link register save eliminated.
 552 0414 80B4     		push	{r7}
 553              	.LCFI14:
 554              		.cfi_def_cfa_offset 4
 555              		.cfi_offset 7, -4
 556 0416 83B0     		sub	sp, sp, #12
 557              	.LCFI15:
 558              		.cfi_def_cfa_offset 16
 559 0418 00AF     		add	r7, sp, #0
 560              	.LCFI16:
 561              		.cfi_def_cfa_register 7
 562 041a 7860     		str	r0, [r7, #4]
 288:../src/stm32f30x_exti.c ****   /* Check the parameters */
 289:../src/stm32f30x_exti.c ****   assert_param(IS_EXTI_LINE_EXT(EXTI_Line));
 290:../src/stm32f30x_exti.c **** 
 291:../src/stm32f30x_exti.c ****   *(__IO uint32_t *) (((uint32_t) &(EXTI->PR)) + ((EXTI_Line) >> 5 ) * 0x20) = (1 << (EXTI_Line & 0
 563              		.loc 1 291 0
 564 041c 7B68     		ldr	r3, [r7, #4]
 565 041e 4FEA5313 		lsr	r3, r3, #5
 566 0422 4FEA4312 		lsl	r2, r3, #5
 567 0426 40F21443 		movw	r3, #1044
 568 042a C4F20103 		movt	r3, 16385
 569 042e D318     		adds	r3, r2, r3
 570 0430 7A68     		ldr	r2, [r7, #4]
 571 0432 02F01F02 		and	r2, r2, #31
 572 0436 4FF00101 		mov	r1, #1
 573 043a 01FA02F2 		lsl	r2, r1, r2
 574 043e 1A60     		str	r2, [r3, #0]
 292:../src/stm32f30x_exti.c **** }
 575              		.loc 1 292 0
 576 0440 07F10C07 		add	r7, r7, #12
 577 0444 BD46     		mov	sp, r7
 578 0446 80BC     		pop	{r7}
 579 0448 7047     		bx	lr
 580              		.cfi_endproc
 581              	.LFE116:
 583 044a 00BF     		.align	2
 584              		.global	EXTI_GetITStatus
 585              		.thumb
 586              		.thumb_func
 588              	EXTI_GetITStatus:
 589              	.LFB117:
 293:../src/stm32f30x_exti.c **** 
 294:../src/stm32f30x_exti.c **** /**
 295:../src/stm32f30x_exti.c ****   * @brief  Checks whether the specified EXTI line is asserted or not.
 296:../src/stm32f30x_exti.c ****   * @param  EXTI_Line: specifies the EXTI line to check.
 297:../src/stm32f30x_exti.c ****   *   This parameter can be any combination of EXTI_Linex where x can be (0..20).
 298:../src/stm32f30x_exti.c ****   * @retval The new state of EXTI_Line (SET or RESET).
 299:../src/stm32f30x_exti.c ****   */
 300:../src/stm32f30x_exti.c **** ITStatus EXTI_GetITStatus(uint32_t EXTI_Line)
 301:../src/stm32f30x_exti.c **** {
 590              		.loc 1 301 0
 591              		.cfi_startproc
 592              		@ args = 0, pretend = 0, frame = 16
 593              		@ frame_needed = 1, uses_anonymous_args = 0
 594              		@ link register save eliminated.
 595 044c 80B4     		push	{r7}
 596              	.LCFI17:
 597              		.cfi_def_cfa_offset 4
 598              		.cfi_offset 7, -4
 599 044e 85B0     		sub	sp, sp, #20
 600              	.LCFI18:
 601              		.cfi_def_cfa_offset 24
 602 0450 00AF     		add	r7, sp, #0
 603              	.LCFI19:
 604              		.cfi_def_cfa_register 7
 605 0452 7860     		str	r0, [r7, #4]
 302:../src/stm32f30x_exti.c ****   ITStatus bitstatus = RESET;
 606              		.loc 1 302 0
 607 0454 4FF00003 		mov	r3, #0
 608 0458 FB73     		strb	r3, [r7, #15]
 303:../src/stm32f30x_exti.c ****   uint32_t enablestatus = 0;
 609              		.loc 1 303 0
 610 045a 4FF00003 		mov	r3, #0
 611 045e BB60     		str	r3, [r7, #8]
 304:../src/stm32f30x_exti.c ****   
 305:../src/stm32f30x_exti.c ****   /* Check the parameters */
 306:../src/stm32f30x_exti.c ****   assert_param(IS_GET_EXTI_LINE(EXTI_Line));
 307:../src/stm32f30x_exti.c ****   
 308:../src/stm32f30x_exti.c ****   enablestatus =  *(__IO uint32_t *) (((uint32_t) &(EXTI->IMR)) + ((EXTI_Line) >> 5 ) * 0x20) & (ui
 612              		.loc 1 308 0
 613 0460 7B68     		ldr	r3, [r7, #4]
 614 0462 4FEA5313 		lsr	r3, r3, #5
 615 0466 03F10073 		add	r3, r3, #33554432
 616 046a 03F50263 		add	r3, r3, #2080
 617 046e 4FEA4313 		lsl	r3, r3, #5
 618 0472 1A68     		ldr	r2, [r3, #0]
 619 0474 7B68     		ldr	r3, [r7, #4]
 620 0476 03F01F03 		and	r3, r3, #31
 621 047a 4FF00101 		mov	r1, #1
 622 047e 01FA03F3 		lsl	r3, r1, r3
 623 0482 1340     		ands	r3, r3, r2
 624 0484 BB60     		str	r3, [r7, #8]
 309:../src/stm32f30x_exti.c ****  
 310:../src/stm32f30x_exti.c ****   if ( (((*(__IO uint32_t *) (((uint32_t) &(EXTI->PR)) + (((EXTI_Line) >> 5 ) * 0x20) )) & (uint32_
 625              		.loc 1 310 0
 626 0486 7B68     		ldr	r3, [r7, #4]
 627 0488 4FEA5313 		lsr	r3, r3, #5
 628 048c 4FEA4312 		lsl	r2, r3, #5
 629 0490 40F21443 		movw	r3, #1044
 630 0494 C4F20103 		movt	r3, 16385
 631 0498 D318     		adds	r3, r2, r3
 632 049a 1A68     		ldr	r2, [r3, #0]
 633 049c 7B68     		ldr	r3, [r7, #4]
 634 049e 03F01F03 		and	r3, r3, #31
 635 04a2 4FF00101 		mov	r1, #1
 636 04a6 01FA03F3 		lsl	r3, r1, r3
 637 04aa 1340     		ands	r3, r3, r2
 638 04ac 002B     		cmp	r3, #0
 639 04ae 06D0     		beq	.L14
 640              		.loc 1 310 0 is_stmt 0 discriminator 1
 641 04b0 BB68     		ldr	r3, [r7, #8]
 642 04b2 002B     		cmp	r3, #0
 643 04b4 03D0     		beq	.L14
 311:../src/stm32f30x_exti.c ****   {
 312:../src/stm32f30x_exti.c ****     bitstatus = SET;
 644              		.loc 1 312 0 is_stmt 1
 645 04b6 4FF00103 		mov	r3, #1
 646 04ba FB73     		strb	r3, [r7, #15]
 647 04bc 02E0     		b	.L15
 648              	.L14:
 313:../src/stm32f30x_exti.c ****   }
 314:../src/stm32f30x_exti.c ****   else
 315:../src/stm32f30x_exti.c ****   {
 316:../src/stm32f30x_exti.c ****     bitstatus = RESET;
 649              		.loc 1 316 0
 650 04be 4FF00003 		mov	r3, #0
 651 04c2 FB73     		strb	r3, [r7, #15]
 652              	.L15:
 317:../src/stm32f30x_exti.c ****   }
 318:../src/stm32f30x_exti.c ****   return bitstatus;
 653              		.loc 1 318 0
 654 04c4 FB7B     		ldrb	r3, [r7, #15]	@ zero_extendqisi2
 319:../src/stm32f30x_exti.c ****   
 320:../src/stm32f30x_exti.c **** }
 655              		.loc 1 320 0
 656 04c6 1846     		mov	r0, r3
 657 04c8 07F11407 		add	r7, r7, #20
 658 04cc BD46     		mov	sp, r7
 659 04ce 80BC     		pop	{r7}
 660 04d0 7047     		bx	lr
 661              		.cfi_endproc
 662              	.LFE117:
 664 04d2 00BF     		.align	2
 665              		.global	EXTI_ClearITPendingBit
 666              		.thumb
 667              		.thumb_func
 669              	EXTI_ClearITPendingBit:
 670              	.LFB118:
 321:../src/stm32f30x_exti.c **** 
 322:../src/stm32f30x_exti.c **** /**
 323:../src/stm32f30x_exti.c ****   * @brief  Clears the EXTI's line pending bits.
 324:../src/stm32f30x_exti.c ****   * @param  EXTI_Line: specifies the EXTI lines to clear.
 325:../src/stm32f30x_exti.c ****   *   This parameter can be any combination of EXTI_Linex where x can be (0..20).
 326:../src/stm32f30x_exti.c ****   * @retval None
 327:../src/stm32f30x_exti.c ****   */
 328:../src/stm32f30x_exti.c **** void EXTI_ClearITPendingBit(uint32_t EXTI_Line)
 329:../src/stm32f30x_exti.c **** {
 671              		.loc 1 329 0
 672              		.cfi_startproc
 673              		@ args = 0, pretend = 0, frame = 8
 674              		@ frame_needed = 1, uses_anonymous_args = 0
 675              		@ link register save eliminated.
 676 04d4 80B4     		push	{r7}
 677              	.LCFI20:
 678              		.cfi_def_cfa_offset 4
 679              		.cfi_offset 7, -4
 680 04d6 83B0     		sub	sp, sp, #12
 681              	.LCFI21:
 682              		.cfi_def_cfa_offset 16
 683 04d8 00AF     		add	r7, sp, #0
 684              	.LCFI22:
 685              		.cfi_def_cfa_register 7
 686 04da 7860     		str	r0, [r7, #4]
 330:../src/stm32f30x_exti.c ****   /* Check the parameters */
 331:../src/stm32f30x_exti.c ****   assert_param(IS_EXTI_LINE_EXT(EXTI_Line));
 332:../src/stm32f30x_exti.c ****   
 333:../src/stm32f30x_exti.c ****   *(__IO uint32_t *) (((uint32_t) &(EXTI->PR)) + ((EXTI_Line) >> 5 ) * 0x20) = (1 << (EXTI_Line & 0
 687              		.loc 1 333 0
 688 04dc 7B68     		ldr	r3, [r7, #4]
 689 04de 4FEA5313 		lsr	r3, r3, #5
 690 04e2 4FEA4312 		lsl	r2, r3, #5
 691 04e6 40F21443 		movw	r3, #1044
 692 04ea C4F20103 		movt	r3, 16385
 693 04ee D318     		adds	r3, r2, r3
 694 04f0 7A68     		ldr	r2, [r7, #4]
 695 04f2 02F01F02 		and	r2, r2, #31
 696 04f6 4FF00101 		mov	r1, #1
 697 04fa 01FA02F2 		lsl	r2, r1, r2
 698 04fe 1A60     		str	r2, [r3, #0]
 334:../src/stm32f30x_exti.c **** }
 699              		.loc 1 334 0
 700 0500 07F10C07 		add	r7, r7, #12
 701 0504 BD46     		mov	sp, r7
 702 0506 80BC     		pop	{r7}
 703 0508 7047     		bx	lr
 704              		.cfi_endproc
 705              	.LFE118:
 707              	.Letext0:
 708              		.file 2 "/home/aghosh01/gcc-arm-none-eabi-4_7-2012q4/bin/../lib/gcc/arm-none-eabi/4.7.3/../../../.
 709              		.file 3 "/home/aghosh01/git/Trinity2013/STM32F3x/inc/stm32f30x.h"
 710              		.file 4 "/home/aghosh01/git/Trinity2013/STM32F3x/inc/stm32f30x_exti.h"
 711              		.file 5 "/home/aghosh01/git/Trinity2013/STM32F3x/inc/core_cm4.h"