   1              		.syntax unified
   2              		.cpu cortex-m4
   3              		.eabi_attribute 27, 3
   4              		.fpu fpv4-sp-d16
   5              		.eabi_attribute 20, 1
   6              		.eabi_attribute 21, 1
   7              		.eabi_attribute 23, 3
   8              		.eabi_attribute 24, 1
   9              		.eabi_attribute 25, 1
  10              		.eabi_attribute 26, 1
  11              		.eabi_attribute 30, 6
  12              		.eabi_attribute 34, 1
  13              		.eabi_attribute 18, 4
  14              		.thumb
  15              		.file	"stm32f30x_adc.c"
  16              		.text
  17              	.Ltext0:
  18              		.cfi_sections	.debug_frame
  19              		.align	2
  20              		.global	ADC_DeInit
  21              		.thumb
  22              		.thumb_func
  24              	ADC_DeInit:
  25              	.LFB111:
  26              		.file 1 "../src/stm32f30x_adc.c"
   1:../src/stm32f30x_adc.c **** /**
   2:../src/stm32f30x_adc.c ****   ******************************************************************************
   3:../src/stm32f30x_adc.c ****   * @file    stm32f30x_adc.c
   4:../src/stm32f30x_adc.c ****   * @author  MCD Application Team
   5:../src/stm32f30x_adc.c ****   * @version V1.0.1
   6:../src/stm32f30x_adc.c ****   * @date    23-October-2012
   7:../src/stm32f30x_adc.c ****   * @brief   This file provides firmware functions to manage the following 
   8:../src/stm32f30x_adc.c ****   *          functionalities of the Analog to Digital Convertor (ADC) peripheral:
   9:../src/stm32f30x_adc.c ****   *           + Initialization and Configuration
  10:../src/stm32f30x_adc.c ****   *           + Analog Watchdog configuration
  11:../src/stm32f30x_adc.c ****   *           + Temperature Sensor, Vbat & Vrefint (Internal Reference Voltage) management 
  12:../src/stm32f30x_adc.c ****   *           + Regular Channels Configuration
  13:../src/stm32f30x_adc.c ****   *           + Regular Channels DMA Configuration
  14:../src/stm32f30x_adc.c ****   *           + Injected channels Configuration
  15:../src/stm32f30x_adc.c ****   *           + Interrupts and flags management
  16:../src/stm32f30x_adc.c ****   *           + Dual mode configuration  
  17:../src/stm32f30x_adc.c ****   *         
  18:../src/stm32f30x_adc.c ****   @verbatim
  19:../src/stm32f30x_adc.c ****   ==============================================================================
  20:../src/stm32f30x_adc.c ****                              ##### How to use this driver #####
  21:../src/stm32f30x_adc.c ****   ==============================================================================
  22:../src/stm32f30x_adc.c ****     [..]
  23:../src/stm32f30x_adc.c ****     (#) select the ADC clock using the function RCC_ADCCLKConfig()
  24:../src/stm32f30x_adc.c ****     (#) Enable the ADC interface clock using RCC_AHBPeriphClockCmd();
  25:../src/stm32f30x_adc.c ****     (#) ADC pins configuration
  26:../src/stm32f30x_adc.c ****         (++) Enable the clock for the ADC GPIOs using the following function:
  27:../src/stm32f30x_adc.c ****              RCC_AHBPeriphClockCmd(RCC_AHBPeriph_GPIOx, ENABLE);
  28:../src/stm32f30x_adc.c ****         (++) Configure these ADC pins in analog mode using GPIO_Init();
  29:../src/stm32f30x_adc.c ****     (#) Configure the ADC conversion resolution, data alignment, external
  30:../src/stm32f30x_adc.c ****         trigger and edge, sequencer lenght and Enable/Disable the continuous mode
  31:../src/stm32f30x_adc.c ****         using the ADC_Init() function.
  32:../src/stm32f30x_adc.c ****     (#) Activate the ADC peripheral using ADC_Cmd() function.
  33:../src/stm32f30x_adc.c **** 
  34:../src/stm32f30x_adc.c ****     *** ADC channels group configuration ***
  35:../src/stm32f30x_adc.c ****     ========================================    
  36:../src/stm32f30x_adc.c ****     [..] 
  37:../src/stm32f30x_adc.c ****     (+) To configure the ADC channels features, use ADC_Init(), ADC_InjectedInit()
  38:../src/stm32f30x_adc.c ****         and ADC_RegularChannelConfig() functions or/and ADC_InjectedChannelConfig()
  39:../src/stm32f30x_adc.c ****     (+) To activate the continuous mode, use the ADC_ContinuousModeCmd()
  40:../src/stm32f30x_adc.c ****         function.
  41:../src/stm32f30x_adc.c ****     (+) To activate the Discontinuous mode, use the ADC_DiscModeCmd() functions. 
  42:../src/stm32f30x_adc.c ****     (+) To activate the overrun mode, use the ADC_OverrunModeCmd() functions.
  43:../src/stm32f30x_adc.c ****     (+) To activate the calibration mode, use the ADC_StartCalibration() functions.
  44:../src/stm32f30x_adc.c ****     (+) To read the ADC converted values, use the ADC_GetConversionValue()
  45:../src/stm32f30x_adc.c ****         function.
  46:../src/stm32f30x_adc.c **** 
  47:../src/stm32f30x_adc.c ****     *** DMA for ADC channels features configuration ***
  48:../src/stm32f30x_adc.c ****     ===================================================     
  49:../src/stm32f30x_adc.c ****     [..] 
  50:../src/stm32f30x_adc.c ****     (+) To enable the DMA mode for ADC channels group, use the ADC_DMACmd() function.
  51:../src/stm32f30x_adc.c ****     (+) To configure the DMA transfer request, use ADC_DMAConfig() function.
  52:../src/stm32f30x_adc.c **** 
  53:../src/stm32f30x_adc.c ****   @endverbatim
  54:../src/stm32f30x_adc.c ****   *
  55:../src/stm32f30x_adc.c ****   ******************************************************************************
  56:../src/stm32f30x_adc.c ****   * @attention
  57:../src/stm32f30x_adc.c ****   *
  58:../src/stm32f30x_adc.c ****   * <h2><center>&copy; COPYRIGHT 2012 STMicroelectronics</center></h2>
  59:../src/stm32f30x_adc.c ****   *
  60:../src/stm32f30x_adc.c ****   * Licensed under MCD-ST Liberty SW License Agreement V2, (the "License");
  61:../src/stm32f30x_adc.c ****   * You may not use this file except in compliance with the License.
  62:../src/stm32f30x_adc.c ****   * You may obtain a copy of the License at:
  63:../src/stm32f30x_adc.c ****   *
  64:../src/stm32f30x_adc.c ****   *        http://www.st.com/software_license_agreement_liberty_v2
  65:../src/stm32f30x_adc.c ****   *
  66:../src/stm32f30x_adc.c ****   * Unless required by applicable law or agreed to in writing, software 
  67:../src/stm32f30x_adc.c ****   * distributed under the License is distributed on an "AS IS" BASIS, 
  68:../src/stm32f30x_adc.c ****   * WITHOUT WARRANTIES OR CONDITIONS OF ANY KIND, either express or implied.
  69:../src/stm32f30x_adc.c ****   * See the License for the specific language governing permissions and
  70:../src/stm32f30x_adc.c ****   * limitations under the License.
  71:../src/stm32f30x_adc.c ****   *
  72:../src/stm32f30x_adc.c ****   ******************************************************************************
  73:../src/stm32f30x_adc.c ****   */
  74:../src/stm32f30x_adc.c **** 
  75:../src/stm32f30x_adc.c **** /* Includes ------------------------------------------------------------------*/
  76:../src/stm32f30x_adc.c **** #include "stm32f30x_adc.h"
  77:../src/stm32f30x_adc.c **** #include "stm32f30x_rcc.h"
  78:../src/stm32f30x_adc.c **** 
  79:../src/stm32f30x_adc.c **** /** @addtogroup STM32F30x_StdPeriph_Driver
  80:../src/stm32f30x_adc.c ****   * @{
  81:../src/stm32f30x_adc.c ****   */
  82:../src/stm32f30x_adc.c **** 
  83:../src/stm32f30x_adc.c **** /** @defgroup ADC 
  84:../src/stm32f30x_adc.c ****   * @brief ADC driver modules
  85:../src/stm32f30x_adc.c ****   * @{
  86:../src/stm32f30x_adc.c ****   */
  87:../src/stm32f30x_adc.c **** 
  88:../src/stm32f30x_adc.c **** /* Private typedef -----------------------------------------------------------*/
  89:../src/stm32f30x_adc.c **** /* Private define ------------------------------------------------------------*/
  90:../src/stm32f30x_adc.c **** 
  91:../src/stm32f30x_adc.c **** /* CFGR register Mask */
  92:../src/stm32f30x_adc.c **** #define CFGR_CLEAR_Mask             ((uint32_t)0xFDFFC007)
  93:../src/stm32f30x_adc.c **** 
  94:../src/stm32f30x_adc.c **** /* JSQR register Mask */
  95:../src/stm32f30x_adc.c **** #define JSQR_CLEAR_Mask             ((uint32_t)0x00000000)
  96:../src/stm32f30x_adc.c **** 
  97:../src/stm32f30x_adc.c **** /* ADC ADON mask */
  98:../src/stm32f30x_adc.c **** #define CCR_CLEAR_MASK              ((uint32_t)0xFFFC10E0)
  99:../src/stm32f30x_adc.c **** 
 100:../src/stm32f30x_adc.c **** /* ADC JDRx registers offset */
 101:../src/stm32f30x_adc.c **** #define JDR_Offset                  ((uint8_t)0x80)
 102:../src/stm32f30x_adc.c **** 
 103:../src/stm32f30x_adc.c **** /* Private macro -------------------------------------------------------------*/
 104:../src/stm32f30x_adc.c **** /* Private variables ---------------------------------------------------------*/
 105:../src/stm32f30x_adc.c **** /* Private function prototypes -----------------------------------------------*/
 106:../src/stm32f30x_adc.c **** /* Private functions ---------------------------------------------------------*/
 107:../src/stm32f30x_adc.c **** 
 108:../src/stm32f30x_adc.c **** /** @defgroup ADC_Private_Functions
 109:../src/stm32f30x_adc.c ****   * @{
 110:../src/stm32f30x_adc.c ****   */
 111:../src/stm32f30x_adc.c **** 
 112:../src/stm32f30x_adc.c **** /** @defgroup ADC_Group1 Initialization and Configuration functions
 113:../src/stm32f30x_adc.c ****  *  @brief   Initialization and Configuration functions 
 114:../src/stm32f30x_adc.c ****  *
 115:../src/stm32f30x_adc.c **** @verbatim    
 116:../src/stm32f30x_adc.c ****  ===============================================================================
 117:../src/stm32f30x_adc.c ****                  ##### Initialization and Configuration functions  #####
 118:../src/stm32f30x_adc.c ****  ===============================================================================  
 119:../src/stm32f30x_adc.c ****   [..] 
 120:../src/stm32f30x_adc.c ****   This section provides functions allowing to:
 121:../src/stm32f30x_adc.c ****    (#) Initialize and configure the ADC injected and/or regular channels and dual mode.
 122:../src/stm32f30x_adc.c ****    (#) Management of the calibration process
 123:../src/stm32f30x_adc.c ****    (#) ADC Power-on Power-off
 124:../src/stm32f30x_adc.c ****    (#) Single ended or differential mode 
 125:../src/stm32f30x_adc.c ****    (#) Enabling the queue of context and the auto delay mode
 126:../src/stm32f30x_adc.c ****    (#) The number of ADC conversions that will be done using the sequencer for regular 
 127:../src/stm32f30x_adc.c ****        channel group
 128:../src/stm32f30x_adc.c ****    (#) Enable or disable the ADC peripheral
 129:../src/stm32f30x_adc.c ****    
 130:../src/stm32f30x_adc.c **** @endverbatim
 131:../src/stm32f30x_adc.c ****   * @{
 132:../src/stm32f30x_adc.c ****   */
 133:../src/stm32f30x_adc.c **** 
 134:../src/stm32f30x_adc.c **** /**
 135:../src/stm32f30x_adc.c ****   * @brief  Deinitializes the ADCx peripheral registers to their default reset values.
 136:../src/stm32f30x_adc.c ****   * @param  ADCx: where x can be 1, 2,3 or 4 to select the ADC peripheral.
 137:../src/stm32f30x_adc.c ****   * @retval None
 138:../src/stm32f30x_adc.c ****   */
 139:../src/stm32f30x_adc.c **** void ADC_DeInit(ADC_TypeDef* ADCx)
 140:../src/stm32f30x_adc.c **** {
  27              		.loc 1 140 0
  28              		.cfi_startproc
  29              		@ args = 0, pretend = 0, frame = 8
  30              		@ frame_needed = 1, uses_anonymous_args = 0
  31 0000 80B5     		push	{r7, lr}
  32              	.LCFI0:
  33              		.cfi_def_cfa_offset 8
  34              		.cfi_offset 7, -8
  35              		.cfi_offset 14, -4
  36 0002 82B0     		sub	sp, sp, #8
  37              	.LCFI1:
  38              		.cfi_def_cfa_offset 16
  39 0004 00AF     		add	r7, sp, #0
  40              	.LCFI2:
  41              		.cfi_def_cfa_register 7
  42 0006 7860     		str	r0, [r7, #4]
 141:../src/stm32f30x_adc.c ****   /* Check the parameters */
 142:../src/stm32f30x_adc.c ****   assert_param(IS_ADC_ALL_PERIPH(ADCx));
 143:../src/stm32f30x_adc.c **** 
 144:../src/stm32f30x_adc.c **** 
 145:../src/stm32f30x_adc.c ****   if((ADCx == ADC1) || (ADCx == ADC2))
  43              		.loc 1 145 0
  44 0008 7B68     		ldr	r3, [r7, #4]
  45 000a B3F1A04F 		cmp	r3, #1342177280
  46 000e 06D0     		beq	.L2
  47              		.loc 1 145 0 is_stmt 0 discriminator 1
  48 0010 7A68     		ldr	r2, [r7, #4]
  49 0012 4FF48073 		mov	r3, #256
  50 0016 C5F20003 		movt	r3, 20480
  51 001a 9A42     		cmp	r2, r3
  52 001c 0CD1     		bne	.L3
  53              	.L2:
 146:../src/stm32f30x_adc.c ****   {
 147:../src/stm32f30x_adc.c ****     /* Enable ADC1/ADC2 reset state */
 148:../src/stm32f30x_adc.c ****     RCC_AHBPeriphResetCmd(RCC_AHBPeriph_ADC12, ENABLE);
  54              		.loc 1 148 0 is_stmt 1
  55 001e 4FF08050 		mov	r0, #268435456
  56 0022 4FF00101 		mov	r1, #1
  57 0026 FFF7FEFF 		bl	RCC_AHBPeriphResetCmd
 149:../src/stm32f30x_adc.c ****     /* Release ADC1/ADC2 from reset state */
 150:../src/stm32f30x_adc.c ****     RCC_AHBPeriphResetCmd(RCC_AHBPeriph_ADC12, DISABLE);
  58              		.loc 1 150 0
  59 002a 4FF08050 		mov	r0, #268435456
  60 002e 4FF00001 		mov	r1, #0
  61 0032 FFF7FEFF 		bl	RCC_AHBPeriphResetCmd
  62 0036 19E0     		b	.L1
  63              	.L3:
 151:../src/stm32f30x_adc.c ****   }
 152:../src/stm32f30x_adc.c ****   else if((ADCx == ADC3) || (ADCx == ADC4))
  64              		.loc 1 152 0
  65 0038 7A68     		ldr	r2, [r7, #4]
  66 003a 4FF48063 		mov	r3, #1024
  67 003e C5F20003 		movt	r3, 20480
  68 0042 9A42     		cmp	r2, r3
  69 0044 06D0     		beq	.L5
  70              		.loc 1 152 0 is_stmt 0 discriminator 1
  71 0046 7A68     		ldr	r2, [r7, #4]
  72 0048 4FF4A063 		mov	r3, #1280
  73 004c C5F20003 		movt	r3, 20480
  74 0050 9A42     		cmp	r2, r3
  75 0052 0BD1     		bne	.L1
  76              	.L5:
 153:../src/stm32f30x_adc.c ****   {
 154:../src/stm32f30x_adc.c ****     /* Enable ADC3/ADC4 reset state */
 155:../src/stm32f30x_adc.c ****     RCC_AHBPeriphResetCmd(RCC_AHBPeriph_ADC34, ENABLE);
  77              		.loc 1 155 0 is_stmt 1
  78 0054 4FF00050 		mov	r0, #536870912
  79 0058 4FF00101 		mov	r1, #1
  80 005c FFF7FEFF 		bl	RCC_AHBPeriphResetCmd
 156:../src/stm32f30x_adc.c ****     /* Release ADC3/ADC4 from reset state */
 157:../src/stm32f30x_adc.c ****     RCC_AHBPeriphResetCmd(RCC_AHBPeriph_ADC34, DISABLE);
  81              		.loc 1 157 0
  82 0060 4FF00050 		mov	r0, #536870912
  83 0064 4FF00001 		mov	r1, #0
  84 0068 FFF7FEFF 		bl	RCC_AHBPeriphResetCmd
  85              	.L1:
 158:../src/stm32f30x_adc.c ****   }
 159:../src/stm32f30x_adc.c **** }
  86              		.loc 1 159 0
  87 006c 07F10807 		add	r7, r7, #8
  88 0070 BD46     		mov	sp, r7
  89 0072 80BD     		pop	{r7, pc}
  90              		.cfi_endproc
  91              	.LFE111:
  93              		.align	2
  94              		.global	ADC_Init
  95              		.thumb
  96              		.thumb_func
  98              	ADC_Init:
  99              	.LFB112:
 160:../src/stm32f30x_adc.c **** /**
 161:../src/stm32f30x_adc.c ****   * @brief  Initializes the ADCx peripheral according to the specified parameters
 162:../src/stm32f30x_adc.c ****   *         in the ADC_InitStruct.
 163:../src/stm32f30x_adc.c ****   * @param  ADCx: where x can be 1, 2, 3 or 4 to select the ADC peripheral.
 164:../src/stm32f30x_adc.c ****   * @param  ADC_InitStruct: pointer to an ADC_InitTypeDef structure that contains
 165:../src/stm32f30x_adc.c ****   *         the configuration information for the specified ADC peripheral.
 166:../src/stm32f30x_adc.c ****   * @retval None
 167:../src/stm32f30x_adc.c ****   */
 168:../src/stm32f30x_adc.c **** void ADC_Init(ADC_TypeDef* ADCx, ADC_InitTypeDef* ADC_InitStruct)
 169:../src/stm32f30x_adc.c **** {
 100              		.loc 1 169 0
 101              		.cfi_startproc
 102              		@ args = 0, pretend = 0, frame = 16
 103              		@ frame_needed = 1, uses_anonymous_args = 0
 104              		@ link register save eliminated.
 105 0074 80B4     		push	{r7}
 106              	.LCFI3:
 107              		.cfi_def_cfa_offset 4
 108              		.cfi_offset 7, -4
 109 0076 85B0     		sub	sp, sp, #20
 110              	.LCFI4:
 111              		.cfi_def_cfa_offset 24
 112 0078 00AF     		add	r7, sp, #0
 113              	.LCFI5:
 114              		.cfi_def_cfa_register 7
 115 007a 7860     		str	r0, [r7, #4]
 116 007c 3960     		str	r1, [r7, #0]
 170:../src/stm32f30x_adc.c ****   uint32_t tmpreg1 = 0;
 117              		.loc 1 170 0
 118 007e 4FF00003 		mov	r3, #0
 119 0082 FB60     		str	r3, [r7, #12]
 171:../src/stm32f30x_adc.c ****   /* Check the parameters */
 172:../src/stm32f30x_adc.c ****   assert_param(IS_ADC_ALL_PERIPH(ADCx));
 173:../src/stm32f30x_adc.c ****   assert_param(IS_ADC_CONVMODE(ADC_InitStruct->ADC_ContinuousConvMode));
 174:../src/stm32f30x_adc.c ****   assert_param(IS_ADC_RESOLUTION(ADC_InitStruct->ADC_Resolution));
 175:../src/stm32f30x_adc.c ****   assert_param(IS_ADC_EXT_TRIG(ADC_InitStruct->ADC_ExternalTrigConvEvent)); 
 176:../src/stm32f30x_adc.c ****   assert_param(IS_EXTERNALTRIG_EDGE(ADC_InitStruct->ADC_ExternalTrigEventEdge));  
 177:../src/stm32f30x_adc.c ****   assert_param(IS_ADC_DATA_ALIGN(ADC_InitStruct->ADC_DataAlign)); 
 178:../src/stm32f30x_adc.c ****   assert_param(IS_ADC_OVRUNMODE(ADC_InitStruct->ADC_OverrunMode));
 179:../src/stm32f30x_adc.c ****   assert_param(IS_ADC_AUTOINJECMODE(ADC_InitStruct->ADC_AutoInjMode));
 180:../src/stm32f30x_adc.c ****   assert_param(IS_ADC_REGULAR_LENGTH(ADC_InitStruct->ADC_NbrOfRegChannel));
 181:../src/stm32f30x_adc.c **** 
 182:../src/stm32f30x_adc.c ****   /*---------------------------- ADCx CFGR Configuration -----------------*/
 183:../src/stm32f30x_adc.c ****   /* Get the ADCx CFGR value */
 184:../src/stm32f30x_adc.c ****   tmpreg1 = ADCx->CFGR;
 120              		.loc 1 184 0
 121 0084 7B68     		ldr	r3, [r7, #4]
 122 0086 DB68     		ldr	r3, [r3, #12]
 123 0088 FB60     		str	r3, [r7, #12]
 185:../src/stm32f30x_adc.c ****   /* Clear SCAN bit */
 186:../src/stm32f30x_adc.c ****   tmpreg1 &= CFGR_CLEAR_Mask; 
 124              		.loc 1 186 0
 125 008a FA68     		ldr	r2, [r7, #12]
 126 008c 4CF20703 		movw	r3, #49159
 127 0090 CFF6FF53 		movt	r3, 65023
 128 0094 1340     		ands	r3, r3, r2
 129 0096 FB60     		str	r3, [r7, #12]
 187:../src/stm32f30x_adc.c ****   /* Configure ADCx: scan conversion mode */
 188:../src/stm32f30x_adc.c ****   /* Set SCAN bit according to ADC_ScanConvMode value */
 189:../src/stm32f30x_adc.c ****   tmpreg1 |= (uint32_t)ADC_InitStruct->ADC_ContinuousConvMode | 
 130              		.loc 1 189 0
 131 0098 3B68     		ldr	r3, [r7, #0]
 132 009a 1A68     		ldr	r2, [r3, #0]
 190:../src/stm32f30x_adc.c ****   ADC_InitStruct->ADC_Resolution|                 
 133              		.loc 1 190 0
 134 009c 3B68     		ldr	r3, [r7, #0]
 135 009e 5B68     		ldr	r3, [r3, #4]
 189:../src/stm32f30x_adc.c ****   tmpreg1 |= (uint32_t)ADC_InitStruct->ADC_ContinuousConvMode | 
 136              		.loc 1 189 0
 137 00a0 1A43     		orrs	r2, r2, r3
 191:../src/stm32f30x_adc.c ****   ADC_InitStruct->ADC_ExternalTrigConvEvent|         
 138              		.loc 1 191 0
 139 00a2 3B68     		ldr	r3, [r7, #0]
 140 00a4 9B68     		ldr	r3, [r3, #8]
 190:../src/stm32f30x_adc.c ****   ADC_InitStruct->ADC_Resolution|                 
 141              		.loc 1 190 0
 142 00a6 1A43     		orrs	r2, r2, r3
 192:../src/stm32f30x_adc.c ****   ADC_InitStruct->ADC_ExternalTrigEventEdge|     
 143              		.loc 1 192 0
 144 00a8 3B68     		ldr	r3, [r7, #0]
 145 00aa DB68     		ldr	r3, [r3, #12]
 191:../src/stm32f30x_adc.c ****   ADC_InitStruct->ADC_ExternalTrigConvEvent|         
 146              		.loc 1 191 0
 147 00ac 1A43     		orrs	r2, r2, r3
 193:../src/stm32f30x_adc.c ****   ADC_InitStruct->ADC_DataAlign|                 
 148              		.loc 1 193 0
 149 00ae 3B68     		ldr	r3, [r7, #0]
 150 00b0 1B69     		ldr	r3, [r3, #16]
 192:../src/stm32f30x_adc.c ****   ADC_InitStruct->ADC_ExternalTrigEventEdge|     
 151              		.loc 1 192 0
 152 00b2 1A43     		orrs	r2, r2, r3
 194:../src/stm32f30x_adc.c ****   ADC_InitStruct->ADC_OverrunMode|        
 153              		.loc 1 194 0
 154 00b4 3B68     		ldr	r3, [r7, #0]
 155 00b6 5B69     		ldr	r3, [r3, #20]
 193:../src/stm32f30x_adc.c ****   ADC_InitStruct->ADC_DataAlign|                 
 156              		.loc 1 193 0
 157 00b8 1A43     		orrs	r2, r2, r3
 195:../src/stm32f30x_adc.c ****   ADC_InitStruct->ADC_AutoInjMode;
 158              		.loc 1 195 0
 159 00ba 3B68     		ldr	r3, [r7, #0]
 160 00bc 9B69     		ldr	r3, [r3, #24]
 194:../src/stm32f30x_adc.c ****   ADC_InitStruct->ADC_OverrunMode|        
 161              		.loc 1 194 0
 162 00be 1343     		orrs	r3, r3, r2
 189:../src/stm32f30x_adc.c ****   tmpreg1 |= (uint32_t)ADC_InitStruct->ADC_ContinuousConvMode | 
 163              		.loc 1 189 0
 164 00c0 FA68     		ldr	r2, [r7, #12]
 165 00c2 1343     		orrs	r3, r3, r2
 166 00c4 FB60     		str	r3, [r7, #12]
 196:../src/stm32f30x_adc.c ****   
 197:../src/stm32f30x_adc.c ****   /* Write to ADCx CFGR */
 198:../src/stm32f30x_adc.c ****   ADCx->CFGR = tmpreg1;
 167              		.loc 1 198 0
 168 00c6 7B68     		ldr	r3, [r7, #4]
 169 00c8 FA68     		ldr	r2, [r7, #12]
 170 00ca DA60     		str	r2, [r3, #12]
 199:../src/stm32f30x_adc.c ****   
 200:../src/stm32f30x_adc.c ****   /*---------------------------- ADCx SQR1 Configuration -----------------*/
 201:../src/stm32f30x_adc.c ****   /* Get the ADCx SQR1 value */
 202:../src/stm32f30x_adc.c ****   tmpreg1 = ADCx->SQR1;
 171              		.loc 1 202 0
 172 00cc 7B68     		ldr	r3, [r7, #4]
 173 00ce 1B6B     		ldr	r3, [r3, #48]
 174 00d0 FB60     		str	r3, [r7, #12]
 203:../src/stm32f30x_adc.c ****   /* Clear L bits */
 204:../src/stm32f30x_adc.c ****   tmpreg1 &= ~(uint32_t)(ADC_SQR1_L);
 175              		.loc 1 204 0
 176 00d2 FB68     		ldr	r3, [r7, #12]
 177 00d4 23F00F03 		bic	r3, r3, #15
 178 00d8 FB60     		str	r3, [r7, #12]
 205:../src/stm32f30x_adc.c ****   /* Configure ADCx: regular channel sequence length */
 206:../src/stm32f30x_adc.c ****   /* Set L bits according to ADC_NbrOfRegChannel value */
 207:../src/stm32f30x_adc.c ****   tmpreg1 |= (uint32_t) (ADC_InitStruct->ADC_NbrOfRegChannel - 1);
 179              		.loc 1 207 0
 180 00da 3B68     		ldr	r3, [r7, #0]
 181 00dc 1B7F     		ldrb	r3, [r3, #28]	@ zero_extendqisi2
 182 00de 03F1FF33 		add	r3, r3, #-1
 183 00e2 FA68     		ldr	r2, [r7, #12]
 184 00e4 1343     		orrs	r3, r3, r2
 185 00e6 FB60     		str	r3, [r7, #12]
 208:../src/stm32f30x_adc.c ****   /* Write to ADCx SQR1 */
 209:../src/stm32f30x_adc.c ****   ADCx->SQR1 = tmpreg1; 
 186              		.loc 1 209 0
 187 00e8 7B68     		ldr	r3, [r7, #4]
 188 00ea FA68     		ldr	r2, [r7, #12]
 189 00ec 1A63     		str	r2, [r3, #48]
 210:../src/stm32f30x_adc.c ****    
 211:../src/stm32f30x_adc.c **** }  
 190              		.loc 1 211 0
 191 00ee 07F11407 		add	r7, r7, #20
 192 00f2 BD46     		mov	sp, r7
 193 00f4 80BC     		pop	{r7}
 194 00f6 7047     		bx	lr
 195              		.cfi_endproc
 196              	.LFE112:
 198              		.align	2
 199              		.global	ADC_StructInit
 200              		.thumb
 201              		.thumb_func
 203              	ADC_StructInit:
 204              	.LFB113:
 212:../src/stm32f30x_adc.c **** 
 213:../src/stm32f30x_adc.c **** /**
 214:../src/stm32f30x_adc.c ****   * @brief  Fills each ADC_InitStruct member with its default value.
 215:../src/stm32f30x_adc.c ****   * @param  ADC_InitStruct : pointer to an ADC_InitTypeDef structure which will be initialized.
 216:../src/stm32f30x_adc.c ****   * @retval None
 217:../src/stm32f30x_adc.c ****   */
 218:../src/stm32f30x_adc.c **** void ADC_StructInit(ADC_InitTypeDef* ADC_InitStruct)
 219:../src/stm32f30x_adc.c **** {
 205              		.loc 1 219 0
 206              		.cfi_startproc
 207              		@ args = 0, pretend = 0, frame = 8
 208              		@ frame_needed = 1, uses_anonymous_args = 0
 209              		@ link register save eliminated.
 210 00f8 80B4     		push	{r7}
 211              	.LCFI6:
 212              		.cfi_def_cfa_offset 4
 213              		.cfi_offset 7, -4
 214 00fa 83B0     		sub	sp, sp, #12
 215              	.LCFI7:
 216              		.cfi_def_cfa_offset 16
 217 00fc 00AF     		add	r7, sp, #0
 218              	.LCFI8:
 219              		.cfi_def_cfa_register 7
 220 00fe 7860     		str	r0, [r7, #4]
 220:../src/stm32f30x_adc.c ****   /* Reset ADC init structure parameters values */
 221:../src/stm32f30x_adc.c ****   ADC_InitStruct->ADC_ContinuousConvMode = DISABLE;
 221              		.loc 1 221 0
 222 0100 7B68     		ldr	r3, [r7, #4]
 223 0102 4FF00002 		mov	r2, #0
 224 0106 1A60     		str	r2, [r3, #0]
 222:../src/stm32f30x_adc.c ****   ADC_InitStruct->ADC_Resolution = ADC_Resolution_12b;                 
 225              		.loc 1 222 0
 226 0108 7B68     		ldr	r3, [r7, #4]
 227 010a 4FF00002 		mov	r2, #0
 228 010e 5A60     		str	r2, [r3, #4]
 223:../src/stm32f30x_adc.c ****   ADC_InitStruct->ADC_ExternalTrigConvEvent = ADC_ExternalTrigConvEvent_0;         
 229              		.loc 1 223 0
 230 0110 7B68     		ldr	r3, [r7, #4]
 231 0112 4FF00002 		mov	r2, #0
 232 0116 9A60     		str	r2, [r3, #8]
 224:../src/stm32f30x_adc.c ****   ADC_InitStruct->ADC_ExternalTrigEventEdge = ADC_ExternalTrigEventEdge_None;
 233              		.loc 1 224 0
 234 0118 7B68     		ldr	r3, [r7, #4]
 235 011a 4FF00002 		mov	r2, #0
 236 011e DA60     		str	r2, [r3, #12]
 225:../src/stm32f30x_adc.c ****   ADC_InitStruct->ADC_DataAlign = ADC_DataAlign_Right;                 
 237              		.loc 1 225 0
 238 0120 7B68     		ldr	r3, [r7, #4]
 239 0122 4FF00002 		mov	r2, #0
 240 0126 1A61     		str	r2, [r3, #16]
 226:../src/stm32f30x_adc.c ****   ADC_InitStruct->ADC_OverrunMode = DISABLE;   
 241              		.loc 1 226 0
 242 0128 7B68     		ldr	r3, [r7, #4]
 243 012a 4FF00002 		mov	r2, #0
 244 012e 5A61     		str	r2, [r3, #20]
 227:../src/stm32f30x_adc.c ****   ADC_InitStruct->ADC_AutoInjMode = DISABLE;  
 245              		.loc 1 227 0
 246 0130 7B68     		ldr	r3, [r7, #4]
 247 0132 4FF00002 		mov	r2, #0
 248 0136 9A61     		str	r2, [r3, #24]
 228:../src/stm32f30x_adc.c ****   ADC_InitStruct->ADC_NbrOfRegChannel = 1; 
 249              		.loc 1 228 0
 250 0138 7B68     		ldr	r3, [r7, #4]
 251 013a 4FF00102 		mov	r2, #1
 252 013e 1A77     		strb	r2, [r3, #28]
 229:../src/stm32f30x_adc.c **** }
 253              		.loc 1 229 0
 254 0140 07F10C07 		add	r7, r7, #12
 255 0144 BD46     		mov	sp, r7
 256 0146 80BC     		pop	{r7}
 257 0148 7047     		bx	lr
 258              		.cfi_endproc
 259              	.LFE113:
 261 014a 00BF     		.align	2
 262              		.global	ADC_InjectedInit
 263              		.thumb
 264              		.thumb_func
 266              	ADC_InjectedInit:
 267              	.LFB114:
 230:../src/stm32f30x_adc.c **** 
 231:../src/stm32f30x_adc.c **** /**
 232:../src/stm32f30x_adc.c ****   * @brief  Initializes the ADCx peripheral according to the specified parameters
 233:../src/stm32f30x_adc.c ****   *         in the ADC_InitStruct.
 234:../src/stm32f30x_adc.c ****   * @param  ADCx: where x can be 1, 2, 3 or 4 to select the ADC peripheral.
 235:../src/stm32f30x_adc.c ****   * @param  ADC_InjectInitStruct: pointer to an ADC_InjecInitTypeDef structure that contains
 236:../src/stm32f30x_adc.c ****   *         the configuration information for the specified ADC injected channel.
 237:../src/stm32f30x_adc.c ****   * @retval None
 238:../src/stm32f30x_adc.c ****   */
 239:../src/stm32f30x_adc.c **** void ADC_InjectedInit(ADC_TypeDef* ADCx, ADC_InjectedInitTypeDef* ADC_InjectedInitStruct)
 240:../src/stm32f30x_adc.c **** {
 268              		.loc 1 240 0
 269              		.cfi_startproc
 270              		@ args = 0, pretend = 0, frame = 16
 271              		@ frame_needed = 1, uses_anonymous_args = 0
 272              		@ link register save eliminated.
 273 014c 80B4     		push	{r7}
 274              	.LCFI9:
 275              		.cfi_def_cfa_offset 4
 276              		.cfi_offset 7, -4
 277 014e 85B0     		sub	sp, sp, #20
 278              	.LCFI10:
 279              		.cfi_def_cfa_offset 24
 280 0150 00AF     		add	r7, sp, #0
 281              	.LCFI11:
 282              		.cfi_def_cfa_register 7
 283 0152 7860     		str	r0, [r7, #4]
 284 0154 3960     		str	r1, [r7, #0]
 241:../src/stm32f30x_adc.c ****   uint32_t tmpreg1 = 0;
 285              		.loc 1 241 0
 286 0156 4FF00003 		mov	r3, #0
 287 015a FB60     		str	r3, [r7, #12]
 242:../src/stm32f30x_adc.c ****   /* Check the parameters */
 243:../src/stm32f30x_adc.c ****   assert_param(IS_ADC_ALL_PERIPH(ADCx));
 244:../src/stm32f30x_adc.c ****   assert_param(IS_ADC_EXT_INJEC_TRIG(ADC_InjectedInitStruct->ADC_ExternalTrigInjecConvEvent)); 
 245:../src/stm32f30x_adc.c ****   assert_param(IS_EXTERNALTRIGINJ_EDGE(ADC_InjectedInitStruct->ADC_ExternalTrigInjecEventEdge));   
 246:../src/stm32f30x_adc.c ****   assert_param(IS_ADC_INJECTED_LENGTH(ADC_InjectedInitStruct->ADC_NbrOfInjecChannel));
 247:../src/stm32f30x_adc.c ****   assert_param(IS_ADC_INJECTED_CHANNEL(ADC_InjectedInitStruct->ADC_InjecSequence1));
 248:../src/stm32f30x_adc.c ****   assert_param(IS_ADC_INJECTED_CHANNEL(ADC_InjectedInitStruct->ADC_InjecSequence2));
 249:../src/stm32f30x_adc.c ****   assert_param(IS_ADC_INJECTED_CHANNEL(ADC_InjectedInitStruct->ADC_InjecSequence3));
 250:../src/stm32f30x_adc.c ****   assert_param(IS_ADC_INJECTED_CHANNEL(ADC_InjectedInitStruct->ADC_InjecSequence4));
 251:../src/stm32f30x_adc.c ****   
 252:../src/stm32f30x_adc.c ****   /*---------------------------- ADCx JSQR Configuration -----------------*/
 253:../src/stm32f30x_adc.c ****   /* Get the ADCx JSQR value */
 254:../src/stm32f30x_adc.c ****   tmpreg1 = ADCx->JSQR;
 288              		.loc 1 254 0
 289 015c 7B68     		ldr	r3, [r7, #4]
 290 015e DB6C     		ldr	r3, [r3, #76]
 291 0160 FB60     		str	r3, [r7, #12]
 255:../src/stm32f30x_adc.c ****   /* Clear L bits */
 256:../src/stm32f30x_adc.c ****   tmpreg1 &= JSQR_CLEAR_Mask;
 292              		.loc 1 256 0
 293 0162 4FF00003 		mov	r3, #0
 294 0166 FB60     		str	r3, [r7, #12]
 257:../src/stm32f30x_adc.c ****   /* Configure ADCx: Injected channel sequence length, external trigger, 
 258:../src/stm32f30x_adc.c ****      external trigger edge and sequences
 259:../src/stm32f30x_adc.c ****   */
 260:../src/stm32f30x_adc.c ****   tmpreg1 = (uint32_t) ((ADC_InjectedInitStruct->ADC_NbrOfInjecChannel - (uint8_t)1) |
 295              		.loc 1 260 0
 296 0168 3B68     		ldr	r3, [r7, #0]
 297 016a 1B7A     		ldrb	r3, [r3, #8]	@ zero_extendqisi2
 298 016c 03F1FF33 		add	r3, r3, #-1
 299 0170 1A46     		mov	r2, r3
 261:../src/stm32f30x_adc.c ****                          ADC_InjectedInitStruct->ADC_ExternalTrigInjecConvEvent |         
 300              		.loc 1 261 0
 301 0172 3B68     		ldr	r3, [r7, #0]
 302 0174 1B68     		ldr	r3, [r3, #0]
 260:../src/stm32f30x_adc.c ****   tmpreg1 = (uint32_t) ((ADC_InjectedInitStruct->ADC_NbrOfInjecChannel - (uint8_t)1) |
 303              		.loc 1 260 0
 304 0176 1A43     		orrs	r2, r2, r3
 262:../src/stm32f30x_adc.c ****                          ADC_InjectedInitStruct->ADC_ExternalTrigInjecEventEdge |
 305              		.loc 1 262 0
 306 0178 3B68     		ldr	r3, [r7, #0]
 307 017a 5B68     		ldr	r3, [r3, #4]
 261:../src/stm32f30x_adc.c ****                          ADC_InjectedInitStruct->ADC_ExternalTrigInjecConvEvent |         
 308              		.loc 1 261 0
 309 017c 1A43     		orrs	r2, r2, r3
 263:../src/stm32f30x_adc.c ****                          (uint32_t)((ADC_InjectedInitStruct->ADC_InjecSequence1) << 8) |
 310              		.loc 1 263 0
 311 017e 3B68     		ldr	r3, [r7, #0]
 312 0180 DB68     		ldr	r3, [r3, #12]
 313 0182 4FEA0323 		lsl	r3, r3, #8
 262:../src/stm32f30x_adc.c ****                          ADC_InjectedInitStruct->ADC_ExternalTrigInjecEventEdge |
 314              		.loc 1 262 0
 315 0186 1A43     		orrs	r2, r2, r3
 264:../src/stm32f30x_adc.c ****                          (uint32_t)((ADC_InjectedInitStruct->ADC_InjecSequence2) << 14) |
 316              		.loc 1 264 0
 317 0188 3B68     		ldr	r3, [r7, #0]
 318 018a 1B69     		ldr	r3, [r3, #16]
 319 018c 4FEA8333 		lsl	r3, r3, #14
 263:../src/stm32f30x_adc.c ****                          (uint32_t)((ADC_InjectedInitStruct->ADC_InjecSequence1) << 8) |
 320              		.loc 1 263 0
 321 0190 1A43     		orrs	r2, r2, r3
 265:../src/stm32f30x_adc.c ****                          (uint32_t)((ADC_InjectedInitStruct->ADC_InjecSequence3) << 20) |
 322              		.loc 1 265 0
 323 0192 3B68     		ldr	r3, [r7, #0]
 324 0194 5B69     		ldr	r3, [r3, #20]
 325 0196 4FEA0353 		lsl	r3, r3, #20
 264:../src/stm32f30x_adc.c ****                          (uint32_t)((ADC_InjectedInitStruct->ADC_InjecSequence2) << 14) |
 326              		.loc 1 264 0
 327 019a 1A43     		orrs	r2, r2, r3
 266:../src/stm32f30x_adc.c ****                          (uint32_t)((ADC_InjectedInitStruct->ADC_InjecSequence4) << 26));
 328              		.loc 1 266 0
 329 019c 3B68     		ldr	r3, [r7, #0]
 330 019e 9B69     		ldr	r3, [r3, #24]
 331 01a0 4FEA8363 		lsl	r3, r3, #26
 260:../src/stm32f30x_adc.c ****   tmpreg1 = (uint32_t) ((ADC_InjectedInitStruct->ADC_NbrOfInjecChannel - (uint8_t)1) |
 332              		.loc 1 260 0
 333 01a4 1343     		orrs	r3, r3, r2
 334 01a6 FB60     		str	r3, [r7, #12]
 267:../src/stm32f30x_adc.c ****   /* Write to ADCx SQR1 */
 268:../src/stm32f30x_adc.c ****   ADCx->JSQR = tmpreg1;  
 335              		.loc 1 268 0
 336 01a8 7B68     		ldr	r3, [r7, #4]
 337 01aa FA68     		ldr	r2, [r7, #12]
 338 01ac DA64     		str	r2, [r3, #76]
 269:../src/stm32f30x_adc.c **** }
 339              		.loc 1 269 0
 340 01ae 07F11407 		add	r7, r7, #20
 341 01b2 BD46     		mov	sp, r7
 342 01b4 80BC     		pop	{r7}
 343 01b6 7047     		bx	lr
 344              		.cfi_endproc
 345              	.LFE114:
 347              		.align	2
 348              		.global	ADC_InjectedStructInit
 349              		.thumb
 350              		.thumb_func
 352              	ADC_InjectedStructInit:
 353              	.LFB115:
 270:../src/stm32f30x_adc.c **** 
 271:../src/stm32f30x_adc.c **** /**
 272:../src/stm32f30x_adc.c ****   * @brief  Fills each ADC_InjectedInitStruct member with its default value.
 273:../src/stm32f30x_adc.c ****   * @param  ADC_InjectedInitStruct : pointer to an ADC_InjectedInitTypeDef structure which will be 
 274:../src/stm32f30x_adc.c ****   * @retval None
 275:../src/stm32f30x_adc.c ****   */
 276:../src/stm32f30x_adc.c **** void ADC_InjectedStructInit(ADC_InjectedInitTypeDef* ADC_InjectedInitStruct)
 277:../src/stm32f30x_adc.c **** {
 354              		.loc 1 277 0
 355              		.cfi_startproc
 356              		@ args = 0, pretend = 0, frame = 8
 357              		@ frame_needed = 1, uses_anonymous_args = 0
 358              		@ link register save eliminated.
 359 01b8 80B4     		push	{r7}
 360              	.LCFI12:
 361              		.cfi_def_cfa_offset 4
 362              		.cfi_offset 7, -4
 363 01ba 83B0     		sub	sp, sp, #12
 364              	.LCFI13:
 365              		.cfi_def_cfa_offset 16
 366 01bc 00AF     		add	r7, sp, #0
 367              	.LCFI14:
 368              		.cfi_def_cfa_register 7
 369 01be 7860     		str	r0, [r7, #4]
 278:../src/stm32f30x_adc.c ****   ADC_InjectedInitStruct->ADC_ExternalTrigInjecConvEvent = ADC_ExternalTrigInjecConvEvent_0;    
 370              		.loc 1 278 0
 371 01c0 7B68     		ldr	r3, [r7, #4]
 372 01c2 4FF00002 		mov	r2, #0
 373 01c6 1A60     		str	r2, [r3, #0]
 279:../src/stm32f30x_adc.c ****   ADC_InjectedInitStruct->ADC_ExternalTrigInjecEventEdge = ADC_ExternalTrigInjecEventEdge_None;    
 374              		.loc 1 279 0
 375 01c8 7B68     		ldr	r3, [r7, #4]
 376 01ca 4FF00002 		mov	r2, #0
 377 01ce 5A60     		str	r2, [r3, #4]
 280:../src/stm32f30x_adc.c ****   ADC_InjectedInitStruct->ADC_NbrOfInjecChannel = 1;                                               
 378              		.loc 1 280 0
 379 01d0 7B68     		ldr	r3, [r7, #4]
 380 01d2 4FF00102 		mov	r2, #1
 381 01d6 1A72     		strb	r2, [r3, #8]
 281:../src/stm32f30x_adc.c ****   ADC_InjectedInitStruct->ADC_InjecSequence1 = ADC_InjectedChannel_1; 
 382              		.loc 1 281 0
 383 01d8 7B68     		ldr	r3, [r7, #4]
 384 01da 4FF00102 		mov	r2, #1
 385 01de DA60     		str	r2, [r3, #12]
 282:../src/stm32f30x_adc.c ****   ADC_InjectedInitStruct->ADC_InjecSequence2 = ADC_InjectedChannel_1;
 386              		.loc 1 282 0
 387 01e0 7B68     		ldr	r3, [r7, #4]
 388 01e2 4FF00102 		mov	r2, #1
 389 01e6 1A61     		str	r2, [r3, #16]
 283:../src/stm32f30x_adc.c ****   ADC_InjectedInitStruct->ADC_InjecSequence3 = ADC_InjectedChannel_1;
 390              		.loc 1 283 0
 391 01e8 7B68     		ldr	r3, [r7, #4]
 392 01ea 4FF00102 		mov	r2, #1
 393 01ee 5A61     		str	r2, [r3, #20]
 284:../src/stm32f30x_adc.c ****   ADC_InjectedInitStruct->ADC_InjecSequence4 = ADC_InjectedChannel_1; 
 394              		.loc 1 284 0
 395 01f0 7B68     		ldr	r3, [r7, #4]
 396 01f2 4FF00102 		mov	r2, #1
 397 01f6 9A61     		str	r2, [r3, #24]
 285:../src/stm32f30x_adc.c **** }
 398              		.loc 1 285 0
 399 01f8 07F10C07 		add	r7, r7, #12
 400 01fc BD46     		mov	sp, r7
 401 01fe 80BC     		pop	{r7}
 402 0200 7047     		bx	lr
 403              		.cfi_endproc
 404              	.LFE115:
 406 0202 00BF     		.align	2
 407              		.global	ADC_CommonInit
 408              		.thumb
 409              		.thumb_func
 411              	ADC_CommonInit:
 412              	.LFB116:
 286:../src/stm32f30x_adc.c ****     
 287:../src/stm32f30x_adc.c **** /**
 288:../src/stm32f30x_adc.c ****   * @brief  Initializes the ADCs peripherals according to the specified parameters 
 289:../src/stm32f30x_adc.c ****   *         in the ADC_CommonInitStruct.
 290:../src/stm32f30x_adc.c ****   * @param  ADCx: where x can be 1 or 4 to select the ADC peripheral.
 291:../src/stm32f30x_adc.c ****   * @param  ADC_CommonInitStruct: pointer to an ADC_CommonInitTypeDef structure 
 292:../src/stm32f30x_adc.c ****   *         that contains the configuration information for  All ADCs peripherals.
 293:../src/stm32f30x_adc.c ****   * @retval None
 294:../src/stm32f30x_adc.c ****   */
 295:../src/stm32f30x_adc.c **** void ADC_CommonInit(ADC_TypeDef* ADCx, ADC_CommonInitTypeDef* ADC_CommonInitStruct)
 296:../src/stm32f30x_adc.c **** {
 413              		.loc 1 296 0
 414              		.cfi_startproc
 415              		@ args = 0, pretend = 0, frame = 16
 416              		@ frame_needed = 1, uses_anonymous_args = 0
 417              		@ link register save eliminated.
 418 0204 80B4     		push	{r7}
 419              	.LCFI15:
 420              		.cfi_def_cfa_offset 4
 421              		.cfi_offset 7, -4
 422 0206 85B0     		sub	sp, sp, #20
 423              	.LCFI16:
 424              		.cfi_def_cfa_offset 24
 425 0208 00AF     		add	r7, sp, #0
 426              	.LCFI17:
 427              		.cfi_def_cfa_register 7
 428 020a 7860     		str	r0, [r7, #4]
 429 020c 3960     		str	r1, [r7, #0]
 297:../src/stm32f30x_adc.c ****   uint32_t tmpreg1 = 0;
 430              		.loc 1 297 0
 431 020e 4FF00003 		mov	r3, #0
 432 0212 FB60     		str	r3, [r7, #12]
 298:../src/stm32f30x_adc.c ****   /* Check the parameters */
 299:../src/stm32f30x_adc.c ****   assert_param(IS_ADC_MODE(ADC_CommonInitStruct->ADC_Mode));
 300:../src/stm32f30x_adc.c ****   assert_param(IS_ADC_CLOCKMODE(ADC_CommonInitStruct->ADC_Clock));
 301:../src/stm32f30x_adc.c ****   assert_param(IS_ADC_DMA_MODE(ADC_CommonInitStruct->ADC_DMAMode));
 302:../src/stm32f30x_adc.c ****   assert_param(IS_ADC_DMA_ACCESS_MODE(ADC_CommonInitStruct->ADC_DMAAccessMode));
 303:../src/stm32f30x_adc.c ****   assert_param(IS_ADC_TWOSAMPLING_DELAY(ADC_CommonInitStruct->ADC_TwoSamplingDelay));
 304:../src/stm32f30x_adc.c **** 
 305:../src/stm32f30x_adc.c ****   if((ADCx == ADC1) || (ADCx == ADC2))
 433              		.loc 1 305 0
 434 0214 7B68     		ldr	r3, [r7, #4]
 435 0216 B3F1A04F 		cmp	r3, #1342177280
 436 021a 06D0     		beq	.L11
 437              		.loc 1 305 0 is_stmt 0 discriminator 1
 438 021c 7A68     		ldr	r2, [r7, #4]
 439 021e 4FF48073 		mov	r3, #256
 440 0222 C5F20003 		movt	r3, 20480
 441 0226 9A42     		cmp	r2, r3
 442 0228 0DD1     		bne	.L12
 443              	.L11:
 306:../src/stm32f30x_adc.c ****   {
 307:../src/stm32f30x_adc.c ****     /* Get the ADC CCR value */
 308:../src/stm32f30x_adc.c ****     tmpreg1 = ADC1_2->CCR;
 444              		.loc 1 308 0 is_stmt 1
 445 022a 4FF44073 		mov	r3, #768
 446 022e C5F20003 		movt	r3, 20480
 447 0232 9B68     		ldr	r3, [r3, #8]
 448 0234 FB60     		str	r3, [r7, #12]
 309:../src/stm32f30x_adc.c ****   
 310:../src/stm32f30x_adc.c ****     /* Clear MULTI, DELAY, DMA and ADCPRE bits */
 311:../src/stm32f30x_adc.c ****     tmpreg1 &= CCR_CLEAR_MASK;
 449              		.loc 1 311 0
 450 0236 FA68     		ldr	r2, [r7, #12]
 451 0238 4FF48753 		mov	r3, #4320
 452 023c CFF6FC73 		movt	r3, 65532
 453 0240 1340     		ands	r3, r3, r2
 454 0242 FB60     		str	r3, [r7, #12]
 455 0244 0CE0     		b	.L13
 456              	.L12:
 312:../src/stm32f30x_adc.c ****   }
 313:../src/stm32f30x_adc.c ****   else
 314:../src/stm32f30x_adc.c ****   {
 315:../src/stm32f30x_adc.c ****     /* Get the ADC CCR value */
 316:../src/stm32f30x_adc.c ****     tmpreg1 = ADC3_4->CCR;
 457              		.loc 1 316 0
 458 0246 4FF4E063 		mov	r3, #1792
 459 024a C5F20003 		movt	r3, 20480
 460 024e 9B68     		ldr	r3, [r3, #8]
 461 0250 FB60     		str	r3, [r7, #12]
 317:../src/stm32f30x_adc.c ****   
 318:../src/stm32f30x_adc.c ****     /* Clear MULTI, DELAY, DMA and ADCPRE bits */
 319:../src/stm32f30x_adc.c ****     tmpreg1 &= CCR_CLEAR_MASK;
 462              		.loc 1 319 0
 463 0252 FA68     		ldr	r2, [r7, #12]
 464 0254 4FF48753 		mov	r3, #4320
 465 0258 CFF6FC73 		movt	r3, 65532
 466 025c 1340     		ands	r3, r3, r2
 467 025e FB60     		str	r3, [r7, #12]
 468              	.L13:
 320:../src/stm32f30x_adc.c ****   }
 321:../src/stm32f30x_adc.c ****   /*---------------------------- ADC CCR Configuration -----------------*/  
 322:../src/stm32f30x_adc.c ****   /* Configure ADCx: Multi mode, Delay between two sampling time, ADC clock, DMA mode
 323:../src/stm32f30x_adc.c ****      and DMA access mode for dual mode */
 324:../src/stm32f30x_adc.c ****   /* Set MULTI bits according to ADC_Mode value */
 325:../src/stm32f30x_adc.c ****   /* Set CKMODE bits according to ADC_Clock value */
 326:../src/stm32f30x_adc.c ****   /* Set MDMA bits according to ADC_DMAAccessMode value */
 327:../src/stm32f30x_adc.c ****   /* Set DMACFG bits according to ADC_DMAMode value */
 328:../src/stm32f30x_adc.c ****   /* Set DELAY bits according to ADC_TwoSamplingDelay value */    
 329:../src/stm32f30x_adc.c ****   tmpreg1 |= (uint32_t)(ADC_CommonInitStruct->ADC_Mode | 
 469              		.loc 1 329 0
 470 0260 3B68     		ldr	r3, [r7, #0]
 471 0262 1A68     		ldr	r2, [r3, #0]
 330:../src/stm32f30x_adc.c ****                         ADC_CommonInitStruct->ADC_Clock | 
 472              		.loc 1 330 0
 473 0264 3B68     		ldr	r3, [r7, #0]
 474 0266 5B68     		ldr	r3, [r3, #4]
 329:../src/stm32f30x_adc.c ****   tmpreg1 |= (uint32_t)(ADC_CommonInitStruct->ADC_Mode | 
 475              		.loc 1 329 0
 476 0268 1A43     		orrs	r2, r2, r3
 331:../src/stm32f30x_adc.c ****                         ADC_CommonInitStruct->ADC_DMAAccessMode | 
 477              		.loc 1 331 0
 478 026a 3B68     		ldr	r3, [r7, #0]
 479 026c 9B68     		ldr	r3, [r3, #8]
 330:../src/stm32f30x_adc.c ****                         ADC_CommonInitStruct->ADC_Clock | 
 480              		.loc 1 330 0
 481 026e 1A43     		orrs	r2, r2, r3
 332:../src/stm32f30x_adc.c ****                         (uint32_t)(ADC_CommonInitStruct->ADC_DMAMode << 12) |
 482              		.loc 1 332 0
 483 0270 3B68     		ldr	r3, [r7, #0]
 484 0272 DB68     		ldr	r3, [r3, #12]
 485 0274 4FEA0333 		lsl	r3, r3, #12
 331:../src/stm32f30x_adc.c ****                         ADC_CommonInitStruct->ADC_DMAAccessMode | 
 486              		.loc 1 331 0
 487 0278 1A43     		orrs	r2, r2, r3
 333:../src/stm32f30x_adc.c ****                         (uint32_t)((uint32_t)ADC_CommonInitStruct->ADC_TwoSamplingDelay << 8));
 488              		.loc 1 333 0
 489 027a 3B68     		ldr	r3, [r7, #0]
 490 027c 1B7C     		ldrb	r3, [r3, #16]	@ zero_extendqisi2
 491 027e 4FEA0323 		lsl	r3, r3, #8
 329:../src/stm32f30x_adc.c ****   tmpreg1 |= (uint32_t)(ADC_CommonInitStruct->ADC_Mode | 
 492              		.loc 1 329 0
 493 0282 1343     		orrs	r3, r3, r2
 494 0284 FA68     		ldr	r2, [r7, #12]
 495 0286 1343     		orrs	r3, r3, r2
 496 0288 FB60     		str	r3, [r7, #12]
 334:../src/stm32f30x_adc.c **** 
 335:../src/stm32f30x_adc.c ****   if((ADCx == ADC1) || (ADCx == ADC2))
 497              		.loc 1 335 0
 498 028a 7B68     		ldr	r3, [r7, #4]
 499 028c B3F1A04F 		cmp	r3, #1342177280
 500 0290 06D0     		beq	.L14
 501              		.loc 1 335 0 is_stmt 0 discriminator 1
 502 0292 7A68     		ldr	r2, [r7, #4]
 503 0294 4FF48073 		mov	r3, #256
 504 0298 C5F20003 		movt	r3, 20480
 505 029c 9A42     		cmp	r2, r3
 506 029e 06D1     		bne	.L15
 507              	.L14:
 336:../src/stm32f30x_adc.c ****   {                        
 337:../src/stm32f30x_adc.c ****     /* Write to ADC CCR */
 338:../src/stm32f30x_adc.c ****     ADC1_2->CCR = tmpreg1;
 508              		.loc 1 338 0 is_stmt 1
 509 02a0 4FF44073 		mov	r3, #768
 510 02a4 C5F20003 		movt	r3, 20480
 511 02a8 FA68     		ldr	r2, [r7, #12]
 512 02aa 9A60     		str	r2, [r3, #8]
 513 02ac 05E0     		b	.L10
 514              	.L15:
 339:../src/stm32f30x_adc.c ****   }
 340:../src/stm32f30x_adc.c ****   else
 341:../src/stm32f30x_adc.c ****   {
 342:../src/stm32f30x_adc.c ****     /* Write to ADC CCR */
 343:../src/stm32f30x_adc.c ****     ADC3_4->CCR = tmpreg1;
 515              		.loc 1 343 0
 516 02ae 4FF4E063 		mov	r3, #1792
 517 02b2 C5F20003 		movt	r3, 20480
 518 02b6 FA68     		ldr	r2, [r7, #12]
 519 02b8 9A60     		str	r2, [r3, #8]
 520              	.L10:
 344:../src/stm32f30x_adc.c ****   }
 345:../src/stm32f30x_adc.c **** }
 521              		.loc 1 345 0
 522 02ba 07F11407 		add	r7, r7, #20
 523 02be BD46     		mov	sp, r7
 524 02c0 80BC     		pop	{r7}
 525 02c2 7047     		bx	lr
 526              		.cfi_endproc
 527              	.LFE116:
 529              		.align	2
 530              		.global	ADC_CommonStructInit
 531              		.thumb
 532              		.thumb_func
 534              	ADC_CommonStructInit:
 535              	.LFB117:
 346:../src/stm32f30x_adc.c **** 
 347:../src/stm32f30x_adc.c **** /**
 348:../src/stm32f30x_adc.c ****   * @brief  Fills each ADC_CommonInitStruct member with its default value.
 349:../src/stm32f30x_adc.c ****   * @param  ADC_CommonInitStruct: pointer to an ADC_CommonInitTypeDef structure
 350:../src/stm32f30x_adc.c ****   *         which will be initialized.
 351:../src/stm32f30x_adc.c ****   * @retval None
 352:../src/stm32f30x_adc.c ****   */
 353:../src/stm32f30x_adc.c **** void ADC_CommonStructInit(ADC_CommonInitTypeDef* ADC_CommonInitStruct)
 354:../src/stm32f30x_adc.c **** {
 536              		.loc 1 354 0
 537              		.cfi_startproc
 538              		@ args = 0, pretend = 0, frame = 8
 539              		@ frame_needed = 1, uses_anonymous_args = 0
 540              		@ link register save eliminated.
 541 02c4 80B4     		push	{r7}
 542              	.LCFI18:
 543              		.cfi_def_cfa_offset 4
 544              		.cfi_offset 7, -4
 545 02c6 83B0     		sub	sp, sp, #12
 546              	.LCFI19:
 547              		.cfi_def_cfa_offset 16
 548 02c8 00AF     		add	r7, sp, #0
 549              	.LCFI20:
 550              		.cfi_def_cfa_register 7
 551 02ca 7860     		str	r0, [r7, #4]
 355:../src/stm32f30x_adc.c ****   /* Initialize the ADC_Mode member */
 356:../src/stm32f30x_adc.c ****   ADC_CommonInitStruct->ADC_Mode = ADC_Mode_Independent;
 552              		.loc 1 356 0
 553 02cc 7B68     		ldr	r3, [r7, #4]
 554 02ce 4FF00002 		mov	r2, #0
 555 02d2 1A60     		str	r2, [r3, #0]
 357:../src/stm32f30x_adc.c **** 
 358:../src/stm32f30x_adc.c ****   /* initialize the ADC_Clock member */
 359:../src/stm32f30x_adc.c ****   ADC_CommonInitStruct->ADC_Clock = ADC_Clock_AsynClkMode;
 556              		.loc 1 359 0
 557 02d4 7B68     		ldr	r3, [r7, #4]
 558 02d6 4FF00002 		mov	r2, #0
 559 02da 5A60     		str	r2, [r3, #4]
 360:../src/stm32f30x_adc.c **** 
 361:../src/stm32f30x_adc.c ****   /* Initialize the ADC_DMAAccessMode member */
 362:../src/stm32f30x_adc.c ****   ADC_CommonInitStruct->ADC_DMAAccessMode = ADC_DMAAccessMode_Disabled;
 560              		.loc 1 362 0
 561 02dc 7B68     		ldr	r3, [r7, #4]
 562 02de 4FF00002 		mov	r2, #0
 563 02e2 9A60     		str	r2, [r3, #8]
 363:../src/stm32f30x_adc.c **** 
 364:../src/stm32f30x_adc.c ****   /* Initialize the ADC_DMAMode member */
 365:../src/stm32f30x_adc.c ****   ADC_CommonInitStruct->ADC_DMAMode = ADC_DMAMode_OneShot;
 564              		.loc 1 365 0
 565 02e4 7B68     		ldr	r3, [r7, #4]
 566 02e6 4FF00002 		mov	r2, #0
 567 02ea DA60     		str	r2, [r3, #12]
 366:../src/stm32f30x_adc.c **** 
 367:../src/stm32f30x_adc.c ****   /* Initialize the ADC_TwoSamplingDelay member */
 368:../src/stm32f30x_adc.c ****   ADC_CommonInitStruct->ADC_TwoSamplingDelay = 0;
 568              		.loc 1 368 0
 569 02ec 7B68     		ldr	r3, [r7, #4]
 570 02ee 4FF00002 		mov	r2, #0
 571 02f2 1A74     		strb	r2, [r3, #16]
 369:../src/stm32f30x_adc.c **** 
 370:../src/stm32f30x_adc.c **** }
 572              		.loc 1 370 0
 573 02f4 07F10C07 		add	r7, r7, #12
 574 02f8 BD46     		mov	sp, r7
 575 02fa 80BC     		pop	{r7}
 576 02fc 7047     		bx	lr
 577              		.cfi_endproc
 578              	.LFE117:
 580 02fe 00BF     		.align	2
 581              		.global	ADC_Cmd
 582              		.thumb
 583              		.thumb_func
 585              	ADC_Cmd:
 586              	.LFB118:
 371:../src/stm32f30x_adc.c **** 
 372:../src/stm32f30x_adc.c **** /**
 373:../src/stm32f30x_adc.c ****   * @brief  Enables or disables the specified ADC peripheral.
 374:../src/stm32f30x_adc.c ****   * @param  ADCx: where x can be 1, 2, 3 or 4 to select the ADC peripheral.
 375:../src/stm32f30x_adc.c ****   * @param  NewState: new state of the ADCx peripheral.
 376:../src/stm32f30x_adc.c ****   *   This parameter can be: ENABLE or DISABLE.
 377:../src/stm32f30x_adc.c ****   * @retval None
 378:../src/stm32f30x_adc.c ****   */
 379:../src/stm32f30x_adc.c **** void ADC_Cmd(ADC_TypeDef* ADCx, FunctionalState NewState)
 380:../src/stm32f30x_adc.c **** {
 587              		.loc 1 380 0
 588              		.cfi_startproc
 589              		@ args = 0, pretend = 0, frame = 8
 590              		@ frame_needed = 1, uses_anonymous_args = 0
 591              		@ link register save eliminated.
 592 0300 80B4     		push	{r7}
 593              	.LCFI21:
 594              		.cfi_def_cfa_offset 4
 595              		.cfi_offset 7, -4
 596 0302 83B0     		sub	sp, sp, #12
 597              	.LCFI22:
 598              		.cfi_def_cfa_offset 16
 599 0304 00AF     		add	r7, sp, #0
 600              	.LCFI23:
 601              		.cfi_def_cfa_register 7
 602 0306 7860     		str	r0, [r7, #4]
 603 0308 0B46     		mov	r3, r1
 604 030a FB70     		strb	r3, [r7, #3]
 381:../src/stm32f30x_adc.c ****   /* Check the parameters */
 382:../src/stm32f30x_adc.c ****   assert_param(IS_ADC_ALL_PERIPH(ADCx));
 383:../src/stm32f30x_adc.c ****   assert_param(IS_FUNCTIONAL_STATE(NewState));
 384:../src/stm32f30x_adc.c **** 
 385:../src/stm32f30x_adc.c ****   if (NewState != DISABLE)
 605              		.loc 1 385 0
 606 030c FB78     		ldrb	r3, [r7, #3]	@ zero_extendqisi2
 607 030e 002B     		cmp	r3, #0
 608 0310 06D0     		beq	.L19
 386:../src/stm32f30x_adc.c ****   {
 387:../src/stm32f30x_adc.c ****     /* Set the ADEN bit */
 388:../src/stm32f30x_adc.c ****     ADCx->CR |= ADC_CR_ADEN;
 609              		.loc 1 388 0
 610 0312 7B68     		ldr	r3, [r7, #4]
 611 0314 9B68     		ldr	r3, [r3, #8]
 612 0316 43F00102 		orr	r2, r3, #1
 613 031a 7B68     		ldr	r3, [r7, #4]
 614 031c 9A60     		str	r2, [r3, #8]
 615 031e 05E0     		b	.L18
 616              	.L19:
 389:../src/stm32f30x_adc.c ****   }
 390:../src/stm32f30x_adc.c ****   else
 391:../src/stm32f30x_adc.c ****   {
 392:../src/stm32f30x_adc.c ****     /* Disable the selected ADC peripheral: Set the ADDIS bit */
 393:../src/stm32f30x_adc.c ****     ADCx->CR |= ADC_CR_ADDIS;
 617              		.loc 1 393 0
 618 0320 7B68     		ldr	r3, [r7, #4]
 619 0322 9B68     		ldr	r3, [r3, #8]
 620 0324 43F00202 		orr	r2, r3, #2
 621 0328 7B68     		ldr	r3, [r7, #4]
 622 032a 9A60     		str	r2, [r3, #8]
 623              	.L18:
 394:../src/stm32f30x_adc.c ****   }
 395:../src/stm32f30x_adc.c **** }
 624              		.loc 1 395 0
 625 032c 07F10C07 		add	r7, r7, #12
 626 0330 BD46     		mov	sp, r7
 627 0332 80BC     		pop	{r7}
 628 0334 7047     		bx	lr
 629              		.cfi_endproc
 630              	.LFE118:
 632 0336 00BF     		.align	2
 633              		.global	ADC_StartCalibration
 634              		.thumb
 635              		.thumb_func
 637              	ADC_StartCalibration:
 638              	.LFB119:
 396:../src/stm32f30x_adc.c **** 
 397:../src/stm32f30x_adc.c **** /**
 398:../src/stm32f30x_adc.c ****   * @brief  Starts the selected ADC calibration process.
 399:../src/stm32f30x_adc.c ****   * @param  ADCx: where x can be 1, 2, 3 or 4 to select the ADC peripheral.
 400:../src/stm32f30x_adc.c ****   * @retval None
 401:../src/stm32f30x_adc.c ****   */
 402:../src/stm32f30x_adc.c **** void ADC_StartCalibration(ADC_TypeDef* ADCx)
 403:../src/stm32f30x_adc.c **** {
 639              		.loc 1 403 0
 640              		.cfi_startproc
 641              		@ args = 0, pretend = 0, frame = 8
 642              		@ frame_needed = 1, uses_anonymous_args = 0
 643              		@ link register save eliminated.
 644 0338 80B4     		push	{r7}
 645              	.LCFI24:
 646              		.cfi_def_cfa_offset 4
 647              		.cfi_offset 7, -4
 648 033a 83B0     		sub	sp, sp, #12
 649              	.LCFI25:
 650              		.cfi_def_cfa_offset 16
 651 033c 00AF     		add	r7, sp, #0
 652              	.LCFI26:
 653              		.cfi_def_cfa_register 7
 654 033e 7860     		str	r0, [r7, #4]
 404:../src/stm32f30x_adc.c ****   /* Check the parameters */
 405:../src/stm32f30x_adc.c ****   assert_param(IS_ADC_ALL_PERIPH(ADCx));
 406:../src/stm32f30x_adc.c **** 
 407:../src/stm32f30x_adc.c ****   /* Set the ADCAL bit */
 408:../src/stm32f30x_adc.c ****   ADCx->CR |= ADC_CR_ADCAL;
 655              		.loc 1 408 0
 656 0340 7B68     		ldr	r3, [r7, #4]
 657 0342 9B68     		ldr	r3, [r3, #8]
 658 0344 43F00042 		orr	r2, r3, #-2147483648
 659 0348 7B68     		ldr	r3, [r7, #4]
 660 034a 9A60     		str	r2, [r3, #8]
 409:../src/stm32f30x_adc.c **** }
 661              		.loc 1 409 0
 662 034c 07F10C07 		add	r7, r7, #12
 663 0350 BD46     		mov	sp, r7
 664 0352 80BC     		pop	{r7}
 665 0354 7047     		bx	lr
 666              		.cfi_endproc
 667              	.LFE119:
 669 0356 00BF     		.align	2
 670              		.global	ADC_GetCalibrationValue
 671              		.thumb
 672              		.thumb_func
 674              	ADC_GetCalibrationValue:
 675              	.LFB120:
 410:../src/stm32f30x_adc.c **** 
 411:../src/stm32f30x_adc.c **** /**
 412:../src/stm32f30x_adc.c ****   * @brief  Returns the ADCx calibration value.
 413:../src/stm32f30x_adc.c ****   * @param  ADCx: where x can be 1, 2, 3 or 4 to select the ADC peripheral.
 414:../src/stm32f30x_adc.c ****   * @retval None
 415:../src/stm32f30x_adc.c ****   */
 416:../src/stm32f30x_adc.c **** uint32_t ADC_GetCalibrationValue(ADC_TypeDef* ADCx)
 417:../src/stm32f30x_adc.c **** {
 676              		.loc 1 417 0
 677              		.cfi_startproc
 678              		@ args = 0, pretend = 0, frame = 8
 679              		@ frame_needed = 1, uses_anonymous_args = 0
 680              		@ link register save eliminated.
 681 0358 80B4     		push	{r7}
 682              	.LCFI27:
 683              		.cfi_def_cfa_offset 4
 684              		.cfi_offset 7, -4
 685 035a 83B0     		sub	sp, sp, #12
 686              	.LCFI28:
 687              		.cfi_def_cfa_offset 16
 688 035c 00AF     		add	r7, sp, #0
 689              	.LCFI29:
 690              		.cfi_def_cfa_register 7
 691 035e 7860     		str	r0, [r7, #4]
 418:../src/stm32f30x_adc.c ****   /* Check the parameters */
 419:../src/stm32f30x_adc.c ****   assert_param(IS_ADC_ALL_PERIPH(ADCx));
 420:../src/stm32f30x_adc.c **** 
 421:../src/stm32f30x_adc.c ****   /* Return the selected ADC calibration value */
 422:../src/stm32f30x_adc.c ****   return (uint32_t)ADCx->CALFACT;
 692              		.loc 1 422 0
 693 0360 7B68     		ldr	r3, [r7, #4]
 694 0362 D3F8B430 		ldr	r3, [r3, #180]
 423:../src/stm32f30x_adc.c **** }
 695              		.loc 1 423 0
 696 0366 1846     		mov	r0, r3
 697 0368 07F10C07 		add	r7, r7, #12
 698 036c BD46     		mov	sp, r7
 699 036e 80BC     		pop	{r7}
 700 0370 7047     		bx	lr
 701              		.cfi_endproc
 702              	.LFE120:
 704 0372 00BF     		.align	2
 705              		.global	ADC_SetCalibrationValue
 706              		.thumb
 707              		.thumb_func
 709              	ADC_SetCalibrationValue:
 710              	.LFB121:
 424:../src/stm32f30x_adc.c **** 
 425:../src/stm32f30x_adc.c **** /**
 426:../src/stm32f30x_adc.c ****   * @brief  Sets the ADCx calibration register.
 427:../src/stm32f30x_adc.c ****   * @param  ADCx: where x can be 1, 2, 3 or 4 to select the ADC peripheral.
 428:../src/stm32f30x_adc.c ****   * @retval None
 429:../src/stm32f30x_adc.c ****   */
 430:../src/stm32f30x_adc.c **** void ADC_SetCalibrationValue(ADC_TypeDef* ADCx, uint32_t ADC_Calibration)
 431:../src/stm32f30x_adc.c **** {
 711              		.loc 1 431 0
 712              		.cfi_startproc
 713              		@ args = 0, pretend = 0, frame = 8
 714              		@ frame_needed = 1, uses_anonymous_args = 0
 715              		@ link register save eliminated.
 716 0374 80B4     		push	{r7}
 717              	.LCFI30:
 718              		.cfi_def_cfa_offset 4
 719              		.cfi_offset 7, -4
 720 0376 83B0     		sub	sp, sp, #12
 721              	.LCFI31:
 722              		.cfi_def_cfa_offset 16
 723 0378 00AF     		add	r7, sp, #0
 724              	.LCFI32:
 725              		.cfi_def_cfa_register 7
 726 037a 7860     		str	r0, [r7, #4]
 727 037c 3960     		str	r1, [r7, #0]
 432:../src/stm32f30x_adc.c ****   /* Check the parameters */
 433:../src/stm32f30x_adc.c ****   assert_param(IS_ADC_ALL_PERIPH(ADCx));
 434:../src/stm32f30x_adc.c **** 
 435:../src/stm32f30x_adc.c ****   /* Set the ADC calibration register value */
 436:../src/stm32f30x_adc.c ****   ADCx->CALFACT = ADC_Calibration;
 728              		.loc 1 436 0
 729 037e 7B68     		ldr	r3, [r7, #4]
 730 0380 3A68     		ldr	r2, [r7, #0]
 731 0382 C3F8B420 		str	r2, [r3, #180]
 437:../src/stm32f30x_adc.c **** }
 732              		.loc 1 437 0
 733 0386 07F10C07 		add	r7, r7, #12
 734 038a BD46     		mov	sp, r7
 735 038c 80BC     		pop	{r7}
 736 038e 7047     		bx	lr
 737              		.cfi_endproc
 738              	.LFE121:
 740              		.align	2
 741              		.global	ADC_SelectCalibrationMode
 742              		.thumb
 743              		.thumb_func
 745              	ADC_SelectCalibrationMode:
 746              	.LFB122:
 438:../src/stm32f30x_adc.c **** 
 439:../src/stm32f30x_adc.c **** /**
 440:../src/stm32f30x_adc.c ****   * @brief  Select the ADC calibration mode.
 441:../src/stm32f30x_adc.c ****   * @param  ADCx: where x can be 1, 2, 3 or 4 to select the ADC peripheral.
 442:../src/stm32f30x_adc.c ****   * @param  ADC_CalibrationMode: the ADC calibration mode.
 443:../src/stm32f30x_adc.c ****   *         This parameter can be one of the following values: 
 444:../src/stm32f30x_adc.c ****   *          @arg ADC_CalibrationMode_Single: to select the calibration for single channel
 445:../src/stm32f30x_adc.c ****   *          @arg ADC_CalibrationMode_Differential: to select the calibration for differential chan
 446:../src/stm32f30x_adc.c ****   * @retval None
 447:../src/stm32f30x_adc.c ****   */
 448:../src/stm32f30x_adc.c **** void ADC_SelectCalibrationMode(ADC_TypeDef* ADCx, uint32_t ADC_CalibrationMode)
 449:../src/stm32f30x_adc.c **** {
 747              		.loc 1 449 0
 748              		.cfi_startproc
 749              		@ args = 0, pretend = 0, frame = 8
 750              		@ frame_needed = 1, uses_anonymous_args = 0
 751              		@ link register save eliminated.
 752 0390 80B4     		push	{r7}
 753              	.LCFI33:
 754              		.cfi_def_cfa_offset 4
 755              		.cfi_offset 7, -4
 756 0392 83B0     		sub	sp, sp, #12
 757              	.LCFI34:
 758              		.cfi_def_cfa_offset 16
 759 0394 00AF     		add	r7, sp, #0
 760              	.LCFI35:
 761              		.cfi_def_cfa_register 7
 762 0396 7860     		str	r0, [r7, #4]
 763 0398 3960     		str	r1, [r7, #0]
 450:../src/stm32f30x_adc.c ****   /* Check the parameters */
 451:../src/stm32f30x_adc.c ****   assert_param(IS_ADC_ALL_PERIPH(ADCx));
 452:../src/stm32f30x_adc.c ****   assert_param(IS_ADC_CALIBRATION_MODE(ADC_CalibrationMode));
 453:../src/stm32f30x_adc.c ****   /* Set or Reset the ADCALDIF bit */
 454:../src/stm32f30x_adc.c ****   ADCx->CR &= (~ADC_CR_ADCALDIF);
 764              		.loc 1 454 0
 765 039a 7B68     		ldr	r3, [r7, #4]
 766 039c 9B68     		ldr	r3, [r3, #8]
 767 039e 23F08042 		bic	r2, r3, #1073741824
 768 03a2 7B68     		ldr	r3, [r7, #4]
 769 03a4 9A60     		str	r2, [r3, #8]
 455:../src/stm32f30x_adc.c ****   ADCx->CR |= ADC_CalibrationMode;
 770              		.loc 1 455 0
 771 03a6 7B68     		ldr	r3, [r7, #4]
 772 03a8 9A68     		ldr	r2, [r3, #8]
 773 03aa 3B68     		ldr	r3, [r7, #0]
 774 03ac 1A43     		orrs	r2, r2, r3
 775 03ae 7B68     		ldr	r3, [r7, #4]
 776 03b0 9A60     		str	r2, [r3, #8]
 456:../src/stm32f30x_adc.c **** 
 457:../src/stm32f30x_adc.c **** }
 777              		.loc 1 457 0
 778 03b2 07F10C07 		add	r7, r7, #12
 779 03b6 BD46     		mov	sp, r7
 780 03b8 80BC     		pop	{r7}
 781 03ba 7047     		bx	lr
 782              		.cfi_endproc
 783              	.LFE122:
 785              		.align	2
 786              		.global	ADC_GetCalibrationStatus
 787              		.thumb
 788              		.thumb_func
 790              	ADC_GetCalibrationStatus:
 791              	.LFB123:
 458:../src/stm32f30x_adc.c **** 
 459:../src/stm32f30x_adc.c **** /**
 460:../src/stm32f30x_adc.c ****   * @brief  Gets the selected ADC calibration status.
 461:../src/stm32f30x_adc.c ****   * @param  ADCx: where x can be 1, 2, 3 or 4 to select the ADC peripheral.
 462:../src/stm32f30x_adc.c ****   * @retval The new state of ADC calibration (SET or RESET).
 463:../src/stm32f30x_adc.c ****   */
 464:../src/stm32f30x_adc.c **** FlagStatus ADC_GetCalibrationStatus(ADC_TypeDef* ADCx)
 465:../src/stm32f30x_adc.c **** {
 792              		.loc 1 465 0
 793              		.cfi_startproc
 794              		@ args = 0, pretend = 0, frame = 16
 795              		@ frame_needed = 1, uses_anonymous_args = 0
 796              		@ link register save eliminated.
 797 03bc 80B4     		push	{r7}
 798              	.LCFI36:
 799              		.cfi_def_cfa_offset 4
 800              		.cfi_offset 7, -4
 801 03be 85B0     		sub	sp, sp, #20
 802              	.LCFI37:
 803              		.cfi_def_cfa_offset 24
 804 03c0 00AF     		add	r7, sp, #0
 805              	.LCFI38:
 806              		.cfi_def_cfa_register 7
 807 03c2 7860     		str	r0, [r7, #4]
 466:../src/stm32f30x_adc.c ****   FlagStatus bitstatus = RESET;
 808              		.loc 1 466 0
 809 03c4 4FF00003 		mov	r3, #0
 810 03c8 FB73     		strb	r3, [r7, #15]
 467:../src/stm32f30x_adc.c ****   /* Check the parameters */
 468:../src/stm32f30x_adc.c ****   assert_param(IS_ADC_ALL_PERIPH(ADCx));
 469:../src/stm32f30x_adc.c ****   /* Check the status of CAL bit */
 470:../src/stm32f30x_adc.c ****   if ((ADCx->CR & ADC_CR_ADCAL) != (uint32_t)RESET)
 811              		.loc 1 470 0
 812 03ca 7B68     		ldr	r3, [r7, #4]
 813 03cc 9B68     		ldr	r3, [r3, #8]
 814 03ce 002B     		cmp	r3, #0
 815 03d0 03DA     		bge	.L27
 471:../src/stm32f30x_adc.c ****   {
 472:../src/stm32f30x_adc.c ****     /* CAL bit is set: calibration on going */
 473:../src/stm32f30x_adc.c ****     bitstatus = SET;
 816              		.loc 1 473 0
 817 03d2 4FF00103 		mov	r3, #1
 818 03d6 FB73     		strb	r3, [r7, #15]
 819 03d8 02E0     		b	.L28
 820              	.L27:
 474:../src/stm32f30x_adc.c ****   }
 475:../src/stm32f30x_adc.c ****   else
 476:../src/stm32f30x_adc.c ****   {
 477:../src/stm32f30x_adc.c ****     /* CAL bit is reset: end of calibration */
 478:../src/stm32f30x_adc.c ****     bitstatus = RESET;
 821              		.loc 1 478 0
 822 03da 4FF00003 		mov	r3, #0
 823 03de FB73     		strb	r3, [r7, #15]
 824              	.L28:
 479:../src/stm32f30x_adc.c ****   }
 480:../src/stm32f30x_adc.c ****   /* Return the CAL bit status */
 481:../src/stm32f30x_adc.c ****   return  bitstatus;
 825              		.loc 1 481 0
 826 03e0 FB7B     		ldrb	r3, [r7, #15]	@ zero_extendqisi2
 482:../src/stm32f30x_adc.c **** }
 827              		.loc 1 482 0
 828 03e2 1846     		mov	r0, r3
 829 03e4 07F11407 		add	r7, r7, #20
 830 03e8 BD46     		mov	sp, r7
 831 03ea 80BC     		pop	{r7}
 832 03ec 7047     		bx	lr
 833              		.cfi_endproc
 834              	.LFE123:
 836 03ee 00BF     		.align	2
 837              		.global	ADC_DisableCmd
 838              		.thumb
 839              		.thumb_func
 841              	ADC_DisableCmd:
 842              	.LFB124:
 483:../src/stm32f30x_adc.c **** 
 484:../src/stm32f30x_adc.c **** /**
 485:../src/stm32f30x_adc.c ****   * @brief  ADC Disable Command.
 486:../src/stm32f30x_adc.c ****   * @param  ADCx: where x can be 1, 2, 3 or 4 to select the ADC peripheral.
 487:../src/stm32f30x_adc.c ****   * @retval None
 488:../src/stm32f30x_adc.c ****   */
 489:../src/stm32f30x_adc.c **** void ADC_DisableCmd(ADC_TypeDef* ADCx)
 490:../src/stm32f30x_adc.c **** {
 843              		.loc 1 490 0
 844              		.cfi_startproc
 845              		@ args = 0, pretend = 0, frame = 8
 846              		@ frame_needed = 1, uses_anonymous_args = 0
 847              		@ link register save eliminated.
 848 03f0 80B4     		push	{r7}
 849              	.LCFI39:
 850              		.cfi_def_cfa_offset 4
 851              		.cfi_offset 7, -4
 852 03f2 83B0     		sub	sp, sp, #12
 853              	.LCFI40:
 854              		.cfi_def_cfa_offset 16
 855 03f4 00AF     		add	r7, sp, #0
 856              	.LCFI41:
 857              		.cfi_def_cfa_register 7
 858 03f6 7860     		str	r0, [r7, #4]
 491:../src/stm32f30x_adc.c ****   /* Check the parameters */
 492:../src/stm32f30x_adc.c ****   assert_param(IS_ADC_ALL_PERIPH(ADCx));
 493:../src/stm32f30x_adc.c **** 
 494:../src/stm32f30x_adc.c ****   /* Set the ADDIS bit */
 495:../src/stm32f30x_adc.c ****   ADCx->CR |= ADC_CR_ADDIS;
 859              		.loc 1 495 0
 860 03f8 7B68     		ldr	r3, [r7, #4]
 861 03fa 9B68     		ldr	r3, [r3, #8]
 862 03fc 43F00202 		orr	r2, r3, #2
 863 0400 7B68     		ldr	r3, [r7, #4]
 864 0402 9A60     		str	r2, [r3, #8]
 496:../src/stm32f30x_adc.c **** }
 865              		.loc 1 496 0
 866 0404 07F10C07 		add	r7, r7, #12
 867 0408 BD46     		mov	sp, r7
 868 040a 80BC     		pop	{r7}
 869 040c 7047     		bx	lr
 870              		.cfi_endproc
 871              	.LFE124:
 873 040e 00BF     		.align	2
 874              		.global	ADC_GetDisableCmdStatus
 875              		.thumb
 876              		.thumb_func
 878              	ADC_GetDisableCmdStatus:
 879              	.LFB125:
 497:../src/stm32f30x_adc.c **** 
 498:../src/stm32f30x_adc.c **** 
 499:../src/stm32f30x_adc.c **** /**
 500:../src/stm32f30x_adc.c ****   * @brief  Gets the selected ADC disable command Status.
 501:../src/stm32f30x_adc.c ****   * @param  ADCx: where x can be 1, 2, 3 or 4 to select the ADC peripheral.
 502:../src/stm32f30x_adc.c ****   * @retval The new state of ADC ADC disable command (SET or RESET).
 503:../src/stm32f30x_adc.c ****   */
 504:../src/stm32f30x_adc.c **** FlagStatus ADC_GetDisableCmdStatus(ADC_TypeDef* ADCx)
 505:../src/stm32f30x_adc.c **** {
 880              		.loc 1 505 0
 881              		.cfi_startproc
 882              		@ args = 0, pretend = 0, frame = 16
 883              		@ frame_needed = 1, uses_anonymous_args = 0
 884              		@ link register save eliminated.
 885 0410 80B4     		push	{r7}
 886              	.LCFI42:
 887              		.cfi_def_cfa_offset 4
 888              		.cfi_offset 7, -4
 889 0412 85B0     		sub	sp, sp, #20
 890              	.LCFI43:
 891              		.cfi_def_cfa_offset 24
 892 0414 00AF     		add	r7, sp, #0
 893              	.LCFI44:
 894              		.cfi_def_cfa_register 7
 895 0416 7860     		str	r0, [r7, #4]
 506:../src/stm32f30x_adc.c ****   FlagStatus bitstatus = RESET;
 896              		.loc 1 506 0
 897 0418 4FF00003 		mov	r3, #0
 898 041c FB73     		strb	r3, [r7, #15]
 507:../src/stm32f30x_adc.c ****   /* Check the parameters */
 508:../src/stm32f30x_adc.c ****   assert_param(IS_ADC_ALL_PERIPH(ADCx));
 509:../src/stm32f30x_adc.c **** 
 510:../src/stm32f30x_adc.c ****   /* Check the status of ADDIS bit */
 511:../src/stm32f30x_adc.c ****   if ((ADCx->CR & ADC_CR_ADDIS) != (uint32_t)RESET)
 899              		.loc 1 511 0
 900 041e 7B68     		ldr	r3, [r7, #4]
 901 0420 9B68     		ldr	r3, [r3, #8]
 902 0422 03F00203 		and	r3, r3, #2
 903 0426 002B     		cmp	r3, #0
 904 0428 03D0     		beq	.L32
 512:../src/stm32f30x_adc.c ****   {
 513:../src/stm32f30x_adc.c ****     /* ADDIS bit is set */
 514:../src/stm32f30x_adc.c ****     bitstatus = SET;
 905              		.loc 1 514 0
 906 042a 4FF00103 		mov	r3, #1
 907 042e FB73     		strb	r3, [r7, #15]
 908 0430 02E0     		b	.L33
 909              	.L32:
 515:../src/stm32f30x_adc.c ****   }
 516:../src/stm32f30x_adc.c ****   else
 517:../src/stm32f30x_adc.c ****   {
 518:../src/stm32f30x_adc.c ****     /* ADDIS bit is reset */
 519:../src/stm32f30x_adc.c ****     bitstatus = RESET;
 910              		.loc 1 519 0
 911 0432 4FF00003 		mov	r3, #0
 912 0436 FB73     		strb	r3, [r7, #15]
 913              	.L33:
 520:../src/stm32f30x_adc.c ****   }
 521:../src/stm32f30x_adc.c ****   /* Return the ADDIS bit status */
 522:../src/stm32f30x_adc.c ****   return  bitstatus;
 914              		.loc 1 522 0
 915 0438 FB7B     		ldrb	r3, [r7, #15]	@ zero_extendqisi2
 523:../src/stm32f30x_adc.c **** }
 916              		.loc 1 523 0
 917 043a 1846     		mov	r0, r3
 918 043c 07F11407 		add	r7, r7, #20
 919 0440 BD46     		mov	sp, r7
 920 0442 80BC     		pop	{r7}
 921 0444 7047     		bx	lr
 922              		.cfi_endproc
 923              	.LFE125:
 925 0446 00BF     		.align	2
 926              		.global	ADC_VoltageRegulatorCmd
 927              		.thumb
 928              		.thumb_func
 930              	ADC_VoltageRegulatorCmd:
 931              	.LFB126:
 524:../src/stm32f30x_adc.c **** 
 525:../src/stm32f30x_adc.c **** /**
 526:../src/stm32f30x_adc.c ****   * @brief  Enables or disables the specified ADC Voltage Regulator.
 527:../src/stm32f30x_adc.c ****   * @param  ADCx: where x can be 1, 2, 3 or 4 to select the ADC peripheral.
 528:../src/stm32f30x_adc.c ****   * @param  NewState: new state of the ADCx Voltage Regulator.
 529:../src/stm32f30x_adc.c ****   *         This parameter can be: ENABLE or DISABLE.
 530:../src/stm32f30x_adc.c ****   * @retval None
 531:../src/stm32f30x_adc.c ****   */
 532:../src/stm32f30x_adc.c **** void ADC_VoltageRegulatorCmd(ADC_TypeDef* ADCx, FunctionalState NewState)
 533:../src/stm32f30x_adc.c **** {
 932              		.loc 1 533 0
 933              		.cfi_startproc
 934              		@ args = 0, pretend = 0, frame = 8
 935              		@ frame_needed = 1, uses_anonymous_args = 0
 936              		@ link register save eliminated.
 937 0448 80B4     		push	{r7}
 938              	.LCFI45:
 939              		.cfi_def_cfa_offset 4
 940              		.cfi_offset 7, -4
 941 044a 83B0     		sub	sp, sp, #12
 942              	.LCFI46:
 943              		.cfi_def_cfa_offset 16
 944 044c 00AF     		add	r7, sp, #0
 945              	.LCFI47:
 946              		.cfi_def_cfa_register 7
 947 044e 7860     		str	r0, [r7, #4]
 948 0450 0B46     		mov	r3, r1
 949 0452 FB70     		strb	r3, [r7, #3]
 534:../src/stm32f30x_adc.c ****   /* Check the parameters */
 535:../src/stm32f30x_adc.c ****   assert_param(IS_ADC_ALL_PERIPH(ADCx));
 536:../src/stm32f30x_adc.c ****   assert_param(IS_FUNCTIONAL_STATE(NewState));
 537:../src/stm32f30x_adc.c **** 
 538:../src/stm32f30x_adc.c ****   /* set the intermediate state before moving the ADC voltage regulator 
 539:../src/stm32f30x_adc.c ****   from enable state to disable state or from disable state to enable state */
 540:../src/stm32f30x_adc.c ****   ADCx->CR &= ~(ADC_CR_ADVREGEN);
 950              		.loc 1 540 0
 951 0454 7B68     		ldr	r3, [r7, #4]
 952 0456 9B68     		ldr	r3, [r3, #8]
 953 0458 23F04052 		bic	r2, r3, #805306368
 954 045c 7B68     		ldr	r3, [r7, #4]
 955 045e 9A60     		str	r2, [r3, #8]
 541:../src/stm32f30x_adc.c ****   
 542:../src/stm32f30x_adc.c ****   if (NewState != DISABLE)
 956              		.loc 1 542 0
 957 0460 FB78     		ldrb	r3, [r7, #3]	@ zero_extendqisi2
 958 0462 002B     		cmp	r3, #0
 959 0464 06D0     		beq	.L36
 543:../src/stm32f30x_adc.c ****   {
 544:../src/stm32f30x_adc.c ****     /* Set the ADVREGEN bit 0 */
 545:../src/stm32f30x_adc.c ****     ADCx->CR |= ADC_CR_ADVREGEN_0;
 960              		.loc 1 545 0
 961 0466 7B68     		ldr	r3, [r7, #4]
 962 0468 9B68     		ldr	r3, [r3, #8]
 963 046a 43F08052 		orr	r2, r3, #268435456
 964 046e 7B68     		ldr	r3, [r7, #4]
 965 0470 9A60     		str	r2, [r3, #8]
 966 0472 05E0     		b	.L35
 967              	.L36:
 546:../src/stm32f30x_adc.c ****   }
 547:../src/stm32f30x_adc.c ****   else
 548:../src/stm32f30x_adc.c ****   {
 549:../src/stm32f30x_adc.c ****     /* Set the ADVREGEN bit 1 */
 550:../src/stm32f30x_adc.c ****     ADCx->CR |=ADC_CR_ADVREGEN_1;
 968              		.loc 1 550 0
 969 0474 7B68     		ldr	r3, [r7, #4]
 970 0476 9B68     		ldr	r3, [r3, #8]
 971 0478 43F00052 		orr	r2, r3, #536870912
 972 047c 7B68     		ldr	r3, [r7, #4]
 973 047e 9A60     		str	r2, [r3, #8]
 974              	.L35:
 551:../src/stm32f30x_adc.c ****   }
 552:../src/stm32f30x_adc.c **** }
 975              		.loc 1 552 0
 976 0480 07F10C07 		add	r7, r7, #12
 977 0484 BD46     		mov	sp, r7
 978 0486 80BC     		pop	{r7}
 979 0488 7047     		bx	lr
 980              		.cfi_endproc
 981              	.LFE126:
 983 048a 00BF     		.align	2
 984              		.global	ADC_SelectDifferentialMode
 985              		.thumb
 986              		.thumb_func
 988              	ADC_SelectDifferentialMode:
 989              	.LFB127:
 553:../src/stm32f30x_adc.c **** 
 554:../src/stm32f30x_adc.c **** /**
 555:../src/stm32f30x_adc.c ****   * @brief  Selectes the differential mode for a specific channel
 556:../src/stm32f30x_adc.c ****   * @param  ADCx: where x can be 1, 2, 3 or 4 to select the ADC peripheral.
 557:../src/stm32f30x_adc.c ****   * @param  ADC_Channel: the ADC channel to configure for the analog watchdog. 
 558:../src/stm32f30x_adc.c ****   *   This parameter can be one of the following values:
 559:../src/stm32f30x_adc.c ****   *     @arg ADC_Channel_1: ADC Channel1 selected
 560:../src/stm32f30x_adc.c ****   *     @arg ADC_Channel_2: ADC Channel2 selected
 561:../src/stm32f30x_adc.c ****   *     @arg ADC_Channel_3: ADC Channel3 selected
 562:../src/stm32f30x_adc.c ****   *     @arg ADC_Channel_4: ADC Channel4 selected
 563:../src/stm32f30x_adc.c ****   *     @arg ADC_Channel_5: ADC Channel5 selected
 564:../src/stm32f30x_adc.c ****   *     @arg ADC_Channel_6: ADC Channel6 selected
 565:../src/stm32f30x_adc.c ****   *     @arg ADC_Channel_7: ADC Channel7 selected
 566:../src/stm32f30x_adc.c ****   *     @arg ADC_Channel_8: ADC Channel8 selected
 567:../src/stm32f30x_adc.c ****   *     @arg ADC_Channel_9: ADC Channel9 selected
 568:../src/stm32f30x_adc.c ****   *     @arg ADC_Channel_10: ADC Channel10 selected
 569:../src/stm32f30x_adc.c ****   *     @arg ADC_Channel_11: ADC Channel11 selected
 570:../src/stm32f30x_adc.c ****   *     @arg ADC_Channel_12: ADC Channel12 selected
 571:../src/stm32f30x_adc.c ****   *     @arg ADC_Channel_13: ADC Channel13 selected
 572:../src/stm32f30x_adc.c ****   *     @arg ADC_Channel_14: ADC Channel14 selected
 573:../src/stm32f30x_adc.c ****   * @note : Channel 15, 16 and 17 are fixed to single-ended inputs mode.
 574:../src/stm32f30x_adc.c ****   * @retval None
 575:../src/stm32f30x_adc.c ****   */
 576:../src/stm32f30x_adc.c **** void ADC_SelectDifferentialMode(ADC_TypeDef* ADCx, uint8_t ADC_Channel, FunctionalState NewState)
 577:../src/stm32f30x_adc.c **** {
 990              		.loc 1 577 0
 991              		.cfi_startproc
 992              		@ args = 0, pretend = 0, frame = 8
 993              		@ frame_needed = 1, uses_anonymous_args = 0
 994              		@ link register save eliminated.
 995 048c 80B4     		push	{r7}
 996              	.LCFI48:
 997              		.cfi_def_cfa_offset 4
 998              		.cfi_offset 7, -4
 999 048e 83B0     		sub	sp, sp, #12
 1000              	.LCFI49:
 1001              		.cfi_def_cfa_offset 16
 1002 0490 00AF     		add	r7, sp, #0
 1003              	.LCFI50:
 1004              		.cfi_def_cfa_register 7
 1005 0492 7860     		str	r0, [r7, #4]
 1006 0494 1346     		mov	r3, r2
 1007 0496 0A46     		mov	r2, r1
 1008 0498 FA70     		strb	r2, [r7, #3]
 1009 049a BB70     		strb	r3, [r7, #2]
 578:../src/stm32f30x_adc.c ****   /* Check the parameters */
 579:../src/stm32f30x_adc.c ****   assert_param(IS_ADC_ALL_PERIPH(ADCx)); 
 580:../src/stm32f30x_adc.c ****   assert_param(IS_ADC_DIFFCHANNEL(ADC_Channel)); 
 581:../src/stm32f30x_adc.c ****   assert_param(IS_FUNCTIONAL_STATE(NewState));
 582:../src/stm32f30x_adc.c **** 
 583:../src/stm32f30x_adc.c ****   if (NewState != DISABLE)
 1010              		.loc 1 583 0
 1011 049c BB78     		ldrb	r3, [r7, #2]	@ zero_extendqisi2
 1012 049e 002B     		cmp	r3, #0
 1013 04a0 0CD0     		beq	.L39
 584:../src/stm32f30x_adc.c ****   {
 585:../src/stm32f30x_adc.c ****     /* Set the DIFSEL bit */
 586:../src/stm32f30x_adc.c ****    ADCx->DIFSEL |= (uint32_t)(1 << ADC_Channel );
 1014              		.loc 1 586 0
 1015 04a2 7B68     		ldr	r3, [r7, #4]
 1016 04a4 D3F8B020 		ldr	r2, [r3, #176]
 1017 04a8 FB78     		ldrb	r3, [r7, #3]	@ zero_extendqisi2
 1018 04aa 4FF00101 		mov	r1, #1
 1019 04ae 01FA03F3 		lsl	r3, r1, r3
 1020 04b2 1A43     		orrs	r2, r2, r3
 1021 04b4 7B68     		ldr	r3, [r7, #4]
 1022 04b6 C3F8B020 		str	r2, [r3, #176]
 1023 04ba 0DE0     		b	.L38
 1024              	.L39:
 587:../src/stm32f30x_adc.c ****   }
 588:../src/stm32f30x_adc.c ****   else
 589:../src/stm32f30x_adc.c ****   {
 590:../src/stm32f30x_adc.c ****     /* Reset the DIFSEL bit */
 591:../src/stm32f30x_adc.c ****    ADCx->DIFSEL &= ~(uint32_t)(1 << ADC_Channel);
 1025              		.loc 1 591 0
 1026 04bc 7B68     		ldr	r3, [r7, #4]
 1027 04be D3F8B020 		ldr	r2, [r3, #176]
 1028 04c2 FB78     		ldrb	r3, [r7, #3]	@ zero_extendqisi2
 1029 04c4 4FF00101 		mov	r1, #1
 1030 04c8 01FA03F3 		lsl	r3, r1, r3
 1031 04cc 6FEA0303 		mvn	r3, r3
 1032 04d0 1A40     		ands	r2, r2, r3
 1033 04d2 7B68     		ldr	r3, [r7, #4]
 1034 04d4 C3F8B020 		str	r2, [r3, #176]
 1035              	.L38:
 592:../src/stm32f30x_adc.c ****   }
 593:../src/stm32f30x_adc.c **** }
 1036              		.loc 1 593 0
 1037 04d8 07F10C07 		add	r7, r7, #12
 1038 04dc BD46     		mov	sp, r7
 1039 04de 80BC     		pop	{r7}
 1040 04e0 7047     		bx	lr
 1041              		.cfi_endproc
 1042              	.LFE127:
 1044 04e2 00BF     		.align	2
 1045              		.global	ADC_SelectQueueOfContextMode
 1046              		.thumb
 1047              		.thumb_func
 1049              	ADC_SelectQueueOfContextMode:
 1050              	.LFB128:
 594:../src/stm32f30x_adc.c **** 
 595:../src/stm32f30x_adc.c **** /**
 596:../src/stm32f30x_adc.c ****   * @brief  Selects the Queue Of Context Mode for injected channels.
 597:../src/stm32f30x_adc.c ****   * @param  ADCx: where x can be 1, 2, 3 or 4 to select the ADC peripheral.
 598:../src/stm32f30x_adc.c ****   * @param  NewState: new state of the Queue Of Context Mode.
 599:../src/stm32f30x_adc.c ****   *   This parameter can be: ENABLE or DISABLE.
 600:../src/stm32f30x_adc.c ****   * @retval None
 601:../src/stm32f30x_adc.c ****   */
 602:../src/stm32f30x_adc.c **** void ADC_SelectQueueOfContextMode(ADC_TypeDef* ADCx, FunctionalState NewState)
 603:../src/stm32f30x_adc.c **** {
 1051              		.loc 1 603 0
 1052              		.cfi_startproc
 1053              		@ args = 0, pretend = 0, frame = 8
 1054              		@ frame_needed = 1, uses_anonymous_args = 0
 1055              		@ link register save eliminated.
 1056 04e4 80B4     		push	{r7}
 1057              	.LCFI51:
 1058              		.cfi_def_cfa_offset 4
 1059              		.cfi_offset 7, -4
 1060 04e6 83B0     		sub	sp, sp, #12
 1061              	.LCFI52:
 1062              		.cfi_def_cfa_offset 16
 1063 04e8 00AF     		add	r7, sp, #0
 1064              	.LCFI53:
 1065              		.cfi_def_cfa_register 7
 1066 04ea 7860     		str	r0, [r7, #4]
 1067 04ec 0B46     		mov	r3, r1
 1068 04ee FB70     		strb	r3, [r7, #3]
 604:../src/stm32f30x_adc.c ****   /* Check the parameters */
 605:../src/stm32f30x_adc.c ****   assert_param(IS_ADC_ALL_PERIPH(ADCx)); 
 606:../src/stm32f30x_adc.c ****   assert_param(IS_FUNCTIONAL_STATE(NewState));
 607:../src/stm32f30x_adc.c **** 
 608:../src/stm32f30x_adc.c ****   if (NewState != DISABLE)
 1069              		.loc 1 608 0
 1070 04f0 FB78     		ldrb	r3, [r7, #3]	@ zero_extendqisi2
 1071 04f2 002B     		cmp	r3, #0
 1072 04f4 06D0     		beq	.L42
 609:../src/stm32f30x_adc.c ****   {
 610:../src/stm32f30x_adc.c ****     /* Set the JQM bit */
 611:../src/stm32f30x_adc.c ****     ADCx->CFGR |= (uint32_t)(ADC_CFGR_JQM );
 1073              		.loc 1 611 0
 1074 04f6 7B68     		ldr	r3, [r7, #4]
 1075 04f8 DB68     		ldr	r3, [r3, #12]
 1076 04fa 43F40012 		orr	r2, r3, #2097152
 1077 04fe 7B68     		ldr	r3, [r7, #4]
 1078 0500 DA60     		str	r2, [r3, #12]
 1079 0502 05E0     		b	.L41
 1080              	.L42:
 612:../src/stm32f30x_adc.c ****   }
 613:../src/stm32f30x_adc.c ****   else
 614:../src/stm32f30x_adc.c ****   {
 615:../src/stm32f30x_adc.c ****     /* Reset the JQM bit */
 616:../src/stm32f30x_adc.c ****     ADCx->CFGR &= ~(uint32_t)(ADC_CFGR_JQM);
 1081              		.loc 1 616 0
 1082 0504 7B68     		ldr	r3, [r7, #4]
 1083 0506 DB68     		ldr	r3, [r3, #12]
 1084 0508 23F40012 		bic	r2, r3, #2097152
 1085 050c 7B68     		ldr	r3, [r7, #4]
 1086 050e DA60     		str	r2, [r3, #12]
 1087              	.L41:
 617:../src/stm32f30x_adc.c ****   }
 618:../src/stm32f30x_adc.c **** }
 1088              		.loc 1 618 0
 1089 0510 07F10C07 		add	r7, r7, #12
 1090 0514 BD46     		mov	sp, r7
 1091 0516 80BC     		pop	{r7}
 1092 0518 7047     		bx	lr
 1093              		.cfi_endproc
 1094              	.LFE128:
 1096 051a 00BF     		.align	2
 1097              		.global	ADC_AutoDelayCmd
 1098              		.thumb
 1099              		.thumb_func
 1101              	ADC_AutoDelayCmd:
 1102              	.LFB129:
 619:../src/stm32f30x_adc.c **** 
 620:../src/stm32f30x_adc.c **** /**
 621:../src/stm32f30x_adc.c ****   * @brief  Selects the ADC Delayed Conversion Mode.
 622:../src/stm32f30x_adc.c ****   * @param  ADCx: where x can be 1, 2, 3 or 4 to select the ADC peripheral.
 623:../src/stm32f30x_adc.c ****   * @param  NewState: new state of the ADC Delayed Conversion Mode.
 624:../src/stm32f30x_adc.c ****   *   This parameter can be: ENABLE or DISABLE.
 625:../src/stm32f30x_adc.c ****   * @retval None
 626:../src/stm32f30x_adc.c ****   */
 627:../src/stm32f30x_adc.c **** void ADC_AutoDelayCmd(ADC_TypeDef* ADCx, FunctionalState NewState)
 628:../src/stm32f30x_adc.c **** {
 1103              		.loc 1 628 0
 1104              		.cfi_startproc
 1105              		@ args = 0, pretend = 0, frame = 8
 1106              		@ frame_needed = 1, uses_anonymous_args = 0
 1107              		@ link register save eliminated.
 1108 051c 80B4     		push	{r7}
 1109              	.LCFI54:
 1110              		.cfi_def_cfa_offset 4
 1111              		.cfi_offset 7, -4
 1112 051e 83B0     		sub	sp, sp, #12
 1113              	.LCFI55:
 1114              		.cfi_def_cfa_offset 16
 1115 0520 00AF     		add	r7, sp, #0
 1116              	.LCFI56:
 1117              		.cfi_def_cfa_register 7
 1118 0522 7860     		str	r0, [r7, #4]
 1119 0524 0B46     		mov	r3, r1
 1120 0526 FB70     		strb	r3, [r7, #3]
 629:../src/stm32f30x_adc.c ****   /* Check the parameters */
 630:../src/stm32f30x_adc.c ****   assert_param(IS_ADC_ALL_PERIPH(ADCx)); 
 631:../src/stm32f30x_adc.c ****   assert_param(IS_FUNCTIONAL_STATE(NewState));
 632:../src/stm32f30x_adc.c **** 
 633:../src/stm32f30x_adc.c ****   if (NewState != DISABLE)
 1121              		.loc 1 633 0
 1122 0528 FB78     		ldrb	r3, [r7, #3]	@ zero_extendqisi2
 1123 052a 002B     		cmp	r3, #0
 1124 052c 06D0     		beq	.L45
 634:../src/stm32f30x_adc.c ****   {
 635:../src/stm32f30x_adc.c ****     /* Set the AUTDLY bit */
 636:../src/stm32f30x_adc.c ****     ADCx->CFGR |= (uint32_t)(ADC_CFGR_AUTDLY );
 1125              		.loc 1 636 0
 1126 052e 7B68     		ldr	r3, [r7, #4]
 1127 0530 DB68     		ldr	r3, [r3, #12]
 1128 0532 43F48042 		orr	r2, r3, #16384
 1129 0536 7B68     		ldr	r3, [r7, #4]
 1130 0538 DA60     		str	r2, [r3, #12]
 1131 053a 05E0     		b	.L44
 1132              	.L45:
 637:../src/stm32f30x_adc.c ****   }
 638:../src/stm32f30x_adc.c ****   else
 639:../src/stm32f30x_adc.c ****   {
 640:../src/stm32f30x_adc.c ****     /* Reset the AUTDLY bit */
 641:../src/stm32f30x_adc.c ****     ADCx->CFGR &= ~(uint32_t)(ADC_CFGR_AUTDLY);
 1133              		.loc 1 641 0
 1134 053c 7B68     		ldr	r3, [r7, #4]
 1135 053e DB68     		ldr	r3, [r3, #12]
 1136 0540 23F48042 		bic	r2, r3, #16384
 1137 0544 7B68     		ldr	r3, [r7, #4]
 1138 0546 DA60     		str	r2, [r3, #12]
 1139              	.L44:
 642:../src/stm32f30x_adc.c ****   }
 643:../src/stm32f30x_adc.c **** }
 1140              		.loc 1 643 0
 1141 0548 07F10C07 		add	r7, r7, #12
 1142 054c BD46     		mov	sp, r7
 1143 054e 80BC     		pop	{r7}
 1144 0550 7047     		bx	lr
 1145              		.cfi_endproc
 1146              	.LFE129:
 1148 0552 00BF     		.align	2
 1149              		.global	ADC_AnalogWatchdogCmd
 1150              		.thumb
 1151              		.thumb_func
 1153              	ADC_AnalogWatchdogCmd:
 1154              	.LFB130:
 644:../src/stm32f30x_adc.c **** 
 645:../src/stm32f30x_adc.c **** /**
 646:../src/stm32f30x_adc.c ****   * @}
 647:../src/stm32f30x_adc.c ****   */
 648:../src/stm32f30x_adc.c **** 
 649:../src/stm32f30x_adc.c **** /** @defgroup ADC_Group2 Analog Watchdog configuration functions
 650:../src/stm32f30x_adc.c ****  *  @brief   Analog Watchdog configuration functions 
 651:../src/stm32f30x_adc.c ****  *
 652:../src/stm32f30x_adc.c **** @verbatim   
 653:../src/stm32f30x_adc.c ****  ===============================================================================
 654:../src/stm32f30x_adc.c ****                     ##### Analog Watchdog configuration functions #####
 655:../src/stm32f30x_adc.c ****  ===============================================================================  
 656:../src/stm32f30x_adc.c **** 
 657:../src/stm32f30x_adc.c ****   [..] This section provides functions allowing to configure the 3 Analog Watchdogs 
 658:../src/stm32f30x_adc.c ****        (AWDG1, AWDG2 and AWDG3) in the ADC.
 659:../src/stm32f30x_adc.c ****   
 660:../src/stm32f30x_adc.c ****   [..] A typical configuration Analog Watchdog is done following these steps :
 661:../src/stm32f30x_adc.c ****    (#) The ADC guarded channel(s) is (are) selected using the functions: 
 662:../src/stm32f30x_adc.c ****       (++) ADC_AnalogWatchdog1SingleChannelConfig().
 663:../src/stm32f30x_adc.c ****       (++) ADC_AnalogWatchdog2SingleChannelConfig().
 664:../src/stm32f30x_adc.c ****       (++) ADC_AnalogWatchdog3SingleChannelConfig().
 665:../src/stm32f30x_adc.c **** 
 666:../src/stm32f30x_adc.c ****    (#) The Analog watchdog lower and higher threshold are configured using the functions: 
 667:../src/stm32f30x_adc.c ****       (++) ADC_AnalogWatchdog1ThresholdsConfig().
 668:../src/stm32f30x_adc.c ****       (++) ADC_AnalogWatchdog2ThresholdsConfig().
 669:../src/stm32f30x_adc.c ****       (++) ADC_AnalogWatchdog3ThresholdsConfig().
 670:../src/stm32f30x_adc.c **** 
 671:../src/stm32f30x_adc.c ****    (#) The Analog watchdog is enabled and configured to enable the check, on one
 672:../src/stm32f30x_adc.c ****       or more channels, using the function:
 673:../src/stm32f30x_adc.c ****       (++) ADC_AnalogWatchdogCmd().
 674:../src/stm32f30x_adc.c **** 
 675:../src/stm32f30x_adc.c **** @endverbatim
 676:../src/stm32f30x_adc.c ****   * @{
 677:../src/stm32f30x_adc.c ****   */
 678:../src/stm32f30x_adc.c **** 
 679:../src/stm32f30x_adc.c **** /**
 680:../src/stm32f30x_adc.c ****   * @brief  Enables or disables the analog watchdog on single/all regular
 681:../src/stm32f30x_adc.c ****   *         or injected channels
 682:../src/stm32f30x_adc.c ****   * @param  ADCx: where x can be 1, 2, 3 or 4 to select the ADC peripheral.
 683:../src/stm32f30x_adc.c ****   * @param  ADC_AnalogWatchdog: the ADC analog watchdog configuration.
 684:../src/stm32f30x_adc.c ****   *   This parameter can be one of the following values:
 685:../src/stm32f30x_adc.c ****   *     @arg ADC_AnalogWatchdog_SingleRegEnable: Analog watchdog on a single regular channel
 686:../src/stm32f30x_adc.c ****   *     @arg ADC_AnalogWatchdog_SingleInjecEnable: Analog watchdog on a single injected channel
 687:../src/stm32f30x_adc.c ****   *     @arg ADC_AnalogWatchdog_SingleRegOrInjecEnable: Analog watchdog on a single regular or inje
 688:../src/stm32f30x_adc.c ****   *     @arg ADC_AnalogWatchdog_AllRegEnable: Analog watchdog on  all regular channel
 689:../src/stm32f30x_adc.c ****   *     @arg ADC_AnalogWatchdog_AllInjecEnable: Analog watchdog on  all injected channel
 690:../src/stm32f30x_adc.c ****   *     @arg ADC_AnalogWatchdog_AllRegAllInjecEnable: Analog watchdog on all regular and injected c
 691:../src/stm32f30x_adc.c ****   *     @arg ADC_AnalogWatchdog_None: No channel guarded by the analog watchdog
 692:../src/stm32f30x_adc.c ****   * @retval None	  
 693:../src/stm32f30x_adc.c ****   */
 694:../src/stm32f30x_adc.c **** void ADC_AnalogWatchdogCmd(ADC_TypeDef* ADCx, uint32_t ADC_AnalogWatchdog)
 695:../src/stm32f30x_adc.c **** {
 1155              		.loc 1 695 0
 1156              		.cfi_startproc
 1157              		@ args = 0, pretend = 0, frame = 16
 1158              		@ frame_needed = 1, uses_anonymous_args = 0
 1159              		@ link register save eliminated.
 1160 0554 80B4     		push	{r7}
 1161              	.LCFI57:
 1162              		.cfi_def_cfa_offset 4
 1163              		.cfi_offset 7, -4
 1164 0556 85B0     		sub	sp, sp, #20
 1165              	.LCFI58:
 1166              		.cfi_def_cfa_offset 24
 1167 0558 00AF     		add	r7, sp, #0
 1168              	.LCFI59:
 1169              		.cfi_def_cfa_register 7
 1170 055a 7860     		str	r0, [r7, #4]
 1171 055c 3960     		str	r1, [r7, #0]
 696:../src/stm32f30x_adc.c ****   uint32_t tmpreg = 0;
 1172              		.loc 1 696 0
 1173 055e 4FF00003 		mov	r3, #0
 1174 0562 FB60     		str	r3, [r7, #12]
 697:../src/stm32f30x_adc.c ****   /* Check the parameters */
 698:../src/stm32f30x_adc.c ****   assert_param(IS_ADC_ALL_PERIPH(ADCx));
 699:../src/stm32f30x_adc.c ****   assert_param(IS_ADC_ANALOG_WATCHDOG(ADC_AnalogWatchdog));
 700:../src/stm32f30x_adc.c ****   /* Get the old register value */
 701:../src/stm32f30x_adc.c ****   tmpreg = ADCx->CFGR;
 1175              		.loc 1 701 0
 1176 0564 7B68     		ldr	r3, [r7, #4]
 1177 0566 DB68     		ldr	r3, [r3, #12]
 1178 0568 FB60     		str	r3, [r7, #12]
 702:../src/stm32f30x_adc.c ****   /* Clear AWDEN, AWDENJ and AWDSGL bits */
 703:../src/stm32f30x_adc.c ****   tmpreg &= ~(uint32_t)(ADC_CFGR_AWD1SGL|ADC_CFGR_AWD1EN|ADC_CFGR_JAWD1EN);
 1179              		.loc 1 703 0
 1180 056a FB68     		ldr	r3, [r7, #12]
 1181 056c 23F0E073 		bic	r3, r3, #29360128
 1182 0570 FB60     		str	r3, [r7, #12]
 704:../src/stm32f30x_adc.c ****   /* Set the analog watchdog enable mode */
 705:../src/stm32f30x_adc.c ****   tmpreg |= ADC_AnalogWatchdog;
 1183              		.loc 1 705 0
 1184 0572 FA68     		ldr	r2, [r7, #12]
 1185 0574 3B68     		ldr	r3, [r7, #0]
 1186 0576 1343     		orrs	r3, r3, r2
 1187 0578 FB60     		str	r3, [r7, #12]
 706:../src/stm32f30x_adc.c ****   /* Store the new register value */
 707:../src/stm32f30x_adc.c ****   ADCx->CFGR = tmpreg;
 1188              		.loc 1 707 0
 1189 057a 7B68     		ldr	r3, [r7, #4]
 1190 057c FA68     		ldr	r2, [r7, #12]
 1191 057e DA60     		str	r2, [r3, #12]
 708:../src/stm32f30x_adc.c **** }
 1192              		.loc 1 708 0
 1193 0580 07F11407 		add	r7, r7, #20
 1194 0584 BD46     		mov	sp, r7
 1195 0586 80BC     		pop	{r7}
 1196 0588 7047     		bx	lr
 1197              		.cfi_endproc
 1198              	.LFE130:
 1200 058a 00BF     		.align	2
 1201              		.global	ADC_AnalogWatchdog1ThresholdsConfig
 1202              		.thumb
 1203              		.thumb_func
 1205              	ADC_AnalogWatchdog1ThresholdsConfig:
 1206              	.LFB131:
 709:../src/stm32f30x_adc.c **** 
 710:../src/stm32f30x_adc.c **** /**
 711:../src/stm32f30x_adc.c ****   * @brief  Configures the high and low thresholds of the analog watchdog1.
 712:../src/stm32f30x_adc.c ****   * @param  ADCx: where x can be 1, 2, 3 or 4 to select the ADC peripheral.
 713:../src/stm32f30x_adc.c ****   * @param  HighThreshold: the ADC analog watchdog High threshold value.
 714:../src/stm32f30x_adc.c ****   *   This parameter must be a 12bit value.
 715:../src/stm32f30x_adc.c ****   * @param  LowThreshold: the ADC analog watchdog Low threshold value.
 716:../src/stm32f30x_adc.c ****   *   This parameter must be a 12bit value.
 717:../src/stm32f30x_adc.c ****   * @retval None
 718:../src/stm32f30x_adc.c ****   */
 719:../src/stm32f30x_adc.c **** void ADC_AnalogWatchdog1ThresholdsConfig(ADC_TypeDef* ADCx, uint16_t HighThreshold,
 720:../src/stm32f30x_adc.c ****                                          uint16_t LowThreshold)
 721:../src/stm32f30x_adc.c **** {
 1207              		.loc 1 721 0
 1208              		.cfi_startproc
 1209              		@ args = 0, pretend = 0, frame = 8
 1210              		@ frame_needed = 1, uses_anonymous_args = 0
 1211              		@ link register save eliminated.
 1212 058c 80B4     		push	{r7}
 1213              	.LCFI60:
 1214              		.cfi_def_cfa_offset 4
 1215              		.cfi_offset 7, -4
 1216 058e 83B0     		sub	sp, sp, #12
 1217              	.LCFI61:
 1218              		.cfi_def_cfa_offset 16
 1219 0590 00AF     		add	r7, sp, #0
 1220              	.LCFI62:
 1221              		.cfi_def_cfa_register 7
 1222 0592 7860     		str	r0, [r7, #4]
 1223 0594 1346     		mov	r3, r2
 1224 0596 0A46     		mov	r2, r1	@ movhi
 1225 0598 7A80     		strh	r2, [r7, #2]	@ movhi
 1226 059a 3B80     		strh	r3, [r7, #0]	@ movhi
 722:../src/stm32f30x_adc.c ****   /* Check the parameters */
 723:../src/stm32f30x_adc.c ****   assert_param(IS_ADC_ALL_PERIPH(ADCx));
 724:../src/stm32f30x_adc.c ****   assert_param(IS_ADC_THRESHOLD(HighThreshold));
 725:../src/stm32f30x_adc.c ****   assert_param(IS_ADC_THRESHOLD(LowThreshold));
 726:../src/stm32f30x_adc.c ****   /* Set the ADCx high threshold */
 727:../src/stm32f30x_adc.c ****   ADCx->TR1 &= ~(uint32_t)ADC_TR1_HT1;
 1227              		.loc 1 727 0
 1228 059c 7B68     		ldr	r3, [r7, #4]
 1229 059e 1B6A     		ldr	r3, [r3, #32]
 1230 05a0 23F07F63 		bic	r3, r3, #267386880
 1231 05a4 23F47023 		bic	r3, r3, #983040
 1232 05a8 7A68     		ldr	r2, [r7, #4]
 1233 05aa 1362     		str	r3, [r2, #32]
 728:../src/stm32f30x_adc.c ****   ADCx->TR1 |= (uint32_t)((uint32_t)HighThreshold << 16);
 1234              		.loc 1 728 0
 1235 05ac 7B68     		ldr	r3, [r7, #4]
 1236 05ae 1A6A     		ldr	r2, [r3, #32]
 1237 05b0 7B88     		ldrh	r3, [r7, #2]
 1238 05b2 4FEA0343 		lsl	r3, r3, #16
 1239 05b6 1A43     		orrs	r2, r2, r3
 1240 05b8 7B68     		ldr	r3, [r7, #4]
 1241 05ba 1A62     		str	r2, [r3, #32]
 729:../src/stm32f30x_adc.c **** 
 730:../src/stm32f30x_adc.c ****   /* Set the ADCx low threshold */
 731:../src/stm32f30x_adc.c ****   ADCx->TR1 &= ~(uint32_t)ADC_TR1_LT1;
 1242              		.loc 1 731 0
 1243 05bc 7B68     		ldr	r3, [r7, #4]
 1244 05be 1B6A     		ldr	r3, [r3, #32]
 1245 05c0 23F47F63 		bic	r3, r3, #4080
 1246 05c4 23F00F03 		bic	r3, r3, #15
 1247 05c8 7A68     		ldr	r2, [r7, #4]
 1248 05ca 1362     		str	r3, [r2, #32]
 732:../src/stm32f30x_adc.c ****   ADCx->TR1 |= LowThreshold;
 1249              		.loc 1 732 0
 1250 05cc 7B68     		ldr	r3, [r7, #4]
 1251 05ce 1A6A     		ldr	r2, [r3, #32]
 1252 05d0 3B88     		ldrh	r3, [r7, #0]
 1253 05d2 1A43     		orrs	r2, r2, r3
 1254 05d4 7B68     		ldr	r3, [r7, #4]
 1255 05d6 1A62     		str	r2, [r3, #32]
 733:../src/stm32f30x_adc.c **** }
 1256              		.loc 1 733 0
 1257 05d8 07F10C07 		add	r7, r7, #12
 1258 05dc BD46     		mov	sp, r7
 1259 05de 80BC     		pop	{r7}
 1260 05e0 7047     		bx	lr
 1261              		.cfi_endproc
 1262              	.LFE131:
 1264 05e2 00BF     		.align	2
 1265              		.global	ADC_AnalogWatchdog2ThresholdsConfig
 1266              		.thumb
 1267              		.thumb_func
 1269              	ADC_AnalogWatchdog2ThresholdsConfig:
 1270              	.LFB132:
 734:../src/stm32f30x_adc.c **** 
 735:../src/stm32f30x_adc.c **** /**
 736:../src/stm32f30x_adc.c ****   * @brief  Configures the high and low thresholds of the analog watchdog2.
 737:../src/stm32f30x_adc.c ****   * @param  ADCx: where x can be 1, 2, 3 or 4 to select the ADC peripheral.
 738:../src/stm32f30x_adc.c ****   * @param  HighThreshold: the ADC analog watchdog High threshold value.
 739:../src/stm32f30x_adc.c ****   *   This parameter must be a 8bit value.
 740:../src/stm32f30x_adc.c ****   * @param  LowThreshold: the ADC analog watchdog Low threshold value.
 741:../src/stm32f30x_adc.c ****   *   This parameter must be a 8bit value.
 742:../src/stm32f30x_adc.c ****   * @retval None
 743:../src/stm32f30x_adc.c ****   */
 744:../src/stm32f30x_adc.c **** void ADC_AnalogWatchdog2ThresholdsConfig(ADC_TypeDef* ADCx, uint8_t HighThreshold,
 745:../src/stm32f30x_adc.c ****                                          uint8_t LowThreshold)
 746:../src/stm32f30x_adc.c **** {
 1271              		.loc 1 746 0
 1272              		.cfi_startproc
 1273              		@ args = 0, pretend = 0, frame = 8
 1274              		@ frame_needed = 1, uses_anonymous_args = 0
 1275              		@ link register save eliminated.
 1276 05e4 80B4     		push	{r7}
 1277              	.LCFI63:
 1278              		.cfi_def_cfa_offset 4
 1279              		.cfi_offset 7, -4
 1280 05e6 83B0     		sub	sp, sp, #12
 1281              	.LCFI64:
 1282              		.cfi_def_cfa_offset 16
 1283 05e8 00AF     		add	r7, sp, #0
 1284              	.LCFI65:
 1285              		.cfi_def_cfa_register 7
 1286 05ea 7860     		str	r0, [r7, #4]
 1287 05ec 1346     		mov	r3, r2
 1288 05ee 0A46     		mov	r2, r1
 1289 05f0 FA70     		strb	r2, [r7, #3]
 1290 05f2 BB70     		strb	r3, [r7, #2]
 747:../src/stm32f30x_adc.c ****   /* Check the parameters */
 748:../src/stm32f30x_adc.c ****   assert_param(IS_ADC_ALL_PERIPH(ADCx));
 749:../src/stm32f30x_adc.c ****   
 750:../src/stm32f30x_adc.c ****   /* Set the ADCx high threshold */
 751:../src/stm32f30x_adc.c ****   ADCx->TR2 &= ~(uint32_t)ADC_TR2_HT2;
 1291              		.loc 1 751 0
 1292 05f4 7B68     		ldr	r3, [r7, #4]
 1293 05f6 5B6A     		ldr	r3, [r3, #36]
 1294 05f8 23F47F02 		bic	r2, r3, #16711680
 1295 05fc 7B68     		ldr	r3, [r7, #4]
 1296 05fe 5A62     		str	r2, [r3, #36]
 752:../src/stm32f30x_adc.c ****   ADCx->TR2 |= (uint32_t)((uint32_t)HighThreshold << 16);
 1297              		.loc 1 752 0
 1298 0600 7B68     		ldr	r3, [r7, #4]
 1299 0602 5A6A     		ldr	r2, [r3, #36]
 1300 0604 FB78     		ldrb	r3, [r7, #3]	@ zero_extendqisi2
 1301 0606 4FEA0343 		lsl	r3, r3, #16
 1302 060a 1A43     		orrs	r2, r2, r3
 1303 060c 7B68     		ldr	r3, [r7, #4]
 1304 060e 5A62     		str	r2, [r3, #36]
 753:../src/stm32f30x_adc.c **** 
 754:../src/stm32f30x_adc.c ****   /* Set the ADCx low threshold */
 755:../src/stm32f30x_adc.c ****   ADCx->TR2 &= ~(uint32_t)ADC_TR2_LT2;
 1305              		.loc 1 755 0
 1306 0610 7B68     		ldr	r3, [r7, #4]
 1307 0612 5B6A     		ldr	r3, [r3, #36]
 1308 0614 23F0FF02 		bic	r2, r3, #255
 1309 0618 7B68     		ldr	r3, [r7, #4]
 1310 061a 5A62     		str	r2, [r3, #36]
 756:../src/stm32f30x_adc.c ****   ADCx->TR2 |= LowThreshold;
 1311              		.loc 1 756 0
 1312 061c 7B68     		ldr	r3, [r7, #4]
 1313 061e 5A6A     		ldr	r2, [r3, #36]
 1314 0620 BB78     		ldrb	r3, [r7, #2]	@ zero_extendqisi2
 1315 0622 1A43     		orrs	r2, r2, r3
 1316 0624 7B68     		ldr	r3, [r7, #4]
 1317 0626 5A62     		str	r2, [r3, #36]
 757:../src/stm32f30x_adc.c **** }
 1318              		.loc 1 757 0
 1319 0628 07F10C07 		add	r7, r7, #12
 1320 062c BD46     		mov	sp, r7
 1321 062e 80BC     		pop	{r7}
 1322 0630 7047     		bx	lr
 1323              		.cfi_endproc
 1324              	.LFE132:
 1326 0632 00BF     		.align	2
 1327              		.global	ADC_AnalogWatchdog3ThresholdsConfig
 1328              		.thumb
 1329              		.thumb_func
 1331              	ADC_AnalogWatchdog3ThresholdsConfig:
 1332              	.LFB133:
 758:../src/stm32f30x_adc.c **** 
 759:../src/stm32f30x_adc.c **** /**
 760:../src/stm32f30x_adc.c ****   * @brief  Configures the high and low thresholds of the analog watchdog3.
 761:../src/stm32f30x_adc.c ****   * @param  ADCx: where x can be 1, 2, 3 or 4 to select the ADC peripheral.
 762:../src/stm32f30x_adc.c ****   * @param  HighThreshold: the ADC analog watchdog High threshold value.
 763:../src/stm32f30x_adc.c ****   *   This parameter must be a 8bit value.
 764:../src/stm32f30x_adc.c ****   * @param  LowThreshold: the ADC analog watchdog Low threshold value.
 765:../src/stm32f30x_adc.c ****   *   This parameter must be a 8bit value.
 766:../src/stm32f30x_adc.c ****   * @retval None
 767:../src/stm32f30x_adc.c ****   */
 768:../src/stm32f30x_adc.c **** void ADC_AnalogWatchdog3ThresholdsConfig(ADC_TypeDef* ADCx, uint8_t HighThreshold,
 769:../src/stm32f30x_adc.c ****                                          uint8_t LowThreshold)
 770:../src/stm32f30x_adc.c **** {
 1333              		.loc 1 770 0
 1334              		.cfi_startproc
 1335              		@ args = 0, pretend = 0, frame = 8
 1336              		@ frame_needed = 1, uses_anonymous_args = 0
 1337              		@ link register save eliminated.
 1338 0634 80B4     		push	{r7}
 1339              	.LCFI66:
 1340              		.cfi_def_cfa_offset 4
 1341              		.cfi_offset 7, -4
 1342 0636 83B0     		sub	sp, sp, #12
 1343              	.LCFI67:
 1344              		.cfi_def_cfa_offset 16
 1345 0638 00AF     		add	r7, sp, #0
 1346              	.LCFI68:
 1347              		.cfi_def_cfa_register 7
 1348 063a 7860     		str	r0, [r7, #4]
 1349 063c 1346     		mov	r3, r2
 1350 063e 0A46     		mov	r2, r1
 1351 0640 FA70     		strb	r2, [r7, #3]
 1352 0642 BB70     		strb	r3, [r7, #2]
 771:../src/stm32f30x_adc.c ****   /* Check the parameters */
 772:../src/stm32f30x_adc.c ****   assert_param(IS_ADC_ALL_PERIPH(ADCx));
 773:../src/stm32f30x_adc.c **** 
 774:../src/stm32f30x_adc.c ****   /* Set the ADCx high threshold */
 775:../src/stm32f30x_adc.c ****   ADCx->TR3 &= ~(uint32_t)ADC_TR3_HT3;
 1353              		.loc 1 775 0
 1354 0644 7B68     		ldr	r3, [r7, #4]
 1355 0646 9B6A     		ldr	r3, [r3, #40]
 1356 0648 23F47F02 		bic	r2, r3, #16711680
 1357 064c 7B68     		ldr	r3, [r7, #4]
 1358 064e 9A62     		str	r2, [r3, #40]
 776:../src/stm32f30x_adc.c ****   ADCx->TR3 |= (uint32_t)((uint32_t)HighThreshold << 16);
 1359              		.loc 1 776 0
 1360 0650 7B68     		ldr	r3, [r7, #4]
 1361 0652 9A6A     		ldr	r2, [r3, #40]
 1362 0654 FB78     		ldrb	r3, [r7, #3]	@ zero_extendqisi2
 1363 0656 4FEA0343 		lsl	r3, r3, #16
 1364 065a 1A43     		orrs	r2, r2, r3
 1365 065c 7B68     		ldr	r3, [r7, #4]
 1366 065e 9A62     		str	r2, [r3, #40]
 777:../src/stm32f30x_adc.c **** 
 778:../src/stm32f30x_adc.c ****   /* Set the ADCx low threshold */
 779:../src/stm32f30x_adc.c ****   ADCx->TR3 &= ~(uint32_t)ADC_TR3_LT3;
 1367              		.loc 1 779 0
 1368 0660 7B68     		ldr	r3, [r7, #4]
 1369 0662 9B6A     		ldr	r3, [r3, #40]
 1370 0664 23F0FF02 		bic	r2, r3, #255
 1371 0668 7B68     		ldr	r3, [r7, #4]
 1372 066a 9A62     		str	r2, [r3, #40]
 780:../src/stm32f30x_adc.c ****   ADCx->TR3 |= LowThreshold;
 1373              		.loc 1 780 0
 1374 066c 7B68     		ldr	r3, [r7, #4]
 1375 066e 9A6A     		ldr	r2, [r3, #40]
 1376 0670 BB78     		ldrb	r3, [r7, #2]	@ zero_extendqisi2
 1377 0672 1A43     		orrs	r2, r2, r3
 1378 0674 7B68     		ldr	r3, [r7, #4]
 1379 0676 9A62     		str	r2, [r3, #40]
 781:../src/stm32f30x_adc.c **** }
 1380              		.loc 1 781 0
 1381 0678 07F10C07 		add	r7, r7, #12
 1382 067c BD46     		mov	sp, r7
 1383 067e 80BC     		pop	{r7}
 1384 0680 7047     		bx	lr
 1385              		.cfi_endproc
 1386              	.LFE133:
 1388 0682 00BF     		.align	2
 1389              		.global	ADC_AnalogWatchdog1SingleChannelConfig
 1390              		.thumb
 1391              		.thumb_func
 1393              	ADC_AnalogWatchdog1SingleChannelConfig:
 1394              	.LFB134:
 782:../src/stm32f30x_adc.c **** 
 783:../src/stm32f30x_adc.c **** /**
 784:../src/stm32f30x_adc.c ****   * @brief  Configures the analog watchdog 2 guarded single channel
 785:../src/stm32f30x_adc.c ****   * @param  ADCx: where x can be 1, 2, 3 or 4 to select the ADC peripheral.
 786:../src/stm32f30x_adc.c ****   * @param  ADC_Channel: the ADC channel to configure for the analog watchdog. 
 787:../src/stm32f30x_adc.c ****   *   This parameter can be one of the following values:
 788:../src/stm32f30x_adc.c ****   *     @arg ADC_Channel_1: ADC Channel1 selected
 789:../src/stm32f30x_adc.c ****   *     @arg ADC_Channel_2: ADC Channel2 selected
 790:../src/stm32f30x_adc.c ****   *     @arg ADC_Channel_3: ADC Channel3 selected
 791:../src/stm32f30x_adc.c ****   *     @arg ADC_Channel_4: ADC Channel4 selected
 792:../src/stm32f30x_adc.c ****   *     @arg ADC_Channel_5: ADC Channel5 selected
 793:../src/stm32f30x_adc.c ****   *     @arg ADC_Channel_6: ADC Channel6 selected
 794:../src/stm32f30x_adc.c ****   *     @arg ADC_Channel_7: ADC Channel7 selected
 795:../src/stm32f30x_adc.c ****   *     @arg ADC_Channel_8: ADC Channel8 selected
 796:../src/stm32f30x_adc.c ****   *     @arg ADC_Channel_9: ADC Channel9 selected
 797:../src/stm32f30x_adc.c ****   *     @arg ADC_Channel_10: ADC Channel10 selected
 798:../src/stm32f30x_adc.c ****   *     @arg ADC_Channel_11: ADC Channel11 selected
 799:../src/stm32f30x_adc.c ****   *     @arg ADC_Channel_12: ADC Channel12 selected
 800:../src/stm32f30x_adc.c ****   *     @arg ADC_Channel_13: ADC Channel13 selected
 801:../src/stm32f30x_adc.c ****   *     @arg ADC_Channel_14: ADC Channel14 selected
 802:../src/stm32f30x_adc.c ****   *     @arg ADC_Channel_15: ADC Channel15 selected
 803:../src/stm32f30x_adc.c ****   *     @arg ADC_Channel_16: ADC Channel16 selected
 804:../src/stm32f30x_adc.c ****   *     @arg ADC_Channel_17: ADC Channel17 selected
 805:../src/stm32f30x_adc.c ****   *     @arg ADC_Channel_18: ADC Channel18 selected
 806:../src/stm32f30x_adc.c ****   * @retval None
 807:../src/stm32f30x_adc.c ****   */
 808:../src/stm32f30x_adc.c **** void ADC_AnalogWatchdog1SingleChannelConfig(ADC_TypeDef* ADCx, uint8_t ADC_Channel)
 809:../src/stm32f30x_adc.c **** {
 1395              		.loc 1 809 0
 1396              		.cfi_startproc
 1397              		@ args = 0, pretend = 0, frame = 16
 1398              		@ frame_needed = 1, uses_anonymous_args = 0
 1399              		@ link register save eliminated.
 1400 0684 80B4     		push	{r7}
 1401              	.LCFI69:
 1402              		.cfi_def_cfa_offset 4
 1403              		.cfi_offset 7, -4
 1404 0686 85B0     		sub	sp, sp, #20
 1405              	.LCFI70:
 1406              		.cfi_def_cfa_offset 24
 1407 0688 00AF     		add	r7, sp, #0
 1408              	.LCFI71:
 1409              		.cfi_def_cfa_register 7
 1410 068a 7860     		str	r0, [r7, #4]
 1411 068c 0B46     		mov	r3, r1
 1412 068e FB70     		strb	r3, [r7, #3]
 810:../src/stm32f30x_adc.c ****   uint32_t tmpreg = 0;
 1413              		.loc 1 810 0
 1414 0690 4FF00003 		mov	r3, #0
 1415 0694 FB60     		str	r3, [r7, #12]
 811:../src/stm32f30x_adc.c ****   /* Check the parameters */
 812:../src/stm32f30x_adc.c ****   assert_param(IS_ADC_ALL_PERIPH(ADCx));
 813:../src/stm32f30x_adc.c ****   assert_param(IS_ADC_CHANNEL(ADC_Channel));
 814:../src/stm32f30x_adc.c ****   /* Get the old register value */
 815:../src/stm32f30x_adc.c ****   tmpreg = ADCx->CFGR;
 1416              		.loc 1 815 0
 1417 0696 7B68     		ldr	r3, [r7, #4]
 1418 0698 DB68     		ldr	r3, [r3, #12]
 1419 069a FB60     		str	r3, [r7, #12]
 816:../src/stm32f30x_adc.c ****   /* Clear the Analog watchdog channel select bits */
 817:../src/stm32f30x_adc.c ****   tmpreg &= ~(uint32_t)ADC_CFGR_AWD1CH;
 1420              		.loc 1 817 0
 1421 069c FB68     		ldr	r3, [r7, #12]
 1422 069e 23F0F843 		bic	r3, r3, #2080374784
 1423 06a2 FB60     		str	r3, [r7, #12]
 818:../src/stm32f30x_adc.c ****   /* Set the Analog watchdog channel */
 819:../src/stm32f30x_adc.c ****   tmpreg |= (uint32_t)((uint32_t)ADC_Channel << 26);
 1424              		.loc 1 819 0
 1425 06a4 FB78     		ldrb	r3, [r7, #3]	@ zero_extendqisi2
 1426 06a6 4FEA8363 		lsl	r3, r3, #26
 1427 06aa FA68     		ldr	r2, [r7, #12]
 1428 06ac 1343     		orrs	r3, r3, r2
 1429 06ae FB60     		str	r3, [r7, #12]
 820:../src/stm32f30x_adc.c ****   /* Store the new register value */
 821:../src/stm32f30x_adc.c ****   ADCx->CFGR = tmpreg;
 1430              		.loc 1 821 0
 1431 06b0 7B68     		ldr	r3, [r7, #4]
 1432 06b2 FA68     		ldr	r2, [r7, #12]
 1433 06b4 DA60     		str	r2, [r3, #12]
 822:../src/stm32f30x_adc.c **** }
 1434              		.loc 1 822 0
 1435 06b6 07F11407 		add	r7, r7, #20
 1436 06ba BD46     		mov	sp, r7
 1437 06bc 80BC     		pop	{r7}
 1438 06be 7047     		bx	lr
 1439              		.cfi_endproc
 1440              	.LFE134:
 1442              		.align	2
 1443              		.global	ADC_AnalogWatchdog2SingleChannelConfig
 1444              		.thumb
 1445              		.thumb_func
 1447              	ADC_AnalogWatchdog2SingleChannelConfig:
 1448              	.LFB135:
 823:../src/stm32f30x_adc.c **** 
 824:../src/stm32f30x_adc.c **** /**
 825:../src/stm32f30x_adc.c ****   * @brief  Configures the analog watchdog 2 guarded single channel
 826:../src/stm32f30x_adc.c ****   * @param  ADCx: where x can be 1, 2, 3 or 4 to select the ADC peripheral.
 827:../src/stm32f30x_adc.c ****   * @param  ADC_Channel: the ADC channel to configure for the analog watchdog. 
 828:../src/stm32f30x_adc.c ****   *   This parameter can be one of the following values:
 829:../src/stm32f30x_adc.c ****   *     @arg ADC_Channel_1: ADC Channel1 selected
 830:../src/stm32f30x_adc.c ****   *     @arg ADC_Channel_2: ADC Channel2 selected
 831:../src/stm32f30x_adc.c ****   *     @arg ADC_Channel_3: ADC Channel3 selected
 832:../src/stm32f30x_adc.c ****   *     @arg ADC_Channel_4: ADC Channel4 selected
 833:../src/stm32f30x_adc.c ****   *     @arg ADC_Channel_5: ADC Channel5 selected
 834:../src/stm32f30x_adc.c ****   *     @arg ADC_Channel_6: ADC Channel6 selected
 835:../src/stm32f30x_adc.c ****   *     @arg ADC_Channel_7: ADC Channel7 selected
 836:../src/stm32f30x_adc.c ****   *     @arg ADC_Channel_8: ADC Channel8 selected
 837:../src/stm32f30x_adc.c ****   *     @arg ADC_Channel_9: ADC Channel9 selected
 838:../src/stm32f30x_adc.c ****   *     @arg ADC_Channel_10: ADC Channel10 selected
 839:../src/stm32f30x_adc.c ****   *     @arg ADC_Channel_11: ADC Channel11 selected
 840:../src/stm32f30x_adc.c ****   *     @arg ADC_Channel_12: ADC Channel12 selected
 841:../src/stm32f30x_adc.c ****   *     @arg ADC_Channel_13: ADC Channel13 selected
 842:../src/stm32f30x_adc.c ****   *     @arg ADC_Channel_14: ADC Channel14 selected
 843:../src/stm32f30x_adc.c ****   *     @arg ADC_Channel_15: ADC Channel15 selected
 844:../src/stm32f30x_adc.c ****   *     @arg ADC_Channel_16: ADC Channel16 selected
 845:../src/stm32f30x_adc.c ****   *     @arg ADC_Channel_17: ADC Channel17 selected
 846:../src/stm32f30x_adc.c ****   *     @arg ADC_Channel_18: ADC Channel18 selected
 847:../src/stm32f30x_adc.c ****   * @retval None
 848:../src/stm32f30x_adc.c ****   */
 849:../src/stm32f30x_adc.c **** void ADC_AnalogWatchdog2SingleChannelConfig(ADC_TypeDef* ADCx, uint8_t ADC_Channel)
 850:../src/stm32f30x_adc.c **** {
 1449              		.loc 1 850 0
 1450              		.cfi_startproc
 1451              		@ args = 0, pretend = 0, frame = 16
 1452              		@ frame_needed = 1, uses_anonymous_args = 0
 1453              		@ link register save eliminated.
 1454 06c0 80B4     		push	{r7}
 1455              	.LCFI72:
 1456              		.cfi_def_cfa_offset 4
 1457              		.cfi_offset 7, -4
 1458 06c2 85B0     		sub	sp, sp, #20
 1459              	.LCFI73:
 1460              		.cfi_def_cfa_offset 24
 1461 06c4 00AF     		add	r7, sp, #0
 1462              	.LCFI74:
 1463              		.cfi_def_cfa_register 7
 1464 06c6 7860     		str	r0, [r7, #4]
 1465 06c8 0B46     		mov	r3, r1
 1466 06ca FB70     		strb	r3, [r7, #3]
 851:../src/stm32f30x_adc.c ****   uint32_t tmpreg = 0;
 1467              		.loc 1 851 0
 1468 06cc 4FF00003 		mov	r3, #0
 1469 06d0 FB60     		str	r3, [r7, #12]
 852:../src/stm32f30x_adc.c ****   /* Check the parameters */
 853:../src/stm32f30x_adc.c ****   assert_param(IS_ADC_ALL_PERIPH(ADCx));
 854:../src/stm32f30x_adc.c ****   assert_param(IS_ADC_CHANNEL(ADC_Channel));
 855:../src/stm32f30x_adc.c ****   /* Get the old register value */
 856:../src/stm32f30x_adc.c ****   tmpreg = ADCx->AWD2CR;
 1470              		.loc 1 856 0
 1471 06d2 7B68     		ldr	r3, [r7, #4]
 1472 06d4 D3F8A030 		ldr	r3, [r3, #160]
 1473 06d8 FB60     		str	r3, [r7, #12]
 857:../src/stm32f30x_adc.c ****   /* Clear the Analog watchdog channel select bits */
 858:../src/stm32f30x_adc.c ****   tmpreg &= ~(uint32_t)ADC_AWD2CR_AWD2CH;
 1474              		.loc 1 858 0
 1475 06da FA68     		ldr	r2, [r7, #12]
 1476 06dc 4FF00103 		mov	r3, #1
 1477 06e0 CFF6F873 		movt	r3, 65528
 1478 06e4 1340     		ands	r3, r3, r2
 1479 06e6 FB60     		str	r3, [r7, #12]
 859:../src/stm32f30x_adc.c ****   /* Set the Analog watchdog channel */
 860:../src/stm32f30x_adc.c ****   tmpreg |= (uint32_t)1 << (ADC_Channel);
 1480              		.loc 1 860 0
 1481 06e8 FB78     		ldrb	r3, [r7, #3]	@ zero_extendqisi2
 1482 06ea 4FF00102 		mov	r2, #1
 1483 06ee 02FA03F3 		lsl	r3, r2, r3
 1484 06f2 FA68     		ldr	r2, [r7, #12]
 1485 06f4 1343     		orrs	r3, r3, r2
 1486 06f6 FB60     		str	r3, [r7, #12]
 861:../src/stm32f30x_adc.c ****   /* Store the new register value */
 862:../src/stm32f30x_adc.c ****   ADCx->AWD2CR |= tmpreg;
 1487              		.loc 1 862 0
 1488 06f8 7B68     		ldr	r3, [r7, #4]
 1489 06fa D3F8A020 		ldr	r2, [r3, #160]
 1490 06fe FB68     		ldr	r3, [r7, #12]
 1491 0700 1A43     		orrs	r2, r2, r3
 1492 0702 7B68     		ldr	r3, [r7, #4]
 1493 0704 C3F8A020 		str	r2, [r3, #160]
 863:../src/stm32f30x_adc.c **** }
 1494              		.loc 1 863 0
 1495 0708 07F11407 		add	r7, r7, #20
 1496 070c BD46     		mov	sp, r7
 1497 070e 80BC     		pop	{r7}
 1498 0710 7047     		bx	lr
 1499              		.cfi_endproc
 1500              	.LFE135:
 1502 0712 00BF     		.align	2
 1503              		.global	ADC_AnalogWatchdog3SingleChannelConfig
 1504              		.thumb
 1505              		.thumb_func
 1507              	ADC_AnalogWatchdog3SingleChannelConfig:
 1508              	.LFB136:
 864:../src/stm32f30x_adc.c **** 
 865:../src/stm32f30x_adc.c **** /**
 866:../src/stm32f30x_adc.c ****   * @brief  Configures the analog watchdog 3 guarded single channel
 867:../src/stm32f30x_adc.c ****   * @param  ADCx: where x can be 1, 2, 3 or 4 to select the ADC peripheral.
 868:../src/stm32f30x_adc.c ****   * @param  ADC_Channel: the ADC channel to configure for the analog watchdog. 
 869:../src/stm32f30x_adc.c ****   *   This parameter can be one of the following values:
 870:../src/stm32f30x_adc.c ****   *     @arg ADC_Channel_1: ADC Channel1 selected
 871:../src/stm32f30x_adc.c ****   *     @arg ADC_Channel_2: ADC Channel2 selected
 872:../src/stm32f30x_adc.c ****   *     @arg ADC_Channel_3: ADC Channel3 selected
 873:../src/stm32f30x_adc.c ****   *     @arg ADC_Channel_4: ADC Channel4 selected
 874:../src/stm32f30x_adc.c ****   *     @arg ADC_Channel_5: ADC Channel5 selected
 875:../src/stm32f30x_adc.c ****   *     @arg ADC_Channel_6: ADC Channel6 selected
 876:../src/stm32f30x_adc.c ****   *     @arg ADC_Channel_7: ADC Channel7 selected
 877:../src/stm32f30x_adc.c ****   *     @arg ADC_Channel_8: ADC Channel8 selected
 878:../src/stm32f30x_adc.c ****   *     @arg ADC_Channel_9: ADC Channel9 selected
 879:../src/stm32f30x_adc.c ****   *     @arg ADC_Channel_10: ADC Channel10 selected
 880:../src/stm32f30x_adc.c ****   *     @arg ADC_Channel_11: ADC Channel11 selected
 881:../src/stm32f30x_adc.c ****   *     @arg ADC_Channel_12: ADC Channel12 selected
 882:../src/stm32f30x_adc.c ****   *     @arg ADC_Channel_13: ADC Channel13 selected
 883:../src/stm32f30x_adc.c ****   *     @arg ADC_Channel_14: ADC Channel14 selected
 884:../src/stm32f30x_adc.c ****   *     @arg ADC_Channel_15: ADC Channel15 selected
 885:../src/stm32f30x_adc.c ****   *     @arg ADC_Channel_16: ADC Channel16 selected
 886:../src/stm32f30x_adc.c ****   *     @arg ADC_Channel_17: ADC Channel17 selected
 887:../src/stm32f30x_adc.c ****   *     @arg ADC_Channel_18: ADC Channel18 selected
 888:../src/stm32f30x_adc.c ****   * @retval None
 889:../src/stm32f30x_adc.c ****   */
 890:../src/stm32f30x_adc.c **** void ADC_AnalogWatchdog3SingleChannelConfig(ADC_TypeDef* ADCx, uint8_t ADC_Channel)
 891:../src/stm32f30x_adc.c **** {
 1509              		.loc 1 891 0
 1510              		.cfi_startproc
 1511              		@ args = 0, pretend = 0, frame = 16
 1512              		@ frame_needed = 1, uses_anonymous_args = 0
 1513              		@ link register save eliminated.
 1514 0714 80B4     		push	{r7}
 1515              	.LCFI75:
 1516              		.cfi_def_cfa_offset 4
 1517              		.cfi_offset 7, -4
 1518 0716 85B0     		sub	sp, sp, #20
 1519              	.LCFI76:
 1520              		.cfi_def_cfa_offset 24
 1521 0718 00AF     		add	r7, sp, #0
 1522              	.LCFI77:
 1523              		.cfi_def_cfa_register 7
 1524 071a 7860     		str	r0, [r7, #4]
 1525 071c 0B46     		mov	r3, r1
 1526 071e FB70     		strb	r3, [r7, #3]
 892:../src/stm32f30x_adc.c ****   uint32_t tmpreg = 0;
 1527              		.loc 1 892 0
 1528 0720 4FF00003 		mov	r3, #0
 1529 0724 FB60     		str	r3, [r7, #12]
 893:../src/stm32f30x_adc.c ****   /* Check the parameters */
 894:../src/stm32f30x_adc.c ****   assert_param(IS_ADC_ALL_PERIPH(ADCx));
 895:../src/stm32f30x_adc.c ****   assert_param(IS_ADC_CHANNEL(ADC_Channel));
 896:../src/stm32f30x_adc.c ****   /* Get the old register value */
 897:../src/stm32f30x_adc.c ****   tmpreg = ADCx->AWD3CR;
 1530              		.loc 1 897 0
 1531 0726 7B68     		ldr	r3, [r7, #4]
 1532 0728 D3F8A430 		ldr	r3, [r3, #164]
 1533 072c FB60     		str	r3, [r7, #12]
 898:../src/stm32f30x_adc.c ****   /* Clear the Analog watchdog channel select bits */
 899:../src/stm32f30x_adc.c ****   tmpreg &= ~(uint32_t)ADC_AWD3CR_AWD3CH;
 1534              		.loc 1 899 0
 1535 072e FA68     		ldr	r2, [r7, #12]
 1536 0730 4FF00103 		mov	r3, #1
 1537 0734 CFF6F873 		movt	r3, 65528
 1538 0738 1340     		ands	r3, r3, r2
 1539 073a FB60     		str	r3, [r7, #12]
 900:../src/stm32f30x_adc.c ****   /* Set the Analog watchdog channel */
 901:../src/stm32f30x_adc.c ****   tmpreg |= (uint32_t)1 << (ADC_Channel);
 1540              		.loc 1 901 0
 1541 073c FB78     		ldrb	r3, [r7, #3]	@ zero_extendqisi2
 1542 073e 4FF00102 		mov	r2, #1
 1543 0742 02FA03F3 		lsl	r3, r2, r3
 1544 0746 FA68     		ldr	r2, [r7, #12]
 1545 0748 1343     		orrs	r3, r3, r2
 1546 074a FB60     		str	r3, [r7, #12]
 902:../src/stm32f30x_adc.c ****   /* Store the new register value */
 903:../src/stm32f30x_adc.c ****   ADCx->AWD3CR |= tmpreg;
 1547              		.loc 1 903 0
 1548 074c 7B68     		ldr	r3, [r7, #4]
 1549 074e D3F8A420 		ldr	r2, [r3, #164]
 1550 0752 FB68     		ldr	r3, [r7, #12]
 1551 0754 1A43     		orrs	r2, r2, r3
 1552 0756 7B68     		ldr	r3, [r7, #4]
 1553 0758 C3F8A420 		str	r2, [r3, #164]
 904:../src/stm32f30x_adc.c **** }
 1554              		.loc 1 904 0
 1555 075c 07F11407 		add	r7, r7, #20
 1556 0760 BD46     		mov	sp, r7
 1557 0762 80BC     		pop	{r7}
 1558 0764 7047     		bx	lr
 1559              		.cfi_endproc
 1560              	.LFE136:
 1562 0766 00BF     		.align	2
 1563              		.global	ADC_TempSensorCmd
 1564              		.thumb
 1565              		.thumb_func
 1567              	ADC_TempSensorCmd:
 1568              	.LFB137:
 905:../src/stm32f30x_adc.c **** 
 906:../src/stm32f30x_adc.c **** /**
 907:../src/stm32f30x_adc.c ****   * @}
 908:../src/stm32f30x_adc.c ****   */
 909:../src/stm32f30x_adc.c **** 
 910:../src/stm32f30x_adc.c **** /** @defgroup ADC_Group3 Temperature Sensor - Vrefint (Internal Reference Voltage) and VBAT managem
 911:../src/stm32f30x_adc.c ****  *  @brief   Vbat, Temperature Sensor & Vrefint (Internal Reference Voltage) management function 
 912:../src/stm32f30x_adc.c ****  *
 913:../src/stm32f30x_adc.c **** @verbatim   
 914:../src/stm32f30x_adc.c ****  ==================================================================================================
 915:../src/stm32f30x_adc.c ****   ##### Temperature Sensor - Vrefint (Internal Reference Voltage) and VBAT management functions ###
 916:../src/stm32f30x_adc.c ****  ==================================================================================================
 917:../src/stm32f30x_adc.c **** 
 918:../src/stm32f30x_adc.c ****   [..] This section provides a function allowing to enable/ disable the internal 
 919:../src/stm32f30x_adc.c ****   connections between the ADC and the Vbat/2, Temperature Sensor and the Vrefint source.
 920:../src/stm32f30x_adc.c **** 
 921:../src/stm32f30x_adc.c ****   [..] A typical configuration to get the Temperature sensor and Vrefint channels 
 922:../src/stm32f30x_adc.c ****   voltages is done following these steps :
 923:../src/stm32f30x_adc.c ****    (#) Enable the internal connection of Vbat/2, Temperature sensor and Vrefint sources 
 924:../src/stm32f30x_adc.c ****        with the ADC channels using:
 925:../src/stm32f30x_adc.c ****       (++) ADC_TempSensorCmd()  
 926:../src/stm32f30x_adc.c ****       (++) ADC_VrefintCmd() 
 927:../src/stm32f30x_adc.c ****       (++) ADC_VbatCmd()  
 928:../src/stm32f30x_adc.c **** 
 929:../src/stm32f30x_adc.c ****    (#) select the ADC_Channel_TempSensor and/or ADC_Channel_Vrefint and/or ADC_Channel_Vbat using 
 930:../src/stm32f30x_adc.c ****       (++) ADC_RegularChannelConfig() or  
 931:../src/stm32f30x_adc.c ****       (++) ADC_InjectedInit() functions 
 932:../src/stm32f30x_adc.c **** 
 933:../src/stm32f30x_adc.c ****    (#) Get the voltage values, using:
 934:../src/stm32f30x_adc.c ****       (++) ADC_GetConversionValue() or  
 935:../src/stm32f30x_adc.c ****       (++) ADC_GetInjectedConversionValue().
 936:../src/stm32f30x_adc.c ****  
 937:../src/stm32f30x_adc.c **** @endverbatim
 938:../src/stm32f30x_adc.c ****   * @{
 939:../src/stm32f30x_adc.c ****   */
 940:../src/stm32f30x_adc.c **** 
 941:../src/stm32f30x_adc.c **** /**
 942:../src/stm32f30x_adc.c ****   * @brief  Enables or disables the temperature sensor channel.
 943:../src/stm32f30x_adc.c ****   * @param  ADCx: where x can be 1 or 4 to select the ADC peripheral.
 944:../src/stm32f30x_adc.c ****   * @param  NewState: new state of the temperature sensor.
 945:../src/stm32f30x_adc.c ****   *   This parameter can be: ENABLE or DISABLE.
 946:../src/stm32f30x_adc.c ****   * @retval None
 947:../src/stm32f30x_adc.c ****   */
 948:../src/stm32f30x_adc.c **** void ADC_TempSensorCmd(ADC_TypeDef* ADCx, FunctionalState NewState)
 949:../src/stm32f30x_adc.c **** {
 1569              		.loc 1 949 0
 1570              		.cfi_startproc
 1571              		@ args = 0, pretend = 0, frame = 8
 1572              		@ frame_needed = 1, uses_anonymous_args = 0
 1573              		@ link register save eliminated.
 1574 0768 80B4     		push	{r7}
 1575              	.LCFI78:
 1576              		.cfi_def_cfa_offset 4
 1577              		.cfi_offset 7, -4
 1578 076a 83B0     		sub	sp, sp, #12
 1579              	.LCFI79:
 1580              		.cfi_def_cfa_offset 16
 1581 076c 00AF     		add	r7, sp, #0
 1582              	.LCFI80:
 1583              		.cfi_def_cfa_register 7
 1584 076e 7860     		str	r0, [r7, #4]
 1585 0770 0B46     		mov	r3, r1
 1586 0772 FB70     		strb	r3, [r7, #3]
 950:../src/stm32f30x_adc.c ****   /* Check the parameters */
 951:../src/stm32f30x_adc.c ****   assert_param(IS_ADC_ALL_PERIPH(ADCx));
 952:../src/stm32f30x_adc.c ****   assert_param(IS_FUNCTIONAL_STATE(NewState));
 953:../src/stm32f30x_adc.c **** 
 954:../src/stm32f30x_adc.c ****   if((ADCx == ADC1) || (ADCx == ADC2))
 1587              		.loc 1 954 0
 1588 0774 7B68     		ldr	r3, [r7, #4]
 1589 0776 B3F1A04F 		cmp	r3, #1342177280
 1590 077a 06D0     		beq	.L55
 1591              		.loc 1 954 0 is_stmt 0 discriminator 1
 1592 077c 7A68     		ldr	r2, [r7, #4]
 1593 077e 4FF48073 		mov	r3, #256
 1594 0782 C5F20003 		movt	r3, 20480
 1595 0786 9A42     		cmp	r2, r3
 1596 0788 1CD1     		bne	.L56
 1597              	.L55:
 955:../src/stm32f30x_adc.c ****   {
 956:../src/stm32f30x_adc.c ****     if (NewState != DISABLE)
 1598              		.loc 1 956 0 is_stmt 1
 1599 078a FB78     		ldrb	r3, [r7, #3]	@ zero_extendqisi2
 1600 078c 002B     		cmp	r3, #0
 1601 078e 0CD0     		beq	.L57
 957:../src/stm32f30x_adc.c ****     {
 958:../src/stm32f30x_adc.c ****       /* Enable the temperature sensor channel*/
 959:../src/stm32f30x_adc.c ****       ADC1_2->CCR |= ADC12_CCR_TSEN;
 1602              		.loc 1 959 0
 1603 0790 4FF44073 		mov	r3, #768
 1604 0794 C5F20003 		movt	r3, 20480
 1605 0798 4FF44072 		mov	r2, #768
 1606 079c C5F20002 		movt	r2, 20480
 1607 07a0 9268     		ldr	r2, [r2, #8]
 1608 07a2 42F40002 		orr	r2, r2, #8388608
 1609 07a6 9A60     		str	r2, [r3, #8]
 956:../src/stm32f30x_adc.c ****     if (NewState != DISABLE)
 1610              		.loc 1 956 0
 1611 07a8 28E0     		b	.L54
 1612              	.L57:
 960:../src/stm32f30x_adc.c ****     }
 961:../src/stm32f30x_adc.c ****     else
 962:../src/stm32f30x_adc.c ****     {
 963:../src/stm32f30x_adc.c ****       /* Disable the temperature sensor channel*/
 964:../src/stm32f30x_adc.c ****       ADC1_2->CCR &= ~(uint32_t)ADC12_CCR_TSEN;
 1613              		.loc 1 964 0
 1614 07aa 4FF44073 		mov	r3, #768
 1615 07ae C5F20003 		movt	r3, 20480
 1616 07b2 4FF44072 		mov	r2, #768
 1617 07b6 C5F20002 		movt	r2, 20480
 1618 07ba 9268     		ldr	r2, [r2, #8]
 1619 07bc 22F40002 		bic	r2, r2, #8388608
 1620 07c0 9A60     		str	r2, [r3, #8]
 956:../src/stm32f30x_adc.c ****     if (NewState != DISABLE)
 1621              		.loc 1 956 0
 1622 07c2 1BE0     		b	.L54
 1623              	.L56:
 965:../src/stm32f30x_adc.c ****     }
 966:../src/stm32f30x_adc.c ****   }
 967:../src/stm32f30x_adc.c ****   else
 968:../src/stm32f30x_adc.c ****   {
 969:../src/stm32f30x_adc.c ****     if (NewState != DISABLE)
 1624              		.loc 1 969 0
 1625 07c4 FB78     		ldrb	r3, [r7, #3]	@ zero_extendqisi2
 1626 07c6 002B     		cmp	r3, #0
 1627 07c8 0CD0     		beq	.L60
 970:../src/stm32f30x_adc.c ****     {
 971:../src/stm32f30x_adc.c ****       /* Enable the temperature sensor channel*/
 972:../src/stm32f30x_adc.c ****       ADC3_4->CCR |= ADC34_CCR_TSEN;
 1628              		.loc 1 972 0
 1629 07ca 4FF4E063 		mov	r3, #1792
 1630 07ce C5F20003 		movt	r3, 20480
 1631 07d2 4FF4E062 		mov	r2, #1792
 1632 07d6 C5F20002 		movt	r2, 20480
 1633 07da 9268     		ldr	r2, [r2, #8]
 1634 07dc 42F40002 		orr	r2, r2, #8388608
 1635 07e0 9A60     		str	r2, [r3, #8]
 1636 07e2 0BE0     		b	.L54
 1637              	.L60:
 973:../src/stm32f30x_adc.c ****     }
 974:../src/stm32f30x_adc.c ****     else
 975:../src/stm32f30x_adc.c ****     {
 976:../src/stm32f30x_adc.c ****       /* Disable the temperature sensor channel*/
 977:../src/stm32f30x_adc.c ****       ADC3_4->CCR &= ~(uint32_t)ADC34_CCR_TSEN;
 1638              		.loc 1 977 0
 1639 07e4 4FF4E063 		mov	r3, #1792
 1640 07e8 C5F20003 		movt	r3, 20480
 1641 07ec 4FF4E062 		mov	r2, #1792
 1642 07f0 C5F20002 		movt	r2, 20480
 1643 07f4 9268     		ldr	r2, [r2, #8]
 1644 07f6 22F40002 		bic	r2, r2, #8388608
 1645 07fa 9A60     		str	r2, [r3, #8]
 1646              	.L54:
 978:../src/stm32f30x_adc.c ****     }
 979:../src/stm32f30x_adc.c ****   }
 980:../src/stm32f30x_adc.c **** }
 1647              		.loc 1 980 0
 1648 07fc 07F10C07 		add	r7, r7, #12
 1649 0800 BD46     		mov	sp, r7
 1650 0802 80BC     		pop	{r7}
 1651 0804 7047     		bx	lr
 1652              		.cfi_endproc
 1653              	.LFE137:
 1655 0806 00BF     		.align	2
 1656              		.global	ADC_VrefintCmd
 1657              		.thumb
 1658              		.thumb_func
 1660              	ADC_VrefintCmd:
 1661              	.LFB138:
 981:../src/stm32f30x_adc.c **** 
 982:../src/stm32f30x_adc.c **** /**
 983:../src/stm32f30x_adc.c ****   * @brief  Enables or disables the Vrefint channel.
 984:../src/stm32f30x_adc.c ****   * @param  ADCx: where x can be 1 or 4 to select the ADC peripheral.
 985:../src/stm32f30x_adc.c ****   * @param  NewState: new state of the Vrefint.
 986:../src/stm32f30x_adc.c ****   *   This parameter can be: ENABLE or DISABLE.
 987:../src/stm32f30x_adc.c ****   * @retval None
 988:../src/stm32f30x_adc.c ****   */
 989:../src/stm32f30x_adc.c **** void ADC_VrefintCmd(ADC_TypeDef* ADCx, FunctionalState NewState)
 990:../src/stm32f30x_adc.c **** {
 1662              		.loc 1 990 0
 1663              		.cfi_startproc
 1664              		@ args = 0, pretend = 0, frame = 8
 1665              		@ frame_needed = 1, uses_anonymous_args = 0
 1666              		@ link register save eliminated.
 1667 0808 80B4     		push	{r7}
 1668              	.LCFI81:
 1669              		.cfi_def_cfa_offset 4
 1670              		.cfi_offset 7, -4
 1671 080a 83B0     		sub	sp, sp, #12
 1672              	.LCFI82:
 1673              		.cfi_def_cfa_offset 16
 1674 080c 00AF     		add	r7, sp, #0
 1675              	.LCFI83:
 1676              		.cfi_def_cfa_register 7
 1677 080e 7860     		str	r0, [r7, #4]
 1678 0810 0B46     		mov	r3, r1
 1679 0812 FB70     		strb	r3, [r7, #3]
 991:../src/stm32f30x_adc.c ****   /* Check the parameters */
 992:../src/stm32f30x_adc.c ****   assert_param(IS_ADC_ALL_PERIPH(ADCx));
 993:../src/stm32f30x_adc.c ****   assert_param(IS_FUNCTIONAL_STATE(NewState));
 994:../src/stm32f30x_adc.c **** 
 995:../src/stm32f30x_adc.c ****   if((ADCx == ADC1) || (ADCx == ADC2))
 1680              		.loc 1 995 0
 1681 0814 7B68     		ldr	r3, [r7, #4]
 1682 0816 B3F1A04F 		cmp	r3, #1342177280
 1683 081a 06D0     		beq	.L62
 1684              		.loc 1 995 0 is_stmt 0 discriminator 1
 1685 081c 7A68     		ldr	r2, [r7, #4]
 1686 081e 4FF48073 		mov	r3, #256
 1687 0822 C5F20003 		movt	r3, 20480
 1688 0826 9A42     		cmp	r2, r3
 1689 0828 1CD1     		bne	.L63
 1690              	.L62:
 996:../src/stm32f30x_adc.c ****   {
 997:../src/stm32f30x_adc.c ****     if (NewState != DISABLE)
 1691              		.loc 1 997 0 is_stmt 1
 1692 082a FB78     		ldrb	r3, [r7, #3]	@ zero_extendqisi2
 1693 082c 002B     		cmp	r3, #0
 1694 082e 0CD0     		beq	.L64
 998:../src/stm32f30x_adc.c ****     {
 999:../src/stm32f30x_adc.c ****       /* Enable the Vrefint channel*/
1000:../src/stm32f30x_adc.c ****       ADC1_2->CCR |= ADC12_CCR_VREFEN;
 1695              		.loc 1 1000 0
 1696 0830 4FF44073 		mov	r3, #768
 1697 0834 C5F20003 		movt	r3, 20480
 1698 0838 4FF44072 		mov	r2, #768
 1699 083c C5F20002 		movt	r2, 20480
 1700 0840 9268     		ldr	r2, [r2, #8]
 1701 0842 42F48002 		orr	r2, r2, #4194304
 1702 0846 9A60     		str	r2, [r3, #8]
 997:../src/stm32f30x_adc.c ****     if (NewState != DISABLE)
 1703              		.loc 1 997 0
 1704 0848 28E0     		b	.L61
 1705              	.L64:
1001:../src/stm32f30x_adc.c ****     }
1002:../src/stm32f30x_adc.c ****     else
1003:../src/stm32f30x_adc.c ****     {
1004:../src/stm32f30x_adc.c ****       /* Disable the Vrefint channel*/
1005:../src/stm32f30x_adc.c ****       ADC1_2->CCR &= ~(uint32_t)ADC12_CCR_VREFEN;
 1706              		.loc 1 1005 0
 1707 084a 4FF44073 		mov	r3, #768
 1708 084e C5F20003 		movt	r3, 20480
 1709 0852 4FF44072 		mov	r2, #768
 1710 0856 C5F20002 		movt	r2, 20480
 1711 085a 9268     		ldr	r2, [r2, #8]
 1712 085c 22F48002 		bic	r2, r2, #4194304
 1713 0860 9A60     		str	r2, [r3, #8]
 997:../src/stm32f30x_adc.c ****     if (NewState != DISABLE)
 1714              		.loc 1 997 0
 1715 0862 1BE0     		b	.L61
 1716              	.L63:
1006:../src/stm32f30x_adc.c ****     }
1007:../src/stm32f30x_adc.c ****   }
1008:../src/stm32f30x_adc.c ****   else
1009:../src/stm32f30x_adc.c ****   {
1010:../src/stm32f30x_adc.c ****     if (NewState != DISABLE)
 1717              		.loc 1 1010 0
 1718 0864 FB78     		ldrb	r3, [r7, #3]	@ zero_extendqisi2
 1719 0866 002B     		cmp	r3, #0
 1720 0868 0CD0     		beq	.L67
1011:../src/stm32f30x_adc.c ****     {
1012:../src/stm32f30x_adc.c ****       /* Enable the Vrefint channel*/
1013:../src/stm32f30x_adc.c ****       ADC3_4->CCR |= ADC34_CCR_VREFEN;
 1721              		.loc 1 1013 0
 1722 086a 4FF4E063 		mov	r3, #1792
 1723 086e C5F20003 		movt	r3, 20480
 1724 0872 4FF4E062 		mov	r2, #1792
 1725 0876 C5F20002 		movt	r2, 20480
 1726 087a 9268     		ldr	r2, [r2, #8]
 1727 087c 42F48002 		orr	r2, r2, #4194304
 1728 0880 9A60     		str	r2, [r3, #8]
 1729 0882 0BE0     		b	.L61
 1730              	.L67:
1014:../src/stm32f30x_adc.c ****     }
1015:../src/stm32f30x_adc.c ****     else
1016:../src/stm32f30x_adc.c ****     {
1017:../src/stm32f30x_adc.c ****       /* Disable the Vrefint channel*/
1018:../src/stm32f30x_adc.c ****       ADC3_4->CCR &= ~(uint32_t)ADC34_CCR_VREFEN;
 1731              		.loc 1 1018 0
 1732 0884 4FF4E063 		mov	r3, #1792
 1733 0888 C5F20003 		movt	r3, 20480
 1734 088c 4FF4E062 		mov	r2, #1792
 1735 0890 C5F20002 		movt	r2, 20480
 1736 0894 9268     		ldr	r2, [r2, #8]
 1737 0896 22F48002 		bic	r2, r2, #4194304
 1738 089a 9A60     		str	r2, [r3, #8]
 1739              	.L61:
1019:../src/stm32f30x_adc.c ****     }
1020:../src/stm32f30x_adc.c ****   }
1021:../src/stm32f30x_adc.c **** }
 1740              		.loc 1 1021 0
 1741 089c 07F10C07 		add	r7, r7, #12
 1742 08a0 BD46     		mov	sp, r7
 1743 08a2 80BC     		pop	{r7}
 1744 08a4 7047     		bx	lr
 1745              		.cfi_endproc
 1746              	.LFE138:
 1748 08a6 00BF     		.align	2
 1749              		.global	ADC_VbatCmd
 1750              		.thumb
 1751              		.thumb_func
 1753              	ADC_VbatCmd:
 1754              	.LFB139:
1022:../src/stm32f30x_adc.c **** 
1023:../src/stm32f30x_adc.c **** /**
1024:../src/stm32f30x_adc.c ****   * @brief  Enables or disables the Vbat channel.
1025:../src/stm32f30x_adc.c ****   * @param  ADCx: where x can be 1 or 4 to select the ADC peripheral.
1026:../src/stm32f30x_adc.c ****   * @param  NewState: new state of the Vbat.
1027:../src/stm32f30x_adc.c ****   *   This parameter can be: ENABLE or DISABLE.
1028:../src/stm32f30x_adc.c ****   * @retval None
1029:../src/stm32f30x_adc.c ****   */
1030:../src/stm32f30x_adc.c **** void ADC_VbatCmd(ADC_TypeDef* ADCx, FunctionalState NewState)
1031:../src/stm32f30x_adc.c **** {
 1755              		.loc 1 1031 0
 1756              		.cfi_startproc
 1757              		@ args = 0, pretend = 0, frame = 8
 1758              		@ frame_needed = 1, uses_anonymous_args = 0
 1759              		@ link register save eliminated.
 1760 08a8 80B4     		push	{r7}
 1761              	.LCFI84:
 1762              		.cfi_def_cfa_offset 4
 1763              		.cfi_offset 7, -4
 1764 08aa 83B0     		sub	sp, sp, #12
 1765              	.LCFI85:
 1766              		.cfi_def_cfa_offset 16
 1767 08ac 00AF     		add	r7, sp, #0
 1768              	.LCFI86:
 1769              		.cfi_def_cfa_register 7
 1770 08ae 7860     		str	r0, [r7, #4]
 1771 08b0 0B46     		mov	r3, r1
 1772 08b2 FB70     		strb	r3, [r7, #3]
1032:../src/stm32f30x_adc.c ****   /* Check the parameters */
1033:../src/stm32f30x_adc.c ****   assert_param(IS_ADC_ALL_PERIPH(ADCx));
1034:../src/stm32f30x_adc.c ****   assert_param(IS_FUNCTIONAL_STATE(NewState));
1035:../src/stm32f30x_adc.c **** 
1036:../src/stm32f30x_adc.c ****   if((ADCx == ADC1) || (ADCx == ADC2))
 1773              		.loc 1 1036 0
 1774 08b4 7B68     		ldr	r3, [r7, #4]
 1775 08b6 B3F1A04F 		cmp	r3, #1342177280
 1776 08ba 06D0     		beq	.L69
 1777              		.loc 1 1036 0 is_stmt 0 discriminator 1
 1778 08bc 7A68     		ldr	r2, [r7, #4]
 1779 08be 4FF48073 		mov	r3, #256
 1780 08c2 C5F20003 		movt	r3, 20480
 1781 08c6 9A42     		cmp	r2, r3
 1782 08c8 1CD1     		bne	.L70
 1783              	.L69:
1037:../src/stm32f30x_adc.c ****   {
1038:../src/stm32f30x_adc.c ****     if (NewState != DISABLE)
 1784              		.loc 1 1038 0 is_stmt 1
 1785 08ca FB78     		ldrb	r3, [r7, #3]	@ zero_extendqisi2
 1786 08cc 002B     		cmp	r3, #0
 1787 08ce 0CD0     		beq	.L71
1039:../src/stm32f30x_adc.c ****     {
1040:../src/stm32f30x_adc.c ****       /* Enable the Vbat channel*/
1041:../src/stm32f30x_adc.c ****       ADC1_2->CCR |= ADC12_CCR_VBATEN;
 1788              		.loc 1 1041 0
 1789 08d0 4FF44073 		mov	r3, #768
 1790 08d4 C5F20003 		movt	r3, 20480
 1791 08d8 4FF44072 		mov	r2, #768
 1792 08dc C5F20002 		movt	r2, 20480
 1793 08e0 9268     		ldr	r2, [r2, #8]
 1794 08e2 42F08072 		orr	r2, r2, #16777216
 1795 08e6 9A60     		str	r2, [r3, #8]
1038:../src/stm32f30x_adc.c ****     if (NewState != DISABLE)
 1796              		.loc 1 1038 0
 1797 08e8 28E0     		b	.L68
 1798              	.L71:
1042:../src/stm32f30x_adc.c ****     }
1043:../src/stm32f30x_adc.c ****     else
1044:../src/stm32f30x_adc.c ****     {
1045:../src/stm32f30x_adc.c ****       /* Disable the Vbat channel*/
1046:../src/stm32f30x_adc.c ****       ADC1_2->CCR &= ~(uint32_t)ADC12_CCR_VBATEN;
 1799              		.loc 1 1046 0
 1800 08ea 4FF44073 		mov	r3, #768
 1801 08ee C5F20003 		movt	r3, 20480
 1802 08f2 4FF44072 		mov	r2, #768
 1803 08f6 C5F20002 		movt	r2, 20480
 1804 08fa 9268     		ldr	r2, [r2, #8]
 1805 08fc 22F08072 		bic	r2, r2, #16777216
 1806 0900 9A60     		str	r2, [r3, #8]
1038:../src/stm32f30x_adc.c ****     if (NewState != DISABLE)
 1807              		.loc 1 1038 0
 1808 0902 1BE0     		b	.L68
 1809              	.L70:
1047:../src/stm32f30x_adc.c ****     }
1048:../src/stm32f30x_adc.c ****   }
1049:../src/stm32f30x_adc.c ****   else
1050:../src/stm32f30x_adc.c ****   {
1051:../src/stm32f30x_adc.c ****     if (NewState != DISABLE)
 1810              		.loc 1 1051 0
 1811 0904 FB78     		ldrb	r3, [r7, #3]	@ zero_extendqisi2
 1812 0906 002B     		cmp	r3, #0
 1813 0908 0CD0     		beq	.L74
1052:../src/stm32f30x_adc.c ****     {
1053:../src/stm32f30x_adc.c ****       /* Enable the Vbat channel*/
1054:../src/stm32f30x_adc.c ****       ADC3_4->CCR |= ADC34_CCR_VBATEN;
 1814              		.loc 1 1054 0
 1815 090a 4FF4E063 		mov	r3, #1792
 1816 090e C5F20003 		movt	r3, 20480
 1817 0912 4FF4E062 		mov	r2, #1792
 1818 0916 C5F20002 		movt	r2, 20480
 1819 091a 9268     		ldr	r2, [r2, #8]
 1820 091c 42F08072 		orr	r2, r2, #16777216
 1821 0920 9A60     		str	r2, [r3, #8]
 1822 0922 0BE0     		b	.L68
 1823              	.L74:
1055:../src/stm32f30x_adc.c ****     }
1056:../src/stm32f30x_adc.c ****     else
1057:../src/stm32f30x_adc.c ****     {
1058:../src/stm32f30x_adc.c ****       /* Disable the Vbat channel*/
1059:../src/stm32f30x_adc.c ****       ADC3_4->CCR &= ~(uint32_t)ADC34_CCR_VBATEN;
 1824              		.loc 1 1059 0
 1825 0924 4FF4E063 		mov	r3, #1792
 1826 0928 C5F20003 		movt	r3, 20480
 1827 092c 4FF4E062 		mov	r2, #1792
 1828 0930 C5F20002 		movt	r2, 20480
 1829 0934 9268     		ldr	r2, [r2, #8]
 1830 0936 22F08072 		bic	r2, r2, #16777216
 1831 093a 9A60     		str	r2, [r3, #8]
 1832              	.L68:
1060:../src/stm32f30x_adc.c ****     }
1061:../src/stm32f30x_adc.c ****   }
1062:../src/stm32f30x_adc.c **** }
 1833              		.loc 1 1062 0
 1834 093c 07F10C07 		add	r7, r7, #12
 1835 0940 BD46     		mov	sp, r7
 1836 0942 80BC     		pop	{r7}
 1837 0944 7047     		bx	lr
 1838              		.cfi_endproc
 1839              	.LFE139:
 1841 0946 00BF     		.align	2
 1842              		.global	ADC_RegularChannelConfig
 1843              		.thumb
 1844              		.thumb_func
 1846              	ADC_RegularChannelConfig:
 1847              	.LFB140:
1063:../src/stm32f30x_adc.c **** 
1064:../src/stm32f30x_adc.c **** /**
1065:../src/stm32f30x_adc.c ****   * @}
1066:../src/stm32f30x_adc.c ****   */
1067:../src/stm32f30x_adc.c **** 
1068:../src/stm32f30x_adc.c **** /** @defgroup ADC_Group4 Regular Channels Configuration functions
1069:../src/stm32f30x_adc.c ****  *  @brief   Regular Channels Configuration functions 
1070:../src/stm32f30x_adc.c ****  *
1071:../src/stm32f30x_adc.c **** @verbatim   
1072:../src/stm32f30x_adc.c ****  ===============================================================================
1073:../src/stm32f30x_adc.c ****                   ##### Channels Configuration functions #####
1074:../src/stm32f30x_adc.c ****  ===============================================================================  
1075:../src/stm32f30x_adc.c **** 
1076:../src/stm32f30x_adc.c ****   [..] This section provides functions allowing to manage the ADC regular channels.
1077:../src/stm32f30x_adc.c ****    
1078:../src/stm32f30x_adc.c ****   [..] To configure a regular sequence of channels use:
1079:../src/stm32f30x_adc.c ****    (#) ADC_RegularChannelConfig()
1080:../src/stm32f30x_adc.c ****        this fuction allows:
1081:../src/stm32f30x_adc.c ****        (++) Configure the rank in the regular group sequencer for each channel
1082:../src/stm32f30x_adc.c ****        (++) Configure the sampling time for each channel
1083:../src/stm32f30x_adc.c **** 
1084:../src/stm32f30x_adc.c ****    (#) ADC_RegularChannelSequencerLengthConfig() to set the length of the regular sequencer
1085:../src/stm32f30x_adc.c **** 
1086:../src/stm32f30x_adc.c ****    [..] The regular trigger is configured using the following functions:
1087:../src/stm32f30x_adc.c ****    (#) ADC_SelectExternalTrigger()
1088:../src/stm32f30x_adc.c ****    (#) ADC_ExternalTriggerPolarityConfig()
1089:../src/stm32f30x_adc.c **** 
1090:../src/stm32f30x_adc.c ****    [..] The start and the stop conversion are controlled by:
1091:../src/stm32f30x_adc.c ****    (#) ADC_StartConversion()
1092:../src/stm32f30x_adc.c ****    (#) ADC_StopConversion()
1093:../src/stm32f30x_adc.c ****     
1094:../src/stm32f30x_adc.c ****    [..] 
1095:../src/stm32f30x_adc.c ****    (@)Please Note that the following features for regular channels are configurated
1096:../src/stm32f30x_adc.c ****      using the ADC_Init() function : 
1097:../src/stm32f30x_adc.c ****           (++) continuous mode activation
1098:../src/stm32f30x_adc.c ****           (++) Resolution  
1099:../src/stm32f30x_adc.c ****           (++) Data Alignement 
1100:../src/stm32f30x_adc.c ****           (++) Overrun Mode.
1101:../src/stm32f30x_adc.c ****      
1102:../src/stm32f30x_adc.c ****   [..] Get the conversion data: This subsection provides an important function in 
1103:../src/stm32f30x_adc.c ****      the ADC peripheral since it returns the converted data of the current 
1104:../src/stm32f30x_adc.c ****      regular channel. When the Conversion value is read, the EOC Flag is 
1105:../src/stm32f30x_adc.c ****      automatically cleared.
1106:../src/stm32f30x_adc.c **** 
1107:../src/stm32f30x_adc.c ****   [..] To configure the  discontinous mode, the following functions should be used:
1108:../src/stm32f30x_adc.c ****    (#) ADC_DiscModeChannelCountConfig() to configure the number of discontinuous channel to be conv
1109:../src/stm32f30x_adc.c ****    (#) ADC_DiscModeCmd() to enable the discontinuous mode.
1110:../src/stm32f30x_adc.c **** 
1111:../src/stm32f30x_adc.c ****   [..] To configure and enable/disable the Channel offset use the functions:
1112:../src/stm32f30x_adc.c ****      (++) ADC_SetChannelOffset1()
1113:../src/stm32f30x_adc.c ****      (++) ADC_SetChannelOffset2()
1114:../src/stm32f30x_adc.c ****      (++) ADC_SetChannelOffset3()
1115:../src/stm32f30x_adc.c ****      (++) ADC_SetChannelOffset4()
1116:../src/stm32f30x_adc.c ****      (++) ADC_ChannelOffset1Cmd()
1117:../src/stm32f30x_adc.c ****      (++) ADC_ChannelOffset2Cmd()
1118:../src/stm32f30x_adc.c ****      (++) ADC_ChannelOffset3Cmd()
1119:../src/stm32f30x_adc.c ****      (++) ADC_ChannelOffset4Cmd()
1120:../src/stm32f30x_adc.c ****   
1121:../src/stm32f30x_adc.c **** @endverbatim
1122:../src/stm32f30x_adc.c ****   * @{
1123:../src/stm32f30x_adc.c ****   */
1124:../src/stm32f30x_adc.c **** 
1125:../src/stm32f30x_adc.c **** /**
1126:../src/stm32f30x_adc.c ****   * @brief  Configures for the selected ADC regular channel its corresponding
1127:../src/stm32f30x_adc.c ****   *         rank in the sequencer and its sample time.
1128:../src/stm32f30x_adc.c ****   * @param  ADCx: where x can be 1, 2, 3 or 4 to select the ADC peripheral.
1129:../src/stm32f30x_adc.c ****   * @param  ADC_Channel: the ADC channel to configure. 
1130:../src/stm32f30x_adc.c ****   *   This parameter can be one of the following values:
1131:../src/stm32f30x_adc.c ****   *     @arg ADC_Channel_1: ADC Channel1 selected
1132:../src/stm32f30x_adc.c ****   *     @arg ADC_Channel_2: ADC Channel2 selected
1133:../src/stm32f30x_adc.c ****   *     @arg ADC_Channel_3: ADC Channel3 selected
1134:../src/stm32f30x_adc.c ****   *     @arg ADC_Channel_4: ADC Channel4 selected
1135:../src/stm32f30x_adc.c ****   *     @arg ADC_Channel_5: ADC Channel5 selected
1136:../src/stm32f30x_adc.c ****   *     @arg ADC_Channel_6: ADC Channel6 selected
1137:../src/stm32f30x_adc.c ****   *     @arg ADC_Channel_7: ADC Channel7 selected
1138:../src/stm32f30x_adc.c ****   *     @arg ADC_Channel_8: ADC Channel8 selected
1139:../src/stm32f30x_adc.c ****   *     @arg ADC_Channel_9: ADC Channel9 selected
1140:../src/stm32f30x_adc.c ****   *     @arg ADC_Channel_10: ADC Channel10 selected
1141:../src/stm32f30x_adc.c ****   *     @arg ADC_Channel_11: ADC Channel11 selected
1142:../src/stm32f30x_adc.c ****   *     @arg ADC_Channel_12: ADC Channel12 selected
1143:../src/stm32f30x_adc.c ****   *     @arg ADC_Channel_13: ADC Channel13 selected
1144:../src/stm32f30x_adc.c ****   *     @arg ADC_Channel_14: ADC Channel14 selected
1145:../src/stm32f30x_adc.c ****   *     @arg ADC_Channel_15: ADC Channel15 selected
1146:../src/stm32f30x_adc.c ****   *     @arg ADC_Channel_16: ADC Channel16 selected
1147:../src/stm32f30x_adc.c ****   *     @arg ADC_Channel_17: ADC Channel17 selected
1148:../src/stm32f30x_adc.c ****   *     @arg ADC_Channel_18: ADC Channel18 selected
1149:../src/stm32f30x_adc.c ****   * @param  Rank: The rank in the regular group sequencer. This parameter must be between 1 to 16.
1150:../src/stm32f30x_adc.c ****   * @param  ADC_SampleTime: The sample time value to be set for the selected channel. 
1151:../src/stm32f30x_adc.c ****   *   This parameter can be one of the following values:
1152:../src/stm32f30x_adc.c ****   *     @arg ADC_SampleTime_1Cycles5: Sample time equal to 1.5 cycles
1153:../src/stm32f30x_adc.c ****   *     @arg ADC_SampleTime_2Cycles5: Sample time equal to 2.5 cycles
1154:../src/stm32f30x_adc.c ****   *     @arg ADC_SampleTime_4Cycles5: Sample time equal to 4.5 cycles
1155:../src/stm32f30x_adc.c ****   *     @arg ADC_SampleTime_7Cycles5: Sample time equal to 7.5 cycles	
1156:../src/stm32f30x_adc.c ****   *     @arg ADC_SampleTime_19Cycles5: Sample time equal to 19.5 cycles	
1157:../src/stm32f30x_adc.c ****   *     @arg ADC_SampleTime_61Cycles5: Sample time equal to 61.5 cycles	
1158:../src/stm32f30x_adc.c ****   *     @arg ADC_SampleTime_181Cycles5: Sample time equal to 181.5 cycles	
1159:../src/stm32f30x_adc.c ****   *     @arg ADC_SampleTime_601Cycles5: Sample time equal to 601.5 cycles	
1160:../src/stm32f30x_adc.c ****   * @retval None
1161:../src/stm32f30x_adc.c ****   */
1162:../src/stm32f30x_adc.c **** void ADC_RegularChannelConfig(ADC_TypeDef* ADCx, uint8_t ADC_Channel, uint8_t Rank, uint8_t ADC_Sam
1163:../src/stm32f30x_adc.c **** {
 1848              		.loc 1 1163 0
 1849              		.cfi_startproc
 1850              		@ args = 0, pretend = 0, frame = 16
 1851              		@ frame_needed = 1, uses_anonymous_args = 0
 1852              		@ link register save eliminated.
 1853 0948 80B4     		push	{r7}
 1854              	.LCFI87:
 1855              		.cfi_def_cfa_offset 4
 1856              		.cfi_offset 7, -4
 1857 094a 85B0     		sub	sp, sp, #20
 1858              	.LCFI88:
 1859              		.cfi_def_cfa_offset 24
 1860 094c 00AF     		add	r7, sp, #0
 1861              	.LCFI89:
 1862              		.cfi_def_cfa_register 7
 1863 094e 7860     		str	r0, [r7, #4]
 1864 0950 F970     		strb	r1, [r7, #3]
 1865 0952 BA70     		strb	r2, [r7, #2]
 1866 0954 7B70     		strb	r3, [r7, #1]
1164:../src/stm32f30x_adc.c ****   uint32_t tmpreg1 = 0, tmpreg2 = 0;
 1867              		.loc 1 1164 0
 1868 0956 4FF00003 		mov	r3, #0
 1869 095a FB60     		str	r3, [r7, #12]
 1870 095c 4FF00003 		mov	r3, #0
 1871 0960 BB60     		str	r3, [r7, #8]
1165:../src/stm32f30x_adc.c ****   /* Check the parameters */
1166:../src/stm32f30x_adc.c ****   assert_param(IS_ADC_ALL_PERIPH(ADCx));
1167:../src/stm32f30x_adc.c ****   assert_param(IS_ADC_CHANNEL(ADC_Channel));
1168:../src/stm32f30x_adc.c ****   assert_param(IS_ADC_SAMPLE_TIME(ADC_SampleTime));
1169:../src/stm32f30x_adc.c **** 
1170:../src/stm32f30x_adc.c ****   /* Regular sequence configuration */
1171:../src/stm32f30x_adc.c ****   /* For Rank 1 to 4 */
1172:../src/stm32f30x_adc.c ****   if (Rank < 5)
 1872              		.loc 1 1172 0
 1873 0962 BB78     		ldrb	r3, [r7, #2]	@ zero_extendqisi2
 1874 0964 042B     		cmp	r3, #4
 1875 0966 27D8     		bhi	.L76
1173:../src/stm32f30x_adc.c ****   {
1174:../src/stm32f30x_adc.c ****     /* Get the old register value */
1175:../src/stm32f30x_adc.c ****     tmpreg1 = ADCx->SQR1;
 1876              		.loc 1 1175 0
 1877 0968 7B68     		ldr	r3, [r7, #4]
 1878 096a 1B6B     		ldr	r3, [r3, #48]
 1879 096c FB60     		str	r3, [r7, #12]
1176:../src/stm32f30x_adc.c ****     /* Calculate the mask to clear */
1177:../src/stm32f30x_adc.c ****     tmpreg2 = 0x1F << (6 * (Rank ));
 1880              		.loc 1 1177 0
 1881 096e BA78     		ldrb	r2, [r7, #2]	@ zero_extendqisi2
 1882 0970 1346     		mov	r3, r2
 1883 0972 4FEA4303 		lsl	r3, r3, #1
 1884 0976 9B18     		adds	r3, r3, r2
 1885 0978 4FEA4303 		lsl	r3, r3, #1
 1886 097c 4FF01F02 		mov	r2, #31
 1887 0980 02FA03F3 		lsl	r3, r2, r3
 1888 0984 BB60     		str	r3, [r7, #8]
1178:../src/stm32f30x_adc.c ****     /* Clear the old SQx bits for the selected rank */
1179:../src/stm32f30x_adc.c ****     tmpreg1 &= ~tmpreg2;
 1889              		.loc 1 1179 0
 1890 0986 BB68     		ldr	r3, [r7, #8]
 1891 0988 6FEA0303 		mvn	r3, r3
 1892 098c FA68     		ldr	r2, [r7, #12]
 1893 098e 1340     		ands	r3, r3, r2
 1894 0990 FB60     		str	r3, [r7, #12]
1180:../src/stm32f30x_adc.c ****     /* Calculate the mask to set */
1181:../src/stm32f30x_adc.c ****     tmpreg2 = (uint32_t)(ADC_Channel) << (6 * (Rank));
 1895              		.loc 1 1181 0
 1896 0992 F978     		ldrb	r1, [r7, #3]	@ zero_extendqisi2
 1897 0994 BA78     		ldrb	r2, [r7, #2]	@ zero_extendqisi2
 1898 0996 1346     		mov	r3, r2
 1899 0998 4FEA4303 		lsl	r3, r3, #1
 1900 099c 9B18     		adds	r3, r3, r2
 1901 099e 4FEA4303 		lsl	r3, r3, #1
 1902 09a2 01FA03F3 		lsl	r3, r1, r3
 1903 09a6 BB60     		str	r3, [r7, #8]
1182:../src/stm32f30x_adc.c ****     /* Set the SQx bits for the selected rank */
1183:../src/stm32f30x_adc.c ****     tmpreg1 |= tmpreg2;
 1904              		.loc 1 1183 0
 1905 09a8 FA68     		ldr	r2, [r7, #12]
 1906 09aa BB68     		ldr	r3, [r7, #8]
 1907 09ac 1343     		orrs	r3, r3, r2
 1908 09ae FB60     		str	r3, [r7, #12]
1184:../src/stm32f30x_adc.c ****     /* Store the new register value */
1185:../src/stm32f30x_adc.c ****     ADCx->SQR1 = tmpreg1;
 1909              		.loc 1 1185 0
 1910 09b0 7B68     		ldr	r3, [r7, #4]
 1911 09b2 FA68     		ldr	r2, [r7, #12]
 1912 09b4 1A63     		str	r2, [r3, #48]
 1913 09b6 88E0     		b	.L77
 1914              	.L76:
1186:../src/stm32f30x_adc.c ****   }
1187:../src/stm32f30x_adc.c ****   /* For Rank 5 to 9 */
1188:../src/stm32f30x_adc.c ****   else if (Rank < 10)
 1915              		.loc 1 1188 0
 1916 09b8 BB78     		ldrb	r3, [r7, #2]	@ zero_extendqisi2
 1917 09ba 092B     		cmp	r3, #9
 1918 09bc 2BD8     		bhi	.L78
1189:../src/stm32f30x_adc.c ****   {
1190:../src/stm32f30x_adc.c ****     /* Get the old register value */
1191:../src/stm32f30x_adc.c ****     tmpreg1 = ADCx->SQR2;
 1919              		.loc 1 1191 0
 1920 09be 7B68     		ldr	r3, [r7, #4]
 1921 09c0 5B6B     		ldr	r3, [r3, #52]
 1922 09c2 FB60     		str	r3, [r7, #12]
1192:../src/stm32f30x_adc.c ****     /* Calculate the mask to clear */
1193:../src/stm32f30x_adc.c ****     tmpreg2 = ADC_SQR2_SQ5 << (6 * (Rank - 5));
 1923              		.loc 1 1193 0
 1924 09c4 BA78     		ldrb	r2, [r7, #2]	@ zero_extendqisi2
 1925 09c6 1346     		mov	r3, r2
 1926 09c8 4FEA4303 		lsl	r3, r3, #1
 1927 09cc 9B18     		adds	r3, r3, r2
 1928 09ce 4FEA4303 		lsl	r3, r3, #1
 1929 09d2 A3F11E03 		sub	r3, r3, #30
 1930 09d6 4FF01F02 		mov	r2, #31
 1931 09da 02FA03F3 		lsl	r3, r2, r3
 1932 09de BB60     		str	r3, [r7, #8]
1194:../src/stm32f30x_adc.c ****     /* Clear the old SQx bits for the selected rank */
1195:../src/stm32f30x_adc.c ****     tmpreg1 &= ~tmpreg2;
 1933              		.loc 1 1195 0
 1934 09e0 BB68     		ldr	r3, [r7, #8]
 1935 09e2 6FEA0303 		mvn	r3, r3
 1936 09e6 FA68     		ldr	r2, [r7, #12]
 1937 09e8 1340     		ands	r3, r3, r2
 1938 09ea FB60     		str	r3, [r7, #12]
1196:../src/stm32f30x_adc.c ****     /* Calculate the mask to set */
1197:../src/stm32f30x_adc.c ****     tmpreg2 = (uint32_t)(ADC_Channel) << (6 * (Rank - 5));
 1939              		.loc 1 1197 0
 1940 09ec F978     		ldrb	r1, [r7, #3]	@ zero_extendqisi2
 1941 09ee BA78     		ldrb	r2, [r7, #2]	@ zero_extendqisi2
 1942 09f0 1346     		mov	r3, r2
 1943 09f2 4FEA4303 		lsl	r3, r3, #1
 1944 09f6 9B18     		adds	r3, r3, r2
 1945 09f8 4FEA4303 		lsl	r3, r3, #1
 1946 09fc A3F11E03 		sub	r3, r3, #30
 1947 0a00 01FA03F3 		lsl	r3, r1, r3
 1948 0a04 BB60     		str	r3, [r7, #8]
1198:../src/stm32f30x_adc.c ****     /* Set the SQx bits for the selected rank */
1199:../src/stm32f30x_adc.c ****     tmpreg1 |= tmpreg2;
 1949              		.loc 1 1199 0
 1950 0a06 FA68     		ldr	r2, [r7, #12]
 1951 0a08 BB68     		ldr	r3, [r7, #8]
 1952 0a0a 1343     		orrs	r3, r3, r2
 1953 0a0c FB60     		str	r3, [r7, #12]
1200:../src/stm32f30x_adc.c ****     /* Store the new register value */
1201:../src/stm32f30x_adc.c ****     ADCx->SQR2 = tmpreg1;
 1954              		.loc 1 1201 0
 1955 0a0e 7B68     		ldr	r3, [r7, #4]
 1956 0a10 FA68     		ldr	r2, [r7, #12]
 1957 0a12 5A63     		str	r2, [r3, #52]
 1958 0a14 59E0     		b	.L77
 1959              	.L78:
1202:../src/stm32f30x_adc.c ****   }
1203:../src/stm32f30x_adc.c ****   /* For Rank 10 to 14 */
1204:../src/stm32f30x_adc.c ****   else if (Rank < 15)
 1960              		.loc 1 1204 0
 1961 0a16 BB78     		ldrb	r3, [r7, #2]	@ zero_extendqisi2
 1962 0a18 0E2B     		cmp	r3, #14
 1963 0a1a 2BD8     		bhi	.L79
1205:../src/stm32f30x_adc.c ****   {
1206:../src/stm32f30x_adc.c ****     /* Get the old register value */
1207:../src/stm32f30x_adc.c ****     tmpreg1 = ADCx->SQR3;
 1964              		.loc 1 1207 0
 1965 0a1c 7B68     		ldr	r3, [r7, #4]
 1966 0a1e 9B6B     		ldr	r3, [r3, #56]
 1967 0a20 FB60     		str	r3, [r7, #12]
1208:../src/stm32f30x_adc.c ****     /* Calculate the mask to clear */
1209:../src/stm32f30x_adc.c ****     tmpreg2 = ADC_SQR3_SQ10 << (6 * (Rank - 10));
 1968              		.loc 1 1209 0
 1969 0a22 BA78     		ldrb	r2, [r7, #2]	@ zero_extendqisi2
 1970 0a24 1346     		mov	r3, r2
 1971 0a26 4FEA4303 		lsl	r3, r3, #1
 1972 0a2a 9B18     		adds	r3, r3, r2
 1973 0a2c 4FEA4303 		lsl	r3, r3, #1
 1974 0a30 A3F13C03 		sub	r3, r3, #60
 1975 0a34 4FF01F02 		mov	r2, #31
 1976 0a38 02FA03F3 		lsl	r3, r2, r3
 1977 0a3c BB60     		str	r3, [r7, #8]
1210:../src/stm32f30x_adc.c ****     /* Clear the old SQx bits for the selected rank */
1211:../src/stm32f30x_adc.c ****     tmpreg1 &= ~tmpreg2;
 1978              		.loc 1 1211 0
 1979 0a3e BB68     		ldr	r3, [r7, #8]
 1980 0a40 6FEA0303 		mvn	r3, r3
 1981 0a44 FA68     		ldr	r2, [r7, #12]
 1982 0a46 1340     		ands	r3, r3, r2
 1983 0a48 FB60     		str	r3, [r7, #12]
1212:../src/stm32f30x_adc.c ****     /* Calculate the mask to set */
1213:../src/stm32f30x_adc.c ****     tmpreg2 = (uint32_t)(ADC_Channel) << (6 * (Rank - 10));
 1984              		.loc 1 1213 0
 1985 0a4a F978     		ldrb	r1, [r7, #3]	@ zero_extendqisi2
 1986 0a4c BA78     		ldrb	r2, [r7, #2]	@ zero_extendqisi2
 1987 0a4e 1346     		mov	r3, r2
 1988 0a50 4FEA4303 		lsl	r3, r3, #1
 1989 0a54 9B18     		adds	r3, r3, r2
 1990 0a56 4FEA4303 		lsl	r3, r3, #1
 1991 0a5a A3F13C03 		sub	r3, r3, #60
 1992 0a5e 01FA03F3 		lsl	r3, r1, r3
 1993 0a62 BB60     		str	r3, [r7, #8]
1214:../src/stm32f30x_adc.c ****     /* Set the SQx bits for the selected rank */
1215:../src/stm32f30x_adc.c ****     tmpreg1 |= tmpreg2;
 1994              		.loc 1 1215 0
 1995 0a64 FA68     		ldr	r2, [r7, #12]
 1996 0a66 BB68     		ldr	r3, [r7, #8]
 1997 0a68 1343     		orrs	r3, r3, r2
 1998 0a6a FB60     		str	r3, [r7, #12]
1216:../src/stm32f30x_adc.c ****     /* Store the new register value */
1217:../src/stm32f30x_adc.c ****     ADCx->SQR3 = tmpreg1;
 1999              		.loc 1 1217 0
 2000 0a6c 7B68     		ldr	r3, [r7, #4]
 2001 0a6e FA68     		ldr	r2, [r7, #12]
 2002 0a70 9A63     		str	r2, [r3, #56]
 2003 0a72 2AE0     		b	.L77
 2004              	.L79:
1218:../src/stm32f30x_adc.c ****   }
1219:../src/stm32f30x_adc.c ****   else 
1220:../src/stm32f30x_adc.c ****   {
1221:../src/stm32f30x_adc.c ****     /* Get the old register value */
1222:../src/stm32f30x_adc.c ****     tmpreg1 = ADCx->SQR4;
 2005              		.loc 1 1222 0
 2006 0a74 7B68     		ldr	r3, [r7, #4]
 2007 0a76 DB6B     		ldr	r3, [r3, #60]
 2008 0a78 FB60     		str	r3, [r7, #12]
1223:../src/stm32f30x_adc.c ****     /* Calculate the mask to clear */
1224:../src/stm32f30x_adc.c ****     tmpreg2 = ADC_SQR3_SQ15 << (6 * (Rank - 15));
 2009              		.loc 1 1224 0
 2010 0a7a BA78     		ldrb	r2, [r7, #2]	@ zero_extendqisi2
 2011 0a7c 1346     		mov	r3, r2
 2012 0a7e 4FEA4303 		lsl	r3, r3, #1
 2013 0a82 9B18     		adds	r3, r3, r2
 2014 0a84 4FEA4303 		lsl	r3, r3, #1
 2015 0a88 A3F15A03 		sub	r3, r3, #90
 2016 0a8c 4FF01F02 		mov	r2, #31
 2017 0a90 02FA03F3 		lsl	r3, r2, r3
 2018 0a94 BB60     		str	r3, [r7, #8]
1225:../src/stm32f30x_adc.c ****     /* Clear the old SQx bits for the selected rank */
1226:../src/stm32f30x_adc.c ****     tmpreg1 &= ~tmpreg2;
 2019              		.loc 1 1226 0
 2020 0a96 BB68     		ldr	r3, [r7, #8]
 2021 0a98 6FEA0303 		mvn	r3, r3
 2022 0a9c FA68     		ldr	r2, [r7, #12]
 2023 0a9e 1340     		ands	r3, r3, r2
 2024 0aa0 FB60     		str	r3, [r7, #12]
1227:../src/stm32f30x_adc.c ****     /* Calculate the mask to set */
1228:../src/stm32f30x_adc.c ****     tmpreg2 = (uint32_t)(ADC_Channel) << (6 * (Rank - 15));
 2025              		.loc 1 1228 0
 2026 0aa2 F978     		ldrb	r1, [r7, #3]	@ zero_extendqisi2
 2027 0aa4 BA78     		ldrb	r2, [r7, #2]	@ zero_extendqisi2
 2028 0aa6 1346     		mov	r3, r2
 2029 0aa8 4FEA4303 		lsl	r3, r3, #1
 2030 0aac 9B18     		adds	r3, r3, r2
 2031 0aae 4FEA4303 		lsl	r3, r3, #1
 2032 0ab2 A3F15A03 		sub	r3, r3, #90
 2033 0ab6 01FA03F3 		lsl	r3, r1, r3
 2034 0aba BB60     		str	r3, [r7, #8]
1229:../src/stm32f30x_adc.c ****     /* Set the SQx bits for the selected rank */
1230:../src/stm32f30x_adc.c ****     tmpreg1 |= tmpreg2;
 2035              		.loc 1 1230 0
 2036 0abc FA68     		ldr	r2, [r7, #12]
 2037 0abe BB68     		ldr	r3, [r7, #8]
 2038 0ac0 1343     		orrs	r3, r3, r2
 2039 0ac2 FB60     		str	r3, [r7, #12]
1231:../src/stm32f30x_adc.c ****     /* Store the new register value */
1232:../src/stm32f30x_adc.c ****     ADCx->SQR4 = tmpreg1;
 2040              		.loc 1 1232 0
 2041 0ac4 7B68     		ldr	r3, [r7, #4]
 2042 0ac6 FA68     		ldr	r2, [r7, #12]
 2043 0ac8 DA63     		str	r2, [r3, #60]
 2044              	.L77:
1233:../src/stm32f30x_adc.c ****   }
1234:../src/stm32f30x_adc.c **** 
1235:../src/stm32f30x_adc.c ****   /* Channel sampling configuration */
1236:../src/stm32f30x_adc.c ****   /* if ADC_Channel_10 ... ADC_Channel_18 is selected */
1237:../src/stm32f30x_adc.c ****   if (ADC_Channel > ADC_Channel_9)
 2045              		.loc 1 1237 0
 2046 0aca FB78     		ldrb	r3, [r7, #3]	@ zero_extendqisi2
 2047 0acc 092B     		cmp	r3, #9
 2048 0ace 27D9     		bls	.L80
1238:../src/stm32f30x_adc.c ****   {
1239:../src/stm32f30x_adc.c ****     /* Get the old register value */
1240:../src/stm32f30x_adc.c ****     tmpreg1 = ADCx->SMPR2;
 2049              		.loc 1 1240 0
 2050 0ad0 7B68     		ldr	r3, [r7, #4]
 2051 0ad2 9B69     		ldr	r3, [r3, #24]
 2052 0ad4 FB60     		str	r3, [r7, #12]
1241:../src/stm32f30x_adc.c ****     /* Calculate the mask to clear */
1242:../src/stm32f30x_adc.c ****     tmpreg2 = ADC_SMPR2_SMP10 << (3 * (ADC_Channel - 10));
 2053              		.loc 1 1242 0
 2054 0ad6 FA78     		ldrb	r2, [r7, #3]	@ zero_extendqisi2
 2055 0ad8 1346     		mov	r3, r2
 2056 0ada 4FEA4303 		lsl	r3, r3, #1
 2057 0ade 9B18     		adds	r3, r3, r2
 2058 0ae0 A3F11E03 		sub	r3, r3, #30
 2059 0ae4 4FF00702 		mov	r2, #7
 2060 0ae8 02FA03F3 		lsl	r3, r2, r3
 2061 0aec BB60     		str	r3, [r7, #8]
1243:../src/stm32f30x_adc.c ****     /* Clear the old channel sample time */
1244:../src/stm32f30x_adc.c **** 	ADCx->SMPR2 &= ~tmpreg2;
 2062              		.loc 1 1244 0
 2063 0aee 7B68     		ldr	r3, [r7, #4]
 2064 0af0 9A69     		ldr	r2, [r3, #24]
 2065 0af2 BB68     		ldr	r3, [r7, #8]
 2066 0af4 6FEA0303 		mvn	r3, r3
 2067 0af8 1A40     		ands	r2, r2, r3
 2068 0afa 7B68     		ldr	r3, [r7, #4]
 2069 0afc 9A61     		str	r2, [r3, #24]
1245:../src/stm32f30x_adc.c ****     /* Calculate the mask to set */
1246:../src/stm32f30x_adc.c **** 	ADCx->SMPR2 |= (uint32_t)ADC_SampleTime << (3 * (ADC_Channel - 10));
 2070              		.loc 1 1246 0
 2071 0afe 7B68     		ldr	r3, [r7, #4]
 2072 0b00 9969     		ldr	r1, [r3, #24]
 2073 0b02 7878     		ldrb	r0, [r7, #1]	@ zero_extendqisi2
 2074 0b04 FA78     		ldrb	r2, [r7, #3]	@ zero_extendqisi2
 2075 0b06 1346     		mov	r3, r2
 2076 0b08 4FEA4303 		lsl	r3, r3, #1
 2077 0b0c 9B18     		adds	r3, r3, r2
 2078 0b0e A3F11E03 		sub	r3, r3, #30
 2079 0b12 00FA03F3 		lsl	r3, r0, r3
 2080 0b16 41EA0302 		orr	r2, r1, r3
 2081 0b1a 7B68     		ldr	r3, [r7, #4]
 2082 0b1c 9A61     		str	r2, [r3, #24]
 2083 0b1e 24E0     		b	.L75
 2084              	.L80:
1247:../src/stm32f30x_adc.c **** 
1248:../src/stm32f30x_adc.c ****   }
1249:../src/stm32f30x_adc.c ****   else /* ADC_Channel include in ADC_Channel_[0..9] */
1250:../src/stm32f30x_adc.c ****   {
1251:../src/stm32f30x_adc.c ****     /* Get the old register value */
1252:../src/stm32f30x_adc.c ****     tmpreg1 = ADCx->SMPR1;
 2085              		.loc 1 1252 0
 2086 0b20 7B68     		ldr	r3, [r7, #4]
 2087 0b22 5B69     		ldr	r3, [r3, #20]
 2088 0b24 FB60     		str	r3, [r7, #12]
1253:../src/stm32f30x_adc.c ****     /* Calculate the mask to clear */
1254:../src/stm32f30x_adc.c ****     tmpreg2 = ADC_SMPR1_SMP1 << (3 * (ADC_Channel - 1));
 2089              		.loc 1 1254 0
 2090 0b26 FB78     		ldrb	r3, [r7, #3]	@ zero_extendqisi2
 2091 0b28 03F1FF32 		add	r2, r3, #-1
 2092 0b2c 1346     		mov	r3, r2
 2093 0b2e 4FEA4303 		lsl	r3, r3, #1
 2094 0b32 9B18     		adds	r3, r3, r2
 2095 0b34 4FF03802 		mov	r2, #56
 2096 0b38 02FA03F3 		lsl	r3, r2, r3
 2097 0b3c BB60     		str	r3, [r7, #8]
1255:../src/stm32f30x_adc.c ****     /* Clear the old channel sample time */
1256:../src/stm32f30x_adc.c **** 	ADCx->SMPR1 &= ~tmpreg2;
 2098              		.loc 1 1256 0
 2099 0b3e 7B68     		ldr	r3, [r7, #4]
 2100 0b40 5A69     		ldr	r2, [r3, #20]
 2101 0b42 BB68     		ldr	r3, [r7, #8]
 2102 0b44 6FEA0303 		mvn	r3, r3
 2103 0b48 1A40     		ands	r2, r2, r3
 2104 0b4a 7B68     		ldr	r3, [r7, #4]
 2105 0b4c 5A61     		str	r2, [r3, #20]
1257:../src/stm32f30x_adc.c ****     /* Calculate the mask to set */
1258:../src/stm32f30x_adc.c **** 	ADCx->SMPR1 |= (uint32_t)ADC_SampleTime << (3 * (ADC_Channel));
 2106              		.loc 1 1258 0
 2107 0b4e 7B68     		ldr	r3, [r7, #4]
 2108 0b50 5969     		ldr	r1, [r3, #20]
 2109 0b52 7878     		ldrb	r0, [r7, #1]	@ zero_extendqisi2
 2110 0b54 FA78     		ldrb	r2, [r7, #3]	@ zero_extendqisi2
 2111 0b56 1346     		mov	r3, r2
 2112 0b58 4FEA4303 		lsl	r3, r3, #1
 2113 0b5c 9B18     		adds	r3, r3, r2
 2114 0b5e 00FA03F3 		lsl	r3, r0, r3
 2115 0b62 41EA0302 		orr	r2, r1, r3
 2116 0b66 7B68     		ldr	r3, [r7, #4]
 2117 0b68 5A61     		str	r2, [r3, #20]
 2118              	.L75:
1259:../src/stm32f30x_adc.c ****   }
1260:../src/stm32f30x_adc.c **** }
 2119              		.loc 1 1260 0
 2120 0b6a 07F11407 		add	r7, r7, #20
 2121 0b6e BD46     		mov	sp, r7
 2122 0b70 80BC     		pop	{r7}
 2123 0b72 7047     		bx	lr
 2124              		.cfi_endproc
 2125              	.LFE140:
 2127              		.align	2
 2128              		.global	ADC_RegularChannelSequencerLengthConfig
 2129              		.thumb
 2130              		.thumb_func
 2132              	ADC_RegularChannelSequencerLengthConfig:
 2133              	.LFB141:
1261:../src/stm32f30x_adc.c **** 
1262:../src/stm32f30x_adc.c **** /**
1263:../src/stm32f30x_adc.c ****   * @brief  Sets the ADC regular channel sequence lenght.
1264:../src/stm32f30x_adc.c ****   * @param  ADCx: where x can be 1, 2 or 3 to select the ADC peripheral.
1265:../src/stm32f30x_adc.c ****   * @param  SequenceLength: The Regular sequence length. This parameter must be between 1 to 16.
1266:../src/stm32f30x_adc.c ****   *   This parameter can be: ENABLE or DISABLE.
1267:../src/stm32f30x_adc.c ****   * @retval None
1268:../src/stm32f30x_adc.c ****   */
1269:../src/stm32f30x_adc.c **** void ADC_RegularChannelSequencerLengthConfig(ADC_TypeDef* ADCx, uint8_t SequencerLength)
1270:../src/stm32f30x_adc.c **** {
 2134              		.loc 1 1270 0
 2135              		.cfi_startproc
 2136              		@ args = 0, pretend = 0, frame = 8
 2137              		@ frame_needed = 1, uses_anonymous_args = 0
 2138              		@ link register save eliminated.
 2139 0b74 80B4     		push	{r7}
 2140              	.LCFI90:
 2141              		.cfi_def_cfa_offset 4
 2142              		.cfi_offset 7, -4
 2143 0b76 83B0     		sub	sp, sp, #12
 2144              	.LCFI91:
 2145              		.cfi_def_cfa_offset 16
 2146 0b78 00AF     		add	r7, sp, #0
 2147              	.LCFI92:
 2148              		.cfi_def_cfa_register 7
 2149 0b7a 7860     		str	r0, [r7, #4]
 2150 0b7c 0B46     		mov	r3, r1
 2151 0b7e FB70     		strb	r3, [r7, #3]
1271:../src/stm32f30x_adc.c ****   /* Check the parameters */
1272:../src/stm32f30x_adc.c ****   assert_param(IS_ADC_ALL_PERIPH(ADCx));
1273:../src/stm32f30x_adc.c **** 
1274:../src/stm32f30x_adc.c ****   /* Configure the ADC sequence lenght */  
1275:../src/stm32f30x_adc.c ****   ADCx->SQR1 &= ~(uint32_t)ADC_SQR1_L;
 2152              		.loc 1 1275 0
 2153 0b80 7B68     		ldr	r3, [r7, #4]
 2154 0b82 1B6B     		ldr	r3, [r3, #48]
 2155 0b84 23F00F02 		bic	r2, r3, #15
 2156 0b88 7B68     		ldr	r3, [r7, #4]
 2157 0b8a 1A63     		str	r2, [r3, #48]
1276:../src/stm32f30x_adc.c ****   ADCx->SQR1 |= (uint32_t)(SequencerLength - 1);   
 2158              		.loc 1 1276 0
 2159 0b8c 7B68     		ldr	r3, [r7, #4]
 2160 0b8e 1A6B     		ldr	r2, [r3, #48]
 2161 0b90 FB78     		ldrb	r3, [r7, #3]	@ zero_extendqisi2
 2162 0b92 03F1FF33 		add	r3, r3, #-1
 2163 0b96 1A43     		orrs	r2, r2, r3
 2164 0b98 7B68     		ldr	r3, [r7, #4]
 2165 0b9a 1A63     		str	r2, [r3, #48]
1277:../src/stm32f30x_adc.c **** }
 2166              		.loc 1 1277 0
 2167 0b9c 07F10C07 		add	r7, r7, #12
 2168 0ba0 BD46     		mov	sp, r7
 2169 0ba2 80BC     		pop	{r7}
 2170 0ba4 7047     		bx	lr
 2171              		.cfi_endproc
 2172              	.LFE141:
 2174 0ba6 00BF     		.align	2
 2175              		.global	ADC_ExternalTriggerConfig
 2176              		.thumb
 2177              		.thumb_func
 2179              	ADC_ExternalTriggerConfig:
 2180              	.LFB142:
1278:../src/stm32f30x_adc.c **** 
1279:../src/stm32f30x_adc.c **** /**
1280:../src/stm32f30x_adc.c ****   * @brief  External Trigger Enable and Polarity Selection for regular channels.
1281:../src/stm32f30x_adc.c ****   * @param  ADCx: where x can be 1, 2, 3 or 4 to select the ADC peripheral.
1282:../src/stm32f30x_adc.c ****   * @param  ADC_ExternalTrigConvEvent: ADC external Trigger source.
1283:../src/stm32f30x_adc.c ****   *   This parameter can be one of the following values:
1284:../src/stm32f30x_adc.c ****   *     @arg ADC_ExternalTrigger_Event0: External trigger event 0 
1285:../src/stm32f30x_adc.c ****   *     @arg ADC_ExternalTrigger_Event1: External trigger event 1
1286:../src/stm32f30x_adc.c ****   *     @arg ADC_ExternalTrigger_Event2: External trigger event 2
1287:../src/stm32f30x_adc.c ****   *     @arg ADC_ExternalTrigger_Event3: External trigger event 3
1288:../src/stm32f30x_adc.c ****   *     @arg ADC_ExternalTrigger_Event4: External trigger event 4 
1289:../src/stm32f30x_adc.c ****   *     @arg ADC_ExternalTrigger_Event5: External trigger event 5
1290:../src/stm32f30x_adc.c ****   *     @arg ADC_ExternalTrigger_Event6: External trigger event 6
1291:../src/stm32f30x_adc.c ****   *     @arg ADC_ExternalTrigger_Event7: External trigger event 7
1292:../src/stm32f30x_adc.c ****   *     @arg ADC_ExternalTrigger_Event8: External trigger event 8 
1293:../src/stm32f30x_adc.c ****   *     @arg ADC_ExternalTrigger_Event9: External trigger event 9
1294:../src/stm32f30x_adc.c ****   *     @arg ADC_ExternalTrigger_Event10: External trigger event 10
1295:../src/stm32f30x_adc.c ****   *     @arg ADC_ExternalTrigger_Event11: External trigger event 11
1296:../src/stm32f30x_adc.c ****   *     @arg ADC_ExternalTrigger_Event12: External trigger event 12 
1297:../src/stm32f30x_adc.c ****   *     @arg ADC_ExternalTrigger_Event13: External trigger event 13
1298:../src/stm32f30x_adc.c ****   *     @arg ADC_ExternalTrigger_Event14: External trigger event 14
1299:../src/stm32f30x_adc.c ****   *     @arg ADC_ExternalTrigger_Event15: External trigger event 15	  
1300:../src/stm32f30x_adc.c ****   * @param  ADC_ExternalTrigEventEdge: ADC external Trigger Polarity.
1301:../src/stm32f30x_adc.c ****   *   This parameter can be one of the following values:
1302:../src/stm32f30x_adc.c ****   *     @arg ADC_ExternalTrigEventEdge_OFF: Hardware trigger detection disabled 
1303:../src/stm32f30x_adc.c ****   *                                          (conversions can be launched by software)
1304:../src/stm32f30x_adc.c ****   *     @arg ADC_ExternalTrigEventEdge_RisingEdge: Hardware trigger detection on the rising edge
1305:../src/stm32f30x_adc.c ****   *     @arg ADC_ExternalTrigEventEdge_FallingEdge: Hardware trigger detection on the falling edge
1306:../src/stm32f30x_adc.c ****   *     @arg ADC_ExternalTrigEventEdge_BothEdge: Hardware trigger detection on both the rising and 
1307:../src/stm32f30x_adc.c ****   * @retval None
1308:../src/stm32f30x_adc.c ****   */
1309:../src/stm32f30x_adc.c **** void ADC_ExternalTriggerConfig(ADC_TypeDef* ADCx, uint16_t ADC_ExternalTrigConvEvent, uint16_t ADC_
1310:../src/stm32f30x_adc.c **** {
 2181              		.loc 1 1310 0
 2182              		.cfi_startproc
 2183              		@ args = 0, pretend = 0, frame = 8
 2184              		@ frame_needed = 1, uses_anonymous_args = 0
 2185              		@ link register save eliminated.
 2186 0ba8 80B4     		push	{r7}
 2187              	.LCFI93:
 2188              		.cfi_def_cfa_offset 4
 2189              		.cfi_offset 7, -4
 2190 0baa 83B0     		sub	sp, sp, #12
 2191              	.LCFI94:
 2192              		.cfi_def_cfa_offset 16
 2193 0bac 00AF     		add	r7, sp, #0
 2194              	.LCFI95:
 2195              		.cfi_def_cfa_register 7
 2196 0bae 7860     		str	r0, [r7, #4]
 2197 0bb0 1346     		mov	r3, r2
 2198 0bb2 0A46     		mov	r2, r1	@ movhi
 2199 0bb4 7A80     		strh	r2, [r7, #2]	@ movhi
 2200 0bb6 3B80     		strh	r3, [r7, #0]	@ movhi
1311:../src/stm32f30x_adc.c ****   /* Check the parameters */
1312:../src/stm32f30x_adc.c ****   assert_param(IS_ADC_ALL_PERIPH(ADCx));
1313:../src/stm32f30x_adc.c ****   assert_param(IS_ADC_EXT_TRIG(ADC_ExternalTrigConvEvent));
1314:../src/stm32f30x_adc.c ****   assert_param(IS_EXTERNALTRIG_EDGE(ADC_ExternalTrigEventEdge));
1315:../src/stm32f30x_adc.c **** 
1316:../src/stm32f30x_adc.c ****   /* Disable the selected ADC conversion on external event */
1317:../src/stm32f30x_adc.c ****   ADCx->CFGR &= ~(ADC_CFGR_EXTEN | ADC_CFGR_EXTSEL);
 2201              		.loc 1 1317 0
 2202 0bb8 7B68     		ldr	r3, [r7, #4]
 2203 0bba DB68     		ldr	r3, [r3, #12]
 2204 0bbc 23F47C62 		bic	r2, r3, #4032
 2205 0bc0 7B68     		ldr	r3, [r7, #4]
 2206 0bc2 DA60     		str	r2, [r3, #12]
1318:../src/stm32f30x_adc.c ****   ADCx->CFGR |= (uint32_t)(ADC_ExternalTrigEventEdge | ADC_ExternalTrigConvEvent);
 2207              		.loc 1 1318 0
 2208 0bc4 7B68     		ldr	r3, [r7, #4]
 2209 0bc6 DA68     		ldr	r2, [r3, #12]
 2210 0bc8 3988     		ldrh	r1, [r7, #0]	@ movhi
 2211 0bca 7B88     		ldrh	r3, [r7, #2]	@ movhi
 2212 0bcc 0B43     		orrs	r3, r3, r1
 2213 0bce 9BB2     		uxth	r3, r3
 2214 0bd0 1A43     		orrs	r2, r2, r3
 2215 0bd2 7B68     		ldr	r3, [r7, #4]
 2216 0bd4 DA60     		str	r2, [r3, #12]
1319:../src/stm32f30x_adc.c **** }
 2217              		.loc 1 1319 0
 2218 0bd6 07F10C07 		add	r7, r7, #12
 2219 0bda BD46     		mov	sp, r7
 2220 0bdc 80BC     		pop	{r7}
 2221 0bde 7047     		bx	lr
 2222              		.cfi_endproc
 2223              	.LFE142:
 2225              		.align	2
 2226              		.global	ADC_StartConversion
 2227              		.thumb
 2228              		.thumb_func
 2230              	ADC_StartConversion:
 2231              	.LFB143:
1320:../src/stm32f30x_adc.c **** 
1321:../src/stm32f30x_adc.c **** /**
1322:../src/stm32f30x_adc.c ****   * @brief  Enables or disables the selected ADC start conversion .
1323:../src/stm32f30x_adc.c ****   * @param  ADCx: where x can be 1, 2, 3 or 4 to select the ADC peripheral.
1324:../src/stm32f30x_adc.c ****   * @retval None
1325:../src/stm32f30x_adc.c ****   */
1326:../src/stm32f30x_adc.c **** void ADC_StartConversion(ADC_TypeDef* ADCx)
1327:../src/stm32f30x_adc.c **** {
 2232              		.loc 1 1327 0
 2233              		.cfi_startproc
 2234              		@ args = 0, pretend = 0, frame = 8
 2235              		@ frame_needed = 1, uses_anonymous_args = 0
 2236              		@ link register save eliminated.
 2237 0be0 80B4     		push	{r7}
 2238              	.LCFI96:
 2239              		.cfi_def_cfa_offset 4
 2240              		.cfi_offset 7, -4
 2241 0be2 83B0     		sub	sp, sp, #12
 2242              	.LCFI97:
 2243              		.cfi_def_cfa_offset 16
 2244 0be4 00AF     		add	r7, sp, #0
 2245              	.LCFI98:
 2246              		.cfi_def_cfa_register 7
 2247 0be6 7860     		str	r0, [r7, #4]
1328:../src/stm32f30x_adc.c ****   /* Check the parameters */
1329:../src/stm32f30x_adc.c ****   assert_param(IS_ADC_ALL_PERIPH(ADCx));
1330:../src/stm32f30x_adc.c **** 
1331:../src/stm32f30x_adc.c ****   /* Set the ADSTART bit */
1332:../src/stm32f30x_adc.c ****   ADCx->CR |= ADC_CR_ADSTART;
 2248              		.loc 1 1332 0
 2249 0be8 7B68     		ldr	r3, [r7, #4]
 2250 0bea 9B68     		ldr	r3, [r3, #8]
 2251 0bec 43F00402 		orr	r2, r3, #4
 2252 0bf0 7B68     		ldr	r3, [r7, #4]
 2253 0bf2 9A60     		str	r2, [r3, #8]
1333:../src/stm32f30x_adc.c **** }
 2254              		.loc 1 1333 0
 2255 0bf4 07F10C07 		add	r7, r7, #12
 2256 0bf8 BD46     		mov	sp, r7
 2257 0bfa 80BC     		pop	{r7}
 2258 0bfc 7047     		bx	lr
 2259              		.cfi_endproc
 2260              	.LFE143:
 2262 0bfe 00BF     		.align	2
 2263              		.global	ADC_GetStartConversionStatus
 2264              		.thumb
 2265              		.thumb_func
 2267              	ADC_GetStartConversionStatus:
 2268              	.LFB144:
1334:../src/stm32f30x_adc.c **** 
1335:../src/stm32f30x_adc.c **** /**
1336:../src/stm32f30x_adc.c ****   * @brief  Gets the selected ADC start conversion Status.
1337:../src/stm32f30x_adc.c ****   * @param  ADCx: where x can be 1, 2, 3 or 4 to select the ADC peripheral.
1338:../src/stm32f30x_adc.c ****   * @retval The new state of ADC start conversion (SET or RESET).
1339:../src/stm32f30x_adc.c ****   */
1340:../src/stm32f30x_adc.c **** FlagStatus ADC_GetStartConversionStatus(ADC_TypeDef* ADCx)
1341:../src/stm32f30x_adc.c **** {
 2269              		.loc 1 1341 0
 2270              		.cfi_startproc
 2271              		@ args = 0, pretend = 0, frame = 16
 2272              		@ frame_needed = 1, uses_anonymous_args = 0
 2273              		@ link register save eliminated.
 2274 0c00 80B4     		push	{r7}
 2275              	.LCFI99:
 2276              		.cfi_def_cfa_offset 4
 2277              		.cfi_offset 7, -4
 2278 0c02 85B0     		sub	sp, sp, #20
 2279              	.LCFI100:
 2280              		.cfi_def_cfa_offset 24
 2281 0c04 00AF     		add	r7, sp, #0
 2282              	.LCFI101:
 2283              		.cfi_def_cfa_register 7
 2284 0c06 7860     		str	r0, [r7, #4]
1342:../src/stm32f30x_adc.c ****   FlagStatus bitstatus = RESET;
 2285              		.loc 1 1342 0
 2286 0c08 4FF00003 		mov	r3, #0
 2287 0c0c FB73     		strb	r3, [r7, #15]
1343:../src/stm32f30x_adc.c ****   /* Check the parameters */
1344:../src/stm32f30x_adc.c ****   assert_param(IS_ADC_ALL_PERIPH(ADCx));
1345:../src/stm32f30x_adc.c ****   /* Check the status of ADSTART bit */
1346:../src/stm32f30x_adc.c ****   if ((ADCx->CR & ADC_CR_ADSTART) != (uint32_t)RESET)
 2288              		.loc 1 1346 0
 2289 0c0e 7B68     		ldr	r3, [r7, #4]
 2290 0c10 9B68     		ldr	r3, [r3, #8]
 2291 0c12 03F00403 		and	r3, r3, #4
 2292 0c16 002B     		cmp	r3, #0
 2293 0c18 03D0     		beq	.L86
1347:../src/stm32f30x_adc.c ****   {
1348:../src/stm32f30x_adc.c ****     /* ADSTART bit is set */
1349:../src/stm32f30x_adc.c ****     bitstatus = SET;
 2294              		.loc 1 1349 0
 2295 0c1a 4FF00103 		mov	r3, #1
 2296 0c1e FB73     		strb	r3, [r7, #15]
 2297 0c20 02E0     		b	.L87
 2298              	.L86:
1350:../src/stm32f30x_adc.c ****   }
1351:../src/stm32f30x_adc.c ****   else
1352:../src/stm32f30x_adc.c ****   {
1353:../src/stm32f30x_adc.c ****     /* ADSTART bit is reset */
1354:../src/stm32f30x_adc.c ****     bitstatus = RESET;
 2299              		.loc 1 1354 0
 2300 0c22 4FF00003 		mov	r3, #0
 2301 0c26 FB73     		strb	r3, [r7, #15]
 2302              	.L87:
1355:../src/stm32f30x_adc.c ****   }
1356:../src/stm32f30x_adc.c ****   /* Return the ADSTART bit status */
1357:../src/stm32f30x_adc.c ****   return  bitstatus;
 2303              		.loc 1 1357 0
 2304 0c28 FB7B     		ldrb	r3, [r7, #15]	@ zero_extendqisi2
1358:../src/stm32f30x_adc.c **** }
 2305              		.loc 1 1358 0
 2306 0c2a 1846     		mov	r0, r3
 2307 0c2c 07F11407 		add	r7, r7, #20
 2308 0c30 BD46     		mov	sp, r7
 2309 0c32 80BC     		pop	{r7}
 2310 0c34 7047     		bx	lr
 2311              		.cfi_endproc
 2312              	.LFE144:
 2314 0c36 00BF     		.align	2
 2315              		.global	ADC_StopConversion
 2316              		.thumb
 2317              		.thumb_func
 2319              	ADC_StopConversion:
 2320              	.LFB145:
1359:../src/stm32f30x_adc.c **** 
1360:../src/stm32f30x_adc.c **** /**
1361:../src/stm32f30x_adc.c ****   * @brief  Stops the selected ADC ongoing conversion.
1362:../src/stm32f30x_adc.c ****   * @param  ADCx: where x can be 1, 2, 3 or 4 to select the ADC peripheral.
1363:../src/stm32f30x_adc.c ****   * @retval None
1364:../src/stm32f30x_adc.c ****   */
1365:../src/stm32f30x_adc.c **** void ADC_StopConversion(ADC_TypeDef* ADCx)
1366:../src/stm32f30x_adc.c **** {
 2321              		.loc 1 1366 0
 2322              		.cfi_startproc
 2323              		@ args = 0, pretend = 0, frame = 8
 2324              		@ frame_needed = 1, uses_anonymous_args = 0
 2325              		@ link register save eliminated.
 2326 0c38 80B4     		push	{r7}
 2327              	.LCFI102:
 2328              		.cfi_def_cfa_offset 4
 2329              		.cfi_offset 7, -4
 2330 0c3a 83B0     		sub	sp, sp, #12
 2331              	.LCFI103:
 2332              		.cfi_def_cfa_offset 16
 2333 0c3c 00AF     		add	r7, sp, #0
 2334              	.LCFI104:
 2335              		.cfi_def_cfa_register 7
 2336 0c3e 7860     		str	r0, [r7, #4]
1367:../src/stm32f30x_adc.c ****   /* Check the parameters */
1368:../src/stm32f30x_adc.c ****   assert_param(IS_ADC_ALL_PERIPH(ADCx));
1369:../src/stm32f30x_adc.c **** 
1370:../src/stm32f30x_adc.c ****   /* Set the ADSTP bit */
1371:../src/stm32f30x_adc.c ****    ADCx->CR |= ADC_CR_ADSTP;
 2337              		.loc 1 1371 0
 2338 0c40 7B68     		ldr	r3, [r7, #4]
 2339 0c42 9B68     		ldr	r3, [r3, #8]
 2340 0c44 43F01002 		orr	r2, r3, #16
 2341 0c48 7B68     		ldr	r3, [r7, #4]
 2342 0c4a 9A60     		str	r2, [r3, #8]
1372:../src/stm32f30x_adc.c **** }
 2343              		.loc 1 1372 0
 2344 0c4c 07F10C07 		add	r7, r7, #12
 2345 0c50 BD46     		mov	sp, r7
 2346 0c52 80BC     		pop	{r7}
 2347 0c54 7047     		bx	lr
 2348              		.cfi_endproc
 2349              	.LFE145:
 2351 0c56 00BF     		.align	2
 2352              		.global	ADC_DiscModeChannelCountConfig
 2353              		.thumb
 2354              		.thumb_func
 2356              	ADC_DiscModeChannelCountConfig:
 2357              	.LFB146:
1373:../src/stm32f30x_adc.c **** 
1374:../src/stm32f30x_adc.c **** 
1375:../src/stm32f30x_adc.c **** /**
1376:../src/stm32f30x_adc.c ****   * @brief  Configures the discontinuous mode for the selected ADC regular
1377:../src/stm32f30x_adc.c ****   *         group channel.
1378:../src/stm32f30x_adc.c ****   * @param  ADCx: where x can be 1, 2, 3 or 4 to select the ADC peripheral.
1379:../src/stm32f30x_adc.c ****   * @param  Number: specifies the discontinuous mode regular channel
1380:../src/stm32f30x_adc.c ****   *         count value. This number must be between 1 and 8.
1381:../src/stm32f30x_adc.c ****   * @retval None
1382:../src/stm32f30x_adc.c ****   */
1383:../src/stm32f30x_adc.c **** void ADC_DiscModeChannelCountConfig(ADC_TypeDef* ADCx, uint8_t Number)
1384:../src/stm32f30x_adc.c **** {
 2358              		.loc 1 1384 0
 2359              		.cfi_startproc
 2360              		@ args = 0, pretend = 0, frame = 16
 2361              		@ frame_needed = 1, uses_anonymous_args = 0
 2362              		@ link register save eliminated.
 2363 0c58 80B4     		push	{r7}
 2364              	.LCFI105:
 2365              		.cfi_def_cfa_offset 4
 2366              		.cfi_offset 7, -4
 2367 0c5a 85B0     		sub	sp, sp, #20
 2368              	.LCFI106:
 2369              		.cfi_def_cfa_offset 24
 2370 0c5c 00AF     		add	r7, sp, #0
 2371              	.LCFI107:
 2372              		.cfi_def_cfa_register 7
 2373 0c5e 7860     		str	r0, [r7, #4]
 2374 0c60 0B46     		mov	r3, r1
 2375 0c62 FB70     		strb	r3, [r7, #3]
1385:../src/stm32f30x_adc.c ****   uint32_t tmpreg1 = 0;
 2376              		.loc 1 1385 0
 2377 0c64 4FF00003 		mov	r3, #0
 2378 0c68 FB60     		str	r3, [r7, #12]
1386:../src/stm32f30x_adc.c ****   uint32_t tmpreg2 = 0;
 2379              		.loc 1 1386 0
 2380 0c6a 4FF00003 		mov	r3, #0
 2381 0c6e BB60     		str	r3, [r7, #8]
1387:../src/stm32f30x_adc.c ****   /* Check the parameters */
1388:../src/stm32f30x_adc.c ****   assert_param(IS_ADC_ALL_PERIPH(ADCx));
1389:../src/stm32f30x_adc.c ****   assert_param(IS_ADC_REGULAR_DISC_NUMBER(Number));
1390:../src/stm32f30x_adc.c ****   /* Get the old register value */
1391:../src/stm32f30x_adc.c ****   tmpreg1 = ADCx->CFGR;
 2382              		.loc 1 1391 0
 2383 0c70 7B68     		ldr	r3, [r7, #4]
 2384 0c72 DB68     		ldr	r3, [r3, #12]
 2385 0c74 FB60     		str	r3, [r7, #12]
1392:../src/stm32f30x_adc.c ****   /* Clear the old discontinuous mode channel count */
1393:../src/stm32f30x_adc.c ****   tmpreg1 &= ~(uint32_t)(ADC_CFGR_DISCNUM);
 2386              		.loc 1 1393 0
 2387 0c76 FB68     		ldr	r3, [r7, #12]
 2388 0c78 23F46023 		bic	r3, r3, #917504
 2389 0c7c FB60     		str	r3, [r7, #12]
1394:../src/stm32f30x_adc.c ****   /* Set the discontinuous mode channel count */
1395:../src/stm32f30x_adc.c ****   tmpreg2 = Number - 1;
 2390              		.loc 1 1395 0
 2391 0c7e FB78     		ldrb	r3, [r7, #3]	@ zero_extendqisi2
 2392 0c80 03F1FF33 		add	r3, r3, #-1
 2393 0c84 BB60     		str	r3, [r7, #8]
1396:../src/stm32f30x_adc.c ****   tmpreg1 |= tmpreg2 << 17;
 2394              		.loc 1 1396 0
 2395 0c86 BB68     		ldr	r3, [r7, #8]
 2396 0c88 4FEA4343 		lsl	r3, r3, #17
 2397 0c8c FA68     		ldr	r2, [r7, #12]
 2398 0c8e 1343     		orrs	r3, r3, r2
 2399 0c90 FB60     		str	r3, [r7, #12]
1397:../src/stm32f30x_adc.c ****   /* Store the new register value */
1398:../src/stm32f30x_adc.c ****   ADCx->CFGR = tmpreg1;
 2400              		.loc 1 1398 0
 2401 0c92 7B68     		ldr	r3, [r7, #4]
 2402 0c94 FA68     		ldr	r2, [r7, #12]
 2403 0c96 DA60     		str	r2, [r3, #12]
1399:../src/stm32f30x_adc.c **** }
 2404              		.loc 1 1399 0
 2405 0c98 07F11407 		add	r7, r7, #20
 2406 0c9c BD46     		mov	sp, r7
 2407 0c9e 80BC     		pop	{r7}
 2408 0ca0 7047     		bx	lr
 2409              		.cfi_endproc
 2410              	.LFE146:
 2412 0ca2 00BF     		.align	2
 2413              		.global	ADC_DiscModeCmd
 2414              		.thumb
 2415              		.thumb_func
 2417              	ADC_DiscModeCmd:
 2418              	.LFB147:
1400:../src/stm32f30x_adc.c **** 
1401:../src/stm32f30x_adc.c **** /**
1402:../src/stm32f30x_adc.c ****   * @brief  Enables or disables the discontinuous mode on regular group
1403:../src/stm32f30x_adc.c ****   *         channel for the specified ADC
1404:../src/stm32f30x_adc.c ****   * @param  ADCx: where x can be 1, 2, 3 or 4 to select the ADC peripheral.
1405:../src/stm32f30x_adc.c ****   * @param  NewState: new state of the selected ADC discontinuous mode
1406:../src/stm32f30x_adc.c ****   *         on regular group channel.
1407:../src/stm32f30x_adc.c ****   *         This parameter can be: ENABLE or DISABLE.
1408:../src/stm32f30x_adc.c ****   * @retval None
1409:../src/stm32f30x_adc.c ****   */
1410:../src/stm32f30x_adc.c **** void ADC_DiscModeCmd(ADC_TypeDef* ADCx, FunctionalState NewState)
1411:../src/stm32f30x_adc.c **** {
 2419              		.loc 1 1411 0
 2420              		.cfi_startproc
 2421              		@ args = 0, pretend = 0, frame = 8
 2422              		@ frame_needed = 1, uses_anonymous_args = 0
 2423              		@ link register save eliminated.
 2424 0ca4 80B4     		push	{r7}
 2425              	.LCFI108:
 2426              		.cfi_def_cfa_offset 4
 2427              		.cfi_offset 7, -4
 2428 0ca6 83B0     		sub	sp, sp, #12
 2429              	.LCFI109:
 2430              		.cfi_def_cfa_offset 16
 2431 0ca8 00AF     		add	r7, sp, #0
 2432              	.LCFI110:
 2433              		.cfi_def_cfa_register 7
 2434 0caa 7860     		str	r0, [r7, #4]
 2435 0cac 0B46     		mov	r3, r1
 2436 0cae FB70     		strb	r3, [r7, #3]
1412:../src/stm32f30x_adc.c ****   /* Check the parameters */
1413:../src/stm32f30x_adc.c ****   assert_param(IS_ADC_ALL_PERIPH(ADCx));
1414:../src/stm32f30x_adc.c ****   assert_param(IS_FUNCTIONAL_STATE(NewState));
1415:../src/stm32f30x_adc.c ****   if (NewState != DISABLE)
 2437              		.loc 1 1415 0
 2438 0cb0 FB78     		ldrb	r3, [r7, #3]	@ zero_extendqisi2
 2439 0cb2 002B     		cmp	r3, #0
 2440 0cb4 06D0     		beq	.L92
1416:../src/stm32f30x_adc.c ****   {
1417:../src/stm32f30x_adc.c ****     /* Enable the selected ADC regular discontinuous mode */
1418:../src/stm32f30x_adc.c ****     ADCx->CFGR |= ADC_CFGR_DISCEN;
 2441              		.loc 1 1418 0
 2442 0cb6 7B68     		ldr	r3, [r7, #4]
 2443 0cb8 DB68     		ldr	r3, [r3, #12]
 2444 0cba 43F48032 		orr	r2, r3, #65536
 2445 0cbe 7B68     		ldr	r3, [r7, #4]
 2446 0cc0 DA60     		str	r2, [r3, #12]
 2447 0cc2 05E0     		b	.L91
 2448              	.L92:
1419:../src/stm32f30x_adc.c ****   }
1420:../src/stm32f30x_adc.c ****   else
1421:../src/stm32f30x_adc.c ****   {
1422:../src/stm32f30x_adc.c ****     /* Disable the selected ADC regular discontinuous mode */
1423:../src/stm32f30x_adc.c ****     ADCx->CFGR &= ~(uint32_t)(ADC_CFGR_DISCEN);
 2449              		.loc 1 1423 0
 2450 0cc4 7B68     		ldr	r3, [r7, #4]
 2451 0cc6 DB68     		ldr	r3, [r3, #12]
 2452 0cc8 23F48032 		bic	r2, r3, #65536
 2453 0ccc 7B68     		ldr	r3, [r7, #4]
 2454 0cce DA60     		str	r2, [r3, #12]
 2455              	.L91:
1424:../src/stm32f30x_adc.c ****   }
1425:../src/stm32f30x_adc.c **** }
 2456              		.loc 1 1425 0
 2457 0cd0 07F10C07 		add	r7, r7, #12
 2458 0cd4 BD46     		mov	sp, r7
 2459 0cd6 80BC     		pop	{r7}
 2460 0cd8 7047     		bx	lr
 2461              		.cfi_endproc
 2462              	.LFE147:
 2464 0cda 00BF     		.align	2
 2465              		.global	ADC_GetConversionValue
 2466              		.thumb
 2467              		.thumb_func
 2469              	ADC_GetConversionValue:
 2470              	.LFB148:
1426:../src/stm32f30x_adc.c **** 
1427:../src/stm32f30x_adc.c **** /**
1428:../src/stm32f30x_adc.c ****   * @brief  Returns the last ADCx conversion result data for regular channel.
1429:../src/stm32f30x_adc.c ****   * @param  ADCx: where x can be 1, 2, 3 or 4 to select the ADC peripheral.
1430:../src/stm32f30x_adc.c ****   * @retval The Data conversion value.
1431:../src/stm32f30x_adc.c ****   */
1432:../src/stm32f30x_adc.c **** uint16_t ADC_GetConversionValue(ADC_TypeDef* ADCx)
1433:../src/stm32f30x_adc.c **** {
 2471              		.loc 1 1433 0
 2472              		.cfi_startproc
 2473              		@ args = 0, pretend = 0, frame = 8
 2474              		@ frame_needed = 1, uses_anonymous_args = 0
 2475              		@ link register save eliminated.
 2476 0cdc 80B4     		push	{r7}
 2477              	.LCFI111:
 2478              		.cfi_def_cfa_offset 4
 2479              		.cfi_offset 7, -4
 2480 0cde 83B0     		sub	sp, sp, #12
 2481              	.LCFI112:
 2482              		.cfi_def_cfa_offset 16
 2483 0ce0 00AF     		add	r7, sp, #0
 2484              	.LCFI113:
 2485              		.cfi_def_cfa_register 7
 2486 0ce2 7860     		str	r0, [r7, #4]
1434:../src/stm32f30x_adc.c ****   /* Check the parameters */
1435:../src/stm32f30x_adc.c ****   assert_param(IS_ADC_ALL_PERIPH(ADCx));
1436:../src/stm32f30x_adc.c ****   /* Return the selected ADC conversion value */
1437:../src/stm32f30x_adc.c ****   return (uint16_t) ADCx->DR;
 2487              		.loc 1 1437 0
 2488 0ce4 7B68     		ldr	r3, [r7, #4]
 2489 0ce6 1B6C     		ldr	r3, [r3, #64]
 2490 0ce8 9BB2     		uxth	r3, r3
1438:../src/stm32f30x_adc.c **** }
 2491              		.loc 1 1438 0
 2492 0cea 1846     		mov	r0, r3
 2493 0cec 07F10C07 		add	r7, r7, #12
 2494 0cf0 BD46     		mov	sp, r7
 2495 0cf2 80BC     		pop	{r7}
 2496 0cf4 7047     		bx	lr
 2497              		.cfi_endproc
 2498              	.LFE148:
 2500 0cf6 00BF     		.align	2
 2501              		.global	ADC_GetDualModeConversionValue
 2502              		.thumb
 2503              		.thumb_func
 2505              	ADC_GetDualModeConversionValue:
 2506              	.LFB149:
1439:../src/stm32f30x_adc.c **** 
1440:../src/stm32f30x_adc.c **** /**
1441:../src/stm32f30x_adc.c ****   * @brief  Returns the last ADC1, ADC2, ADC3 and ADC4 regular conversions results 
1442:../src/stm32f30x_adc.c ****   *         data in the selected dual mode.
1443:../src/stm32f30x_adc.c ****   * @param  ADCx: where x can be 1, 2, 3 or 4 to select the ADC peripheral.  
1444:../src/stm32f30x_adc.c ****   * @retval The Data conversion value.
1445:../src/stm32f30x_adc.c ****   * @note   In dual mode, the value returned by this function is as following
1446:../src/stm32f30x_adc.c ****   *           Data[15:0] : these bits contain the regular data of the Master ADC.
1447:../src/stm32f30x_adc.c ****   *           Data[31:16]: these bits contain the regular data of the Slave ADC.           
1448:../src/stm32f30x_adc.c ****   */
1449:../src/stm32f30x_adc.c **** uint32_t ADC_GetDualModeConversionValue(ADC_TypeDef* ADCx)
1450:../src/stm32f30x_adc.c **** {
 2507              		.loc 1 1450 0
 2508              		.cfi_startproc
 2509              		@ args = 0, pretend = 0, frame = 16
 2510              		@ frame_needed = 1, uses_anonymous_args = 0
 2511              		@ link register save eliminated.
 2512 0cf8 80B4     		push	{r7}
 2513              	.LCFI114:
 2514              		.cfi_def_cfa_offset 4
 2515              		.cfi_offset 7, -4
 2516 0cfa 85B0     		sub	sp, sp, #20
 2517              	.LCFI115:
 2518              		.cfi_def_cfa_offset 24
 2519 0cfc 00AF     		add	r7, sp, #0
 2520              	.LCFI116:
 2521              		.cfi_def_cfa_register 7
 2522 0cfe 7860     		str	r0, [r7, #4]
1451:../src/stm32f30x_adc.c ****   uint32_t tmpreg1 = 0;
 2523              		.loc 1 1451 0
 2524 0d00 4FF00003 		mov	r3, #0
 2525 0d04 FB60     		str	r3, [r7, #12]
1452:../src/stm32f30x_adc.c **** 
1453:../src/stm32f30x_adc.c ****   /* Check the parameters */
1454:../src/stm32f30x_adc.c ****   assert_param(IS_ADC_ALL_PERIPH(ADCx));
1455:../src/stm32f30x_adc.c **** 
1456:../src/stm32f30x_adc.c ****   if((ADCx == ADC1) || (ADCx== ADC2))
 2526              		.loc 1 1456 0
 2527 0d06 7B68     		ldr	r3, [r7, #4]
 2528 0d08 B3F1A04F 		cmp	r3, #1342177280
 2529 0d0c 06D0     		beq	.L97
 2530              		.loc 1 1456 0 is_stmt 0 discriminator 1
 2531 0d0e 7A68     		ldr	r2, [r7, #4]
 2532 0d10 4FF48073 		mov	r3, #256
 2533 0d14 C5F20003 		movt	r3, 20480
 2534 0d18 9A42     		cmp	r2, r3
 2535 0d1a 06D1     		bne	.L98
 2536              	.L97:
1457:../src/stm32f30x_adc.c ****   {
1458:../src/stm32f30x_adc.c ****     /* Get the dual mode conversion value */
1459:../src/stm32f30x_adc.c ****     tmpreg1 = ADC1_2->CDR;
 2537              		.loc 1 1459 0 is_stmt 1
 2538 0d1c 4FF44073 		mov	r3, #768
 2539 0d20 C5F20003 		movt	r3, 20480
 2540 0d24 DB68     		ldr	r3, [r3, #12]
 2541 0d26 FB60     		str	r3, [r7, #12]
 2542 0d28 05E0     		b	.L99
 2543              	.L98:
1460:../src/stm32f30x_adc.c ****   }
1461:../src/stm32f30x_adc.c ****   else
1462:../src/stm32f30x_adc.c ****   {	
1463:../src/stm32f30x_adc.c ****     /* Get the dual mode conversion value */
1464:../src/stm32f30x_adc.c ****     tmpreg1 = ADC3_4->CDR;
 2544              		.loc 1 1464 0
 2545 0d2a 4FF4E063 		mov	r3, #1792
 2546 0d2e C5F20003 		movt	r3, 20480
 2547 0d32 DB68     		ldr	r3, [r3, #12]
 2548 0d34 FB60     		str	r3, [r7, #12]
 2549              	.L99:
1465:../src/stm32f30x_adc.c ****   }
1466:../src/stm32f30x_adc.c ****   /* Return the dual mode conversion value */
1467:../src/stm32f30x_adc.c ****   return (uint32_t) tmpreg1;
 2550              		.loc 1 1467 0
 2551 0d36 FB68     		ldr	r3, [r7, #12]
1468:../src/stm32f30x_adc.c **** }
 2552              		.loc 1 1468 0
 2553 0d38 1846     		mov	r0, r3
 2554 0d3a 07F11407 		add	r7, r7, #20
 2555 0d3e BD46     		mov	sp, r7
 2556 0d40 80BC     		pop	{r7}
 2557 0d42 7047     		bx	lr
 2558              		.cfi_endproc
 2559              	.LFE149:
 2561              		.align	2
 2562              		.global	ADC_SetChannelOffset1
 2563              		.thumb
 2564              		.thumb_func
 2566              	ADC_SetChannelOffset1:
 2567              	.LFB150:
1469:../src/stm32f30x_adc.c **** 
1470:../src/stm32f30x_adc.c **** /**
1471:../src/stm32f30x_adc.c ****   * @brief  Set the ADC channels conversion value offset1
1472:../src/stm32f30x_adc.c ****   * @param  ADCx: where x can be 1, 2, 3 or 4 to select the ADC peripheral.
1473:../src/stm32f30x_adc.c ****   * @param  ADC_Channel: the ADC channel to configure. 
1474:../src/stm32f30x_adc.c ****   *   This parameter can be one of the following values:
1475:../src/stm32f30x_adc.c ****   *     @arg ADC_Channel_1: ADC Channel1 selected
1476:../src/stm32f30x_adc.c ****   *     @arg ADC_Channel_2: ADC Channel2 selected
1477:../src/stm32f30x_adc.c ****   *     @arg ADC_Channel_3: ADC Channel3 selected
1478:../src/stm32f30x_adc.c ****   *     @arg ADC_Channel_4: ADC Channel4 selected
1479:../src/stm32f30x_adc.c ****   *     @arg ADC_Channel_5: ADC Channel5 selected
1480:../src/stm32f30x_adc.c ****   *     @arg ADC_Channel_6: ADC Channel6 selected
1481:../src/stm32f30x_adc.c ****   *     @arg ADC_Channel_7: ADC Channel7 selected
1482:../src/stm32f30x_adc.c ****   *     @arg ADC_Channel_8: ADC Channel8 selected
1483:../src/stm32f30x_adc.c ****   *     @arg ADC_Channel_9: ADC Channel9 selected
1484:../src/stm32f30x_adc.c ****   *     @arg ADC_Channel_10: ADC Channel10 selected
1485:../src/stm32f30x_adc.c ****   *     @arg ADC_Channel_11: ADC Channel11 selected
1486:../src/stm32f30x_adc.c ****   *     @arg ADC_Channel_12: ADC Channel12 selected
1487:../src/stm32f30x_adc.c ****   *     @arg ADC_Channel_13: ADC Channel13 selected
1488:../src/stm32f30x_adc.c ****   *     @arg ADC_Channel_14: ADC Channel14 selected
1489:../src/stm32f30x_adc.c ****   *     @arg ADC_Channel_15: ADC Channel15 selected
1490:../src/stm32f30x_adc.c ****   *     @arg ADC_Channel_16: ADC Channel16 selected
1491:../src/stm32f30x_adc.c ****   *     @arg ADC_Channel_17: ADC Channel17 selected
1492:../src/stm32f30x_adc.c ****   *     @arg ADC_Channel_18: ADC Channel18 selected
1493:../src/stm32f30x_adc.c ****   * @param  Offset: the offset value for the selected ADC Channel
1494:../src/stm32f30x_adc.c ****   *   This parameter must be a 12bit value.
1495:../src/stm32f30x_adc.c ****   * @retval None
1496:../src/stm32f30x_adc.c ****   */
1497:../src/stm32f30x_adc.c **** void ADC_SetChannelOffset1(ADC_TypeDef* ADCx, uint8_t ADC_Channel, uint16_t Offset)
1498:../src/stm32f30x_adc.c **** {
 2568              		.loc 1 1498 0
 2569              		.cfi_startproc
 2570              		@ args = 0, pretend = 0, frame = 8
 2571              		@ frame_needed = 1, uses_anonymous_args = 0
 2572              		@ link register save eliminated.
 2573 0d44 80B4     		push	{r7}
 2574              	.LCFI117:
 2575              		.cfi_def_cfa_offset 4
 2576              		.cfi_offset 7, -4
 2577 0d46 83B0     		sub	sp, sp, #12
 2578              	.LCFI118:
 2579              		.cfi_def_cfa_offset 16
 2580 0d48 00AF     		add	r7, sp, #0
 2581              	.LCFI119:
 2582              		.cfi_def_cfa_register 7
 2583 0d4a 7860     		str	r0, [r7, #4]
 2584 0d4c 1346     		mov	r3, r2
 2585 0d4e 0A46     		mov	r2, r1
 2586 0d50 FA70     		strb	r2, [r7, #3]
 2587 0d52 3B80     		strh	r3, [r7, #0]	@ movhi
1499:../src/stm32f30x_adc.c ****   /* Check the parameters */
1500:../src/stm32f30x_adc.c ****   assert_param(IS_ADC_ALL_PERIPH(ADCx));
1501:../src/stm32f30x_adc.c ****   assert_param(IS_ADC_CHANNEL(ADC_Channel));
1502:../src/stm32f30x_adc.c ****   assert_param(IS_ADC_OFFSET(Offset));
1503:../src/stm32f30x_adc.c ****     
1504:../src/stm32f30x_adc.c ****   /* Select the Channel */
1505:../src/stm32f30x_adc.c ****   ADCx->OFR1 &= ~ (uint32_t) ADC_OFR1_OFFSET1_CH;
 2588              		.loc 1 1505 0
 2589 0d54 7B68     		ldr	r3, [r7, #4]
 2590 0d56 1B6E     		ldr	r3, [r3, #96]
 2591 0d58 23F0F842 		bic	r2, r3, #2080374784
 2592 0d5c 7B68     		ldr	r3, [r7, #4]
 2593 0d5e 1A66     		str	r2, [r3, #96]
1506:../src/stm32f30x_adc.c ****   ADCx->OFR1 |=	(uint32_t)((uint32_t)ADC_Channel << 26);
 2594              		.loc 1 1506 0
 2595 0d60 7B68     		ldr	r3, [r7, #4]
 2596 0d62 1A6E     		ldr	r2, [r3, #96]
 2597 0d64 FB78     		ldrb	r3, [r7, #3]	@ zero_extendqisi2
 2598 0d66 4FEA8363 		lsl	r3, r3, #26
 2599 0d6a 1A43     		orrs	r2, r2, r3
 2600 0d6c 7B68     		ldr	r3, [r7, #4]
 2601 0d6e 1A66     		str	r2, [r3, #96]
1507:../src/stm32f30x_adc.c **** 
1508:../src/stm32f30x_adc.c ****   /* Set the data offset */
1509:../src/stm32f30x_adc.c ****   ADCx->OFR1 &= ~ (uint32_t) ADC_OFR1_OFFSET1;
 2602              		.loc 1 1509 0
 2603 0d70 7B68     		ldr	r3, [r7, #4]
 2604 0d72 1B6E     		ldr	r3, [r3, #96]
 2605 0d74 23F47F63 		bic	r3, r3, #4080
 2606 0d78 23F00F03 		bic	r3, r3, #15
 2607 0d7c 7A68     		ldr	r2, [r7, #4]
 2608 0d7e 1366     		str	r3, [r2, #96]
1510:../src/stm32f30x_adc.c ****   ADCx->OFR1 |= (uint32_t)Offset;
 2609              		.loc 1 1510 0
 2610 0d80 7B68     		ldr	r3, [r7, #4]
 2611 0d82 1A6E     		ldr	r2, [r3, #96]
 2612 0d84 3B88     		ldrh	r3, [r7, #0]
 2613 0d86 1A43     		orrs	r2, r2, r3
 2614 0d88 7B68     		ldr	r3, [r7, #4]
 2615 0d8a 1A66     		str	r2, [r3, #96]
1511:../src/stm32f30x_adc.c **** }
 2616              		.loc 1 1511 0
 2617 0d8c 07F10C07 		add	r7, r7, #12
 2618 0d90 BD46     		mov	sp, r7
 2619 0d92 80BC     		pop	{r7}
 2620 0d94 7047     		bx	lr
 2621              		.cfi_endproc
 2622              	.LFE150:
 2624 0d96 00BF     		.align	2
 2625              		.global	ADC_SetChannelOffset2
 2626              		.thumb
 2627              		.thumb_func
 2629              	ADC_SetChannelOffset2:
 2630              	.LFB151:
1512:../src/stm32f30x_adc.c **** 
1513:../src/stm32f30x_adc.c **** /**
1514:../src/stm32f30x_adc.c ****   * @brief  Set the ADC channels conversion value offset2
1515:../src/stm32f30x_adc.c ****   * @param  ADCx: where x can be 1, 2, 3 or 4 to select the ADC peripheral.
1516:../src/stm32f30x_adc.c ****   * @param  ADC_Channel: the ADC channel to configure. 
1517:../src/stm32f30x_adc.c ****   *   This parameter can be one of the following values:
1518:../src/stm32f30x_adc.c ****   *     @arg ADC_Channel_1: ADC Channel1 selected
1519:../src/stm32f30x_adc.c ****   *     @arg ADC_Channel_2: ADC Channel2 selected
1520:../src/stm32f30x_adc.c ****   *     @arg ADC_Channel_3: ADC Channel3 selected
1521:../src/stm32f30x_adc.c ****   *     @arg ADC_Channel_4: ADC Channel4 selected
1522:../src/stm32f30x_adc.c ****   *     @arg ADC_Channel_5: ADC Channel5 selected
1523:../src/stm32f30x_adc.c ****   *     @arg ADC_Channel_6: ADC Channel6 selected
1524:../src/stm32f30x_adc.c ****   *     @arg ADC_Channel_7: ADC Channel7 selected
1525:../src/stm32f30x_adc.c ****   *     @arg ADC_Channel_8: ADC Channel8 selected
1526:../src/stm32f30x_adc.c ****   *     @arg ADC_Channel_9: ADC Channel9 selected
1527:../src/stm32f30x_adc.c ****   *     @arg ADC_Channel_10: ADC Channel10 selected
1528:../src/stm32f30x_adc.c ****   *     @arg ADC_Channel_11: ADC Channel11 selected
1529:../src/stm32f30x_adc.c ****   *     @arg ADC_Channel_12: ADC Channel12 selected
1530:../src/stm32f30x_adc.c ****   *     @arg ADC_Channel_13: ADC Channel13 selected
1531:../src/stm32f30x_adc.c ****   *     @arg ADC_Channel_14: ADC Channel14 selected
1532:../src/stm32f30x_adc.c ****   *     @arg ADC_Channel_15: ADC Channel15 selected
1533:../src/stm32f30x_adc.c ****   *     @arg ADC_Channel_16: ADC Channel16 selected
1534:../src/stm32f30x_adc.c ****   *     @arg ADC_Channel_17: ADC Channel17 selected
1535:../src/stm32f30x_adc.c ****   *     @arg ADC_Channel_18: ADC Channel18 selected
1536:../src/stm32f30x_adc.c ****   * @param  Offset: the offset value for the selected ADC Channel
1537:../src/stm32f30x_adc.c ****   *   This parameter must be a 12bit value.
1538:../src/stm32f30x_adc.c ****   * @retval None
1539:../src/stm32f30x_adc.c ****   */
1540:../src/stm32f30x_adc.c **** void ADC_SetChannelOffset2(ADC_TypeDef* ADCx, uint8_t ADC_Channel, uint16_t Offset)
1541:../src/stm32f30x_adc.c **** {
 2631              		.loc 1 1541 0
 2632              		.cfi_startproc
 2633              		@ args = 0, pretend = 0, frame = 8
 2634              		@ frame_needed = 1, uses_anonymous_args = 0
 2635              		@ link register save eliminated.
 2636 0d98 80B4     		push	{r7}
 2637              	.LCFI120:
 2638              		.cfi_def_cfa_offset 4
 2639              		.cfi_offset 7, -4
 2640 0d9a 83B0     		sub	sp, sp, #12
 2641              	.LCFI121:
 2642              		.cfi_def_cfa_offset 16
 2643 0d9c 00AF     		add	r7, sp, #0
 2644              	.LCFI122:
 2645              		.cfi_def_cfa_register 7
 2646 0d9e 7860     		str	r0, [r7, #4]
 2647 0da0 1346     		mov	r3, r2
 2648 0da2 0A46     		mov	r2, r1
 2649 0da4 FA70     		strb	r2, [r7, #3]
 2650 0da6 3B80     		strh	r3, [r7, #0]	@ movhi
1542:../src/stm32f30x_adc.c ****   /* Check the parameters */
1543:../src/stm32f30x_adc.c ****   assert_param(IS_ADC_ALL_PERIPH(ADCx));
1544:../src/stm32f30x_adc.c ****   assert_param(IS_ADC_CHANNEL(ADC_Channel));
1545:../src/stm32f30x_adc.c ****   assert_param(IS_ADC_OFFSET(Offset));
1546:../src/stm32f30x_adc.c ****     
1547:../src/stm32f30x_adc.c ****   /* Select the Channel */
1548:../src/stm32f30x_adc.c ****   ADCx->OFR2 &= ~ (uint32_t) ADC_OFR2_OFFSET2_CH;
 2651              		.loc 1 1548 0
 2652 0da8 7B68     		ldr	r3, [r7, #4]
 2653 0daa 5B6E     		ldr	r3, [r3, #100]
 2654 0dac 23F0F842 		bic	r2, r3, #2080374784
 2655 0db0 7B68     		ldr	r3, [r7, #4]
 2656 0db2 5A66     		str	r2, [r3, #100]
1549:../src/stm32f30x_adc.c ****   ADCx->OFR2 |=	(uint32_t)((uint32_t)ADC_Channel << 26);
 2657              		.loc 1 1549 0
 2658 0db4 7B68     		ldr	r3, [r7, #4]
 2659 0db6 5A6E     		ldr	r2, [r3, #100]
 2660 0db8 FB78     		ldrb	r3, [r7, #3]	@ zero_extendqisi2
 2661 0dba 4FEA8363 		lsl	r3, r3, #26
 2662 0dbe 1A43     		orrs	r2, r2, r3
 2663 0dc0 7B68     		ldr	r3, [r7, #4]
 2664 0dc2 5A66     		str	r2, [r3, #100]
1550:../src/stm32f30x_adc.c **** 
1551:../src/stm32f30x_adc.c ****   /* Set the data offset */
1552:../src/stm32f30x_adc.c ****   ADCx->OFR2 &= ~ (uint32_t) ADC_OFR2_OFFSET2;
 2665              		.loc 1 1552 0
 2666 0dc4 7B68     		ldr	r3, [r7, #4]
 2667 0dc6 5B6E     		ldr	r3, [r3, #100]
 2668 0dc8 23F47F63 		bic	r3, r3, #4080
 2669 0dcc 23F00F03 		bic	r3, r3, #15
 2670 0dd0 7A68     		ldr	r2, [r7, #4]
 2671 0dd2 5366     		str	r3, [r2, #100]
1553:../src/stm32f30x_adc.c ****   ADCx->OFR2 |= (uint32_t)Offset;
 2672              		.loc 1 1553 0
 2673 0dd4 7B68     		ldr	r3, [r7, #4]
 2674 0dd6 5A6E     		ldr	r2, [r3, #100]
 2675 0dd8 3B88     		ldrh	r3, [r7, #0]
 2676 0dda 1A43     		orrs	r2, r2, r3
 2677 0ddc 7B68     		ldr	r3, [r7, #4]
 2678 0dde 5A66     		str	r2, [r3, #100]
1554:../src/stm32f30x_adc.c **** }
 2679              		.loc 1 1554 0
 2680 0de0 07F10C07 		add	r7, r7, #12
 2681 0de4 BD46     		mov	sp, r7
 2682 0de6 80BC     		pop	{r7}
 2683 0de8 7047     		bx	lr
 2684              		.cfi_endproc
 2685              	.LFE151:
 2687 0dea 00BF     		.align	2
 2688              		.global	ADC_SetChannelOffset3
 2689              		.thumb
 2690              		.thumb_func
 2692              	ADC_SetChannelOffset3:
 2693              	.LFB152:
1555:../src/stm32f30x_adc.c **** 
1556:../src/stm32f30x_adc.c **** /**
1557:../src/stm32f30x_adc.c ****   * @brief  Set the ADC channels conversion value offset3
1558:../src/stm32f30x_adc.c ****   * @param  ADCx: where x can be 1, 2, 3 or 4 to select the ADC peripheral.
1559:../src/stm32f30x_adc.c ****   * @param  ADC_Channel: the ADC channel to configure. 
1560:../src/stm32f30x_adc.c ****   *   This parameter can be one of the following values:
1561:../src/stm32f30x_adc.c ****   *     @arg ADC_Channel_1: ADC Channel1 selected
1562:../src/stm32f30x_adc.c ****   *     @arg ADC_Channel_2: ADC Channel2 selected
1563:../src/stm32f30x_adc.c ****   *     @arg ADC_Channel_3: ADC Channel3 selected
1564:../src/stm32f30x_adc.c ****   *     @arg ADC_Channel_4: ADC Channel4 selected
1565:../src/stm32f30x_adc.c ****   *     @arg ADC_Channel_5: ADC Channel5 selected
1566:../src/stm32f30x_adc.c ****   *     @arg ADC_Channel_6: ADC Channel6 selected
1567:../src/stm32f30x_adc.c ****   *     @arg ADC_Channel_7: ADC Channel7 selected
1568:../src/stm32f30x_adc.c ****   *     @arg ADC_Channel_8: ADC Channel8 selected
1569:../src/stm32f30x_adc.c ****   *     @arg ADC_Channel_9: ADC Channel9 selected
1570:../src/stm32f30x_adc.c ****   *     @arg ADC_Channel_10: ADC Channel10 selected
1571:../src/stm32f30x_adc.c ****   *     @arg ADC_Channel_11: ADC Channel11 selected
1572:../src/stm32f30x_adc.c ****   *     @arg ADC_Channel_12: ADC Channel12 selected
1573:../src/stm32f30x_adc.c ****   *     @arg ADC_Channel_13: ADC Channel13 selected
1574:../src/stm32f30x_adc.c ****   *     @arg ADC_Channel_14: ADC Channel14 selected
1575:../src/stm32f30x_adc.c ****   *     @arg ADC_Channel_15: ADC Channel15 selected
1576:../src/stm32f30x_adc.c ****   *     @arg ADC_Channel_16: ADC Channel16 selected
1577:../src/stm32f30x_adc.c ****   *     @arg ADC_Channel_17: ADC Channel17 selected
1578:../src/stm32f30x_adc.c ****   *     @arg ADC_Channel_18: ADC Channel18 selected
1579:../src/stm32f30x_adc.c ****   * @param  Offset: the offset value for the selected ADC Channel
1580:../src/stm32f30x_adc.c ****   *   This parameter must be a 12bit value.
1581:../src/stm32f30x_adc.c ****   * @retval None
1582:../src/stm32f30x_adc.c ****   */
1583:../src/stm32f30x_adc.c **** void ADC_SetChannelOffset3(ADC_TypeDef* ADCx, uint8_t ADC_Channel, uint16_t Offset)
1584:../src/stm32f30x_adc.c **** {
 2694              		.loc 1 1584 0
 2695              		.cfi_startproc
 2696              		@ args = 0, pretend = 0, frame = 8
 2697              		@ frame_needed = 1, uses_anonymous_args = 0
 2698              		@ link register save eliminated.
 2699 0dec 80B4     		push	{r7}
 2700              	.LCFI123:
 2701              		.cfi_def_cfa_offset 4
 2702              		.cfi_offset 7, -4
 2703 0dee 83B0     		sub	sp, sp, #12
 2704              	.LCFI124:
 2705              		.cfi_def_cfa_offset 16
 2706 0df0 00AF     		add	r7, sp, #0
 2707              	.LCFI125:
 2708              		.cfi_def_cfa_register 7
 2709 0df2 7860     		str	r0, [r7, #4]
 2710 0df4 1346     		mov	r3, r2
 2711 0df6 0A46     		mov	r2, r1
 2712 0df8 FA70     		strb	r2, [r7, #3]
 2713 0dfa 3B80     		strh	r3, [r7, #0]	@ movhi
1585:../src/stm32f30x_adc.c ****   /* Check the parameters */
1586:../src/stm32f30x_adc.c ****   assert_param(IS_ADC_ALL_PERIPH(ADCx));
1587:../src/stm32f30x_adc.c ****   assert_param(IS_ADC_CHANNEL(ADC_Channel));
1588:../src/stm32f30x_adc.c ****   assert_param(IS_ADC_OFFSET(Offset));
1589:../src/stm32f30x_adc.c ****     
1590:../src/stm32f30x_adc.c ****   /* Select the Channel */
1591:../src/stm32f30x_adc.c ****   ADCx->OFR3 &= ~ (uint32_t) ADC_OFR3_OFFSET3_CH;
 2714              		.loc 1 1591 0
 2715 0dfc 7B68     		ldr	r3, [r7, #4]
 2716 0dfe 9B6E     		ldr	r3, [r3, #104]
 2717 0e00 23F0F842 		bic	r2, r3, #2080374784
 2718 0e04 7B68     		ldr	r3, [r7, #4]
 2719 0e06 9A66     		str	r2, [r3, #104]
1592:../src/stm32f30x_adc.c ****   ADCx->OFR3 |=	(uint32_t)((uint32_t)ADC_Channel << 26);
 2720              		.loc 1 1592 0
 2721 0e08 7B68     		ldr	r3, [r7, #4]
 2722 0e0a 9A6E     		ldr	r2, [r3, #104]
 2723 0e0c FB78     		ldrb	r3, [r7, #3]	@ zero_extendqisi2
 2724 0e0e 4FEA8363 		lsl	r3, r3, #26
 2725 0e12 1A43     		orrs	r2, r2, r3
 2726 0e14 7B68     		ldr	r3, [r7, #4]
 2727 0e16 9A66     		str	r2, [r3, #104]
1593:../src/stm32f30x_adc.c **** 
1594:../src/stm32f30x_adc.c ****   /* Set the data offset */
1595:../src/stm32f30x_adc.c ****   ADCx->OFR3 &= ~ (uint32_t) ADC_OFR3_OFFSET3;
 2728              		.loc 1 1595 0
 2729 0e18 7B68     		ldr	r3, [r7, #4]
 2730 0e1a 9B6E     		ldr	r3, [r3, #104]
 2731 0e1c 23F47F63 		bic	r3, r3, #4080
 2732 0e20 23F00F03 		bic	r3, r3, #15
 2733 0e24 7A68     		ldr	r2, [r7, #4]
 2734 0e26 9366     		str	r3, [r2, #104]
1596:../src/stm32f30x_adc.c ****   ADCx->OFR3 |= (uint32_t)Offset;
 2735              		.loc 1 1596 0
 2736 0e28 7B68     		ldr	r3, [r7, #4]
 2737 0e2a 9A6E     		ldr	r2, [r3, #104]
 2738 0e2c 3B88     		ldrh	r3, [r7, #0]
 2739 0e2e 1A43     		orrs	r2, r2, r3
 2740 0e30 7B68     		ldr	r3, [r7, #4]
 2741 0e32 9A66     		str	r2, [r3, #104]
1597:../src/stm32f30x_adc.c **** }
 2742              		.loc 1 1597 0
 2743 0e34 07F10C07 		add	r7, r7, #12
 2744 0e38 BD46     		mov	sp, r7
 2745 0e3a 80BC     		pop	{r7}
 2746 0e3c 7047     		bx	lr
 2747              		.cfi_endproc
 2748              	.LFE152:
 2750 0e3e 00BF     		.align	2
 2751              		.global	ADC_SetChannelOffset4
 2752              		.thumb
 2753              		.thumb_func
 2755              	ADC_SetChannelOffset4:
 2756              	.LFB153:
1598:../src/stm32f30x_adc.c **** 
1599:../src/stm32f30x_adc.c **** /**
1600:../src/stm32f30x_adc.c ****   * @brief  Set the ADC channels conversion value offset4
1601:../src/stm32f30x_adc.c ****   * @param  ADCx: where x can be 1, 2, 3 or 4 to select the ADC peripheral.
1602:../src/stm32f30x_adc.c ****   * @param  ADC_Channel: the ADC channel to configure. 
1603:../src/stm32f30x_adc.c ****   *   This parameter can be one of the following values:
1604:../src/stm32f30x_adc.c ****   *     @arg ADC_Channel_1: ADC Channel1 selected
1605:../src/stm32f30x_adc.c ****   *     @arg ADC_Channel_2: ADC Channel2 selected
1606:../src/stm32f30x_adc.c ****   *     @arg ADC_Channel_3: ADC Channel3 selected
1607:../src/stm32f30x_adc.c ****   *     @arg ADC_Channel_4: ADC Channel4 selected
1608:../src/stm32f30x_adc.c ****   *     @arg ADC_Channel_5: ADC Channel5 selected
1609:../src/stm32f30x_adc.c ****   *     @arg ADC_Channel_6: ADC Channel6 selected
1610:../src/stm32f30x_adc.c ****   *     @arg ADC_Channel_7: ADC Channel7 selected
1611:../src/stm32f30x_adc.c ****   *     @arg ADC_Channel_8: ADC Channel8 selected
1612:../src/stm32f30x_adc.c ****   *     @arg ADC_Channel_9: ADC Channel9 selected
1613:../src/stm32f30x_adc.c ****   *     @arg ADC_Channel_10: ADC Channel10 selected
1614:../src/stm32f30x_adc.c ****   *     @arg ADC_Channel_11: ADC Channel11 selected
1615:../src/stm32f30x_adc.c ****   *     @arg ADC_Channel_12: ADC Channel12 selected
1616:../src/stm32f30x_adc.c ****   *     @arg ADC_Channel_13: ADC Channel13 selected
1617:../src/stm32f30x_adc.c ****   *     @arg ADC_Channel_14: ADC Channel14 selected
1618:../src/stm32f30x_adc.c ****   *     @arg ADC_Channel_15: ADC Channel15 selected
1619:../src/stm32f30x_adc.c ****   *     @arg ADC_Channel_16: ADC Channel16 selected
1620:../src/stm32f30x_adc.c ****   *     @arg ADC_Channel_17: ADC Channel17 selected
1621:../src/stm32f30x_adc.c ****   *     @arg ADC_Channel_18: ADC Channel18 selected
1622:../src/stm32f30x_adc.c ****   * @param  Offset: the offset value for the selected ADC Channel
1623:../src/stm32f30x_adc.c ****   *   This parameter must be a 12bit value.
1624:../src/stm32f30x_adc.c ****   * @retval None
1625:../src/stm32f30x_adc.c ****   */
1626:../src/stm32f30x_adc.c **** void ADC_SetChannelOffset4(ADC_TypeDef* ADCx, uint8_t ADC_Channel, uint16_t Offset)
1627:../src/stm32f30x_adc.c **** {
 2757              		.loc 1 1627 0
 2758              		.cfi_startproc
 2759              		@ args = 0, pretend = 0, frame = 8
 2760              		@ frame_needed = 1, uses_anonymous_args = 0
 2761              		@ link register save eliminated.
 2762 0e40 80B4     		push	{r7}
 2763              	.LCFI126:
 2764              		.cfi_def_cfa_offset 4
 2765              		.cfi_offset 7, -4
 2766 0e42 83B0     		sub	sp, sp, #12
 2767              	.LCFI127:
 2768              		.cfi_def_cfa_offset 16
 2769 0e44 00AF     		add	r7, sp, #0
 2770              	.LCFI128:
 2771              		.cfi_def_cfa_register 7
 2772 0e46 7860     		str	r0, [r7, #4]
 2773 0e48 1346     		mov	r3, r2
 2774 0e4a 0A46     		mov	r2, r1
 2775 0e4c FA70     		strb	r2, [r7, #3]
 2776 0e4e 3B80     		strh	r3, [r7, #0]	@ movhi
1628:../src/stm32f30x_adc.c ****   /* Check the parameters */
1629:../src/stm32f30x_adc.c ****   assert_param(IS_ADC_ALL_PERIPH(ADCx));
1630:../src/stm32f30x_adc.c ****   assert_param(IS_ADC_CHANNEL(ADC_Channel));
1631:../src/stm32f30x_adc.c ****   assert_param(IS_ADC_OFFSET(Offset));
1632:../src/stm32f30x_adc.c ****     
1633:../src/stm32f30x_adc.c ****   /* Select the Channel */
1634:../src/stm32f30x_adc.c ****   ADCx->OFR4 &= ~ (uint32_t) ADC_OFR4_OFFSET4_CH;
 2777              		.loc 1 1634 0
 2778 0e50 7B68     		ldr	r3, [r7, #4]
 2779 0e52 DB6E     		ldr	r3, [r3, #108]
 2780 0e54 23F0F842 		bic	r2, r3, #2080374784
 2781 0e58 7B68     		ldr	r3, [r7, #4]
 2782 0e5a DA66     		str	r2, [r3, #108]
1635:../src/stm32f30x_adc.c ****   ADCx->OFR4 |=	(uint32_t)((uint32_t)ADC_Channel << 26);
 2783              		.loc 1 1635 0
 2784 0e5c 7B68     		ldr	r3, [r7, #4]
 2785 0e5e DA6E     		ldr	r2, [r3, #108]
 2786 0e60 FB78     		ldrb	r3, [r7, #3]	@ zero_extendqisi2
 2787 0e62 4FEA8363 		lsl	r3, r3, #26
 2788 0e66 1A43     		orrs	r2, r2, r3
 2789 0e68 7B68     		ldr	r3, [r7, #4]
 2790 0e6a DA66     		str	r2, [r3, #108]
1636:../src/stm32f30x_adc.c **** 
1637:../src/stm32f30x_adc.c ****   /* Set the data offset */
1638:../src/stm32f30x_adc.c ****   ADCx->OFR4 &= ~ (uint32_t) ADC_OFR4_OFFSET4;
 2791              		.loc 1 1638 0
 2792 0e6c 7B68     		ldr	r3, [r7, #4]
 2793 0e6e DB6E     		ldr	r3, [r3, #108]
 2794 0e70 23F47F63 		bic	r3, r3, #4080
 2795 0e74 23F00F03 		bic	r3, r3, #15
 2796 0e78 7A68     		ldr	r2, [r7, #4]
 2797 0e7a D366     		str	r3, [r2, #108]
1639:../src/stm32f30x_adc.c ****   ADCx->OFR4 |= (uint32_t)Offset;
 2798              		.loc 1 1639 0
 2799 0e7c 7B68     		ldr	r3, [r7, #4]
 2800 0e7e DA6E     		ldr	r2, [r3, #108]
 2801 0e80 3B88     		ldrh	r3, [r7, #0]
 2802 0e82 1A43     		orrs	r2, r2, r3
 2803 0e84 7B68     		ldr	r3, [r7, #4]
 2804 0e86 DA66     		str	r2, [r3, #108]
1640:../src/stm32f30x_adc.c **** }
 2805              		.loc 1 1640 0
 2806 0e88 07F10C07 		add	r7, r7, #12
 2807 0e8c BD46     		mov	sp, r7
 2808 0e8e 80BC     		pop	{r7}
 2809 0e90 7047     		bx	lr
 2810              		.cfi_endproc
 2811              	.LFE153:
 2813 0e92 00BF     		.align	2
 2814              		.global	ADC_ChannelOffset1Cmd
 2815              		.thumb
 2816              		.thumb_func
 2818              	ADC_ChannelOffset1Cmd:
 2819              	.LFB154:
1641:../src/stm32f30x_adc.c **** 
1642:../src/stm32f30x_adc.c **** /**
1643:../src/stm32f30x_adc.c ****   * @brief  Enables or disables the Offset1.
1644:../src/stm32f30x_adc.c ****   * @param  ADCx: where x can be 1, 2, 3 or 4 to select the ADC peripheral.
1645:../src/stm32f30x_adc.c ****   * @param  NewState: new state of the ADCx offset1.
1646:../src/stm32f30x_adc.c ****   *   This parameter can be: ENABLE or DISABLE.
1647:../src/stm32f30x_adc.c ****   * @retval None
1648:../src/stm32f30x_adc.c ****   */
1649:../src/stm32f30x_adc.c **** void ADC_ChannelOffset1Cmd(ADC_TypeDef* ADCx, FunctionalState NewState)
1650:../src/stm32f30x_adc.c **** {
 2820              		.loc 1 1650 0
 2821              		.cfi_startproc
 2822              		@ args = 0, pretend = 0, frame = 8
 2823              		@ frame_needed = 1, uses_anonymous_args = 0
 2824              		@ link register save eliminated.
 2825 0e94 80B4     		push	{r7}
 2826              	.LCFI129:
 2827              		.cfi_def_cfa_offset 4
 2828              		.cfi_offset 7, -4
 2829 0e96 83B0     		sub	sp, sp, #12
 2830              	.LCFI130:
 2831              		.cfi_def_cfa_offset 16
 2832 0e98 00AF     		add	r7, sp, #0
 2833              	.LCFI131:
 2834              		.cfi_def_cfa_register 7
 2835 0e9a 7860     		str	r0, [r7, #4]
 2836 0e9c 0B46     		mov	r3, r1
 2837 0e9e FB70     		strb	r3, [r7, #3]
1651:../src/stm32f30x_adc.c ****   /* Check the parameters */
1652:../src/stm32f30x_adc.c ****   assert_param(IS_ADC_ALL_PERIPH(ADCx));
1653:../src/stm32f30x_adc.c ****   assert_param(IS_FUNCTIONAL_STATE(NewState));
1654:../src/stm32f30x_adc.c **** 
1655:../src/stm32f30x_adc.c ****   if (NewState != DISABLE)
 2838              		.loc 1 1655 0
 2839 0ea0 FB78     		ldrb	r3, [r7, #3]	@ zero_extendqisi2
 2840 0ea2 002B     		cmp	r3, #0
 2841 0ea4 06D0     		beq	.L106
1656:../src/stm32f30x_adc.c ****   {
1657:../src/stm32f30x_adc.c ****     /* Set the OFFSET1_EN bit */
1658:../src/stm32f30x_adc.c ****     ADCx->OFR1 |= ADC_OFR1_OFFSET1_EN;
 2842              		.loc 1 1658 0
 2843 0ea6 7B68     		ldr	r3, [r7, #4]
 2844 0ea8 1B6E     		ldr	r3, [r3, #96]
 2845 0eaa 43F00042 		orr	r2, r3, #-2147483648
 2846 0eae 7B68     		ldr	r3, [r7, #4]
 2847 0eb0 1A66     		str	r2, [r3, #96]
 2848 0eb2 05E0     		b	.L105
 2849              	.L106:
1659:../src/stm32f30x_adc.c ****   }
1660:../src/stm32f30x_adc.c ****   else
1661:../src/stm32f30x_adc.c ****   {
1662:../src/stm32f30x_adc.c ****     /* Reset the OFFSET1_EN bit */
1663:../src/stm32f30x_adc.c ****     ADCx->OFR1 &= ~(ADC_OFR1_OFFSET1_EN);
 2850              		.loc 1 1663 0
 2851 0eb4 7B68     		ldr	r3, [r7, #4]
 2852 0eb6 1B6E     		ldr	r3, [r3, #96]
 2853 0eb8 23F00042 		bic	r2, r3, #-2147483648
 2854 0ebc 7B68     		ldr	r3, [r7, #4]
 2855 0ebe 1A66     		str	r2, [r3, #96]
 2856              	.L105:
1664:../src/stm32f30x_adc.c ****   }
1665:../src/stm32f30x_adc.c **** }
 2857              		.loc 1 1665 0
 2858 0ec0 07F10C07 		add	r7, r7, #12
 2859 0ec4 BD46     		mov	sp, r7
 2860 0ec6 80BC     		pop	{r7}
 2861 0ec8 7047     		bx	lr
 2862              		.cfi_endproc
 2863              	.LFE154:
 2865 0eca 00BF     		.align	2
 2866              		.global	ADC_ChannelOffset2Cmd
 2867              		.thumb
 2868              		.thumb_func
 2870              	ADC_ChannelOffset2Cmd:
 2871              	.LFB155:
1666:../src/stm32f30x_adc.c **** 
1667:../src/stm32f30x_adc.c **** /**
1668:../src/stm32f30x_adc.c ****   * @brief  Enables or disables the Offset2.
1669:../src/stm32f30x_adc.c ****   * @param  ADCx: where x can be 1, 2, 3 or 4 to select the ADC peripheral.
1670:../src/stm32f30x_adc.c ****   * @param  NewState: new state of the ADCx offset2.
1671:../src/stm32f30x_adc.c ****   *   This parameter can be: ENABLE or DISABLE.
1672:../src/stm32f30x_adc.c ****   * @retval None
1673:../src/stm32f30x_adc.c ****   */
1674:../src/stm32f30x_adc.c **** void ADC_ChannelOffset2Cmd(ADC_TypeDef* ADCx, FunctionalState NewState)
1675:../src/stm32f30x_adc.c **** {
 2872              		.loc 1 1675 0
 2873              		.cfi_startproc
 2874              		@ args = 0, pretend = 0, frame = 8
 2875              		@ frame_needed = 1, uses_anonymous_args = 0
 2876              		@ link register save eliminated.
 2877 0ecc 80B4     		push	{r7}
 2878              	.LCFI132:
 2879              		.cfi_def_cfa_offset 4
 2880              		.cfi_offset 7, -4
 2881 0ece 83B0     		sub	sp, sp, #12
 2882              	.LCFI133:
 2883              		.cfi_def_cfa_offset 16
 2884 0ed0 00AF     		add	r7, sp, #0
 2885              	.LCFI134:
 2886              		.cfi_def_cfa_register 7
 2887 0ed2 7860     		str	r0, [r7, #4]
 2888 0ed4 0B46     		mov	r3, r1
 2889 0ed6 FB70     		strb	r3, [r7, #3]
1676:../src/stm32f30x_adc.c ****   /* Check the parameters */
1677:../src/stm32f30x_adc.c ****   assert_param(IS_ADC_ALL_PERIPH(ADCx));
1678:../src/stm32f30x_adc.c ****   assert_param(IS_FUNCTIONAL_STATE(NewState));
1679:../src/stm32f30x_adc.c **** 
1680:../src/stm32f30x_adc.c ****   if (NewState != DISABLE)
 2890              		.loc 1 1680 0
 2891 0ed8 FB78     		ldrb	r3, [r7, #3]	@ zero_extendqisi2
 2892 0eda 002B     		cmp	r3, #0
 2893 0edc 06D0     		beq	.L109
1681:../src/stm32f30x_adc.c ****   {
1682:../src/stm32f30x_adc.c ****     /* Set the OFFSET1_EN bit */
1683:../src/stm32f30x_adc.c ****     ADCx->OFR2 |= ADC_OFR2_OFFSET2_EN;
 2894              		.loc 1 1683 0
 2895 0ede 7B68     		ldr	r3, [r7, #4]
 2896 0ee0 5B6E     		ldr	r3, [r3, #100]
 2897 0ee2 43F00042 		orr	r2, r3, #-2147483648
 2898 0ee6 7B68     		ldr	r3, [r7, #4]
 2899 0ee8 5A66     		str	r2, [r3, #100]
 2900 0eea 05E0     		b	.L108
 2901              	.L109:
1684:../src/stm32f30x_adc.c ****   }
1685:../src/stm32f30x_adc.c ****   else
1686:../src/stm32f30x_adc.c ****   {
1687:../src/stm32f30x_adc.c ****     /* Reset the OFFSET1_EN bit */
1688:../src/stm32f30x_adc.c ****     ADCx->OFR2 &= ~(ADC_OFR2_OFFSET2_EN);
 2902              		.loc 1 1688 0
 2903 0eec 7B68     		ldr	r3, [r7, #4]
 2904 0eee 5B6E     		ldr	r3, [r3, #100]
 2905 0ef0 23F00042 		bic	r2, r3, #-2147483648
 2906 0ef4 7B68     		ldr	r3, [r7, #4]
 2907 0ef6 5A66     		str	r2, [r3, #100]
 2908              	.L108:
1689:../src/stm32f30x_adc.c ****   }
1690:../src/stm32f30x_adc.c **** }
 2909              		.loc 1 1690 0
 2910 0ef8 07F10C07 		add	r7, r7, #12
 2911 0efc BD46     		mov	sp, r7
 2912 0efe 80BC     		pop	{r7}
 2913 0f00 7047     		bx	lr
 2914              		.cfi_endproc
 2915              	.LFE155:
 2917 0f02 00BF     		.align	2
 2918              		.global	ADC_ChannelOffset3Cmd
 2919              		.thumb
 2920              		.thumb_func
 2922              	ADC_ChannelOffset3Cmd:
 2923              	.LFB156:
1691:../src/stm32f30x_adc.c **** 
1692:../src/stm32f30x_adc.c **** /**
1693:../src/stm32f30x_adc.c ****   * @brief  Enables or disables the Offset3.
1694:../src/stm32f30x_adc.c ****   * @param  ADCx: where x can be 1, 2, 3 or 4 to select the ADC peripheral.
1695:../src/stm32f30x_adc.c ****   * @param  NewState: new state of the ADCx offset3.
1696:../src/stm32f30x_adc.c ****   *   This parameter can be: ENABLE or DISABLE.
1697:../src/stm32f30x_adc.c ****   * @retval None
1698:../src/stm32f30x_adc.c ****   */
1699:../src/stm32f30x_adc.c **** void ADC_ChannelOffset3Cmd(ADC_TypeDef* ADCx, FunctionalState NewState)
1700:../src/stm32f30x_adc.c **** {
 2924              		.loc 1 1700 0
 2925              		.cfi_startproc
 2926              		@ args = 0, pretend = 0, frame = 8
 2927              		@ frame_needed = 1, uses_anonymous_args = 0
 2928              		@ link register save eliminated.
 2929 0f04 80B4     		push	{r7}
 2930              	.LCFI135:
 2931              		.cfi_def_cfa_offset 4
 2932              		.cfi_offset 7, -4
 2933 0f06 83B0     		sub	sp, sp, #12
 2934              	.LCFI136:
 2935              		.cfi_def_cfa_offset 16
 2936 0f08 00AF     		add	r7, sp, #0
 2937              	.LCFI137:
 2938              		.cfi_def_cfa_register 7
 2939 0f0a 7860     		str	r0, [r7, #4]
 2940 0f0c 0B46     		mov	r3, r1
 2941 0f0e FB70     		strb	r3, [r7, #3]
1701:../src/stm32f30x_adc.c ****   /* Check the parameters */
1702:../src/stm32f30x_adc.c ****   assert_param(IS_ADC_ALL_PERIPH(ADCx));
1703:../src/stm32f30x_adc.c ****   assert_param(IS_FUNCTIONAL_STATE(NewState));
1704:../src/stm32f30x_adc.c **** 
1705:../src/stm32f30x_adc.c ****   if (NewState != DISABLE)
 2942              		.loc 1 1705 0
 2943 0f10 FB78     		ldrb	r3, [r7, #3]	@ zero_extendqisi2
 2944 0f12 002B     		cmp	r3, #0
 2945 0f14 06D0     		beq	.L112
1706:../src/stm32f30x_adc.c ****   {
1707:../src/stm32f30x_adc.c ****     /* Set the OFFSET1_EN bit */
1708:../src/stm32f30x_adc.c ****     ADCx->OFR3 |= ADC_OFR3_OFFSET3_EN;
 2946              		.loc 1 1708 0
 2947 0f16 7B68     		ldr	r3, [r7, #4]
 2948 0f18 9B6E     		ldr	r3, [r3, #104]
 2949 0f1a 43F00042 		orr	r2, r3, #-2147483648
 2950 0f1e 7B68     		ldr	r3, [r7, #4]
 2951 0f20 9A66     		str	r2, [r3, #104]
 2952 0f22 05E0     		b	.L111
 2953              	.L112:
1709:../src/stm32f30x_adc.c ****   }
1710:../src/stm32f30x_adc.c ****   else
1711:../src/stm32f30x_adc.c ****   {
1712:../src/stm32f30x_adc.c ****     /* Reset the OFFSET1_EN bit */
1713:../src/stm32f30x_adc.c ****     ADCx->OFR3 &= ~(ADC_OFR3_OFFSET3_EN);
 2954              		.loc 1 1713 0
 2955 0f24 7B68     		ldr	r3, [r7, #4]
 2956 0f26 9B6E     		ldr	r3, [r3, #104]
 2957 0f28 23F00042 		bic	r2, r3, #-2147483648
 2958 0f2c 7B68     		ldr	r3, [r7, #4]
 2959 0f2e 9A66     		str	r2, [r3, #104]
 2960              	.L111:
1714:../src/stm32f30x_adc.c ****   }
1715:../src/stm32f30x_adc.c **** }
 2961              		.loc 1 1715 0
 2962 0f30 07F10C07 		add	r7, r7, #12
 2963 0f34 BD46     		mov	sp, r7
 2964 0f36 80BC     		pop	{r7}
 2965 0f38 7047     		bx	lr
 2966              		.cfi_endproc
 2967              	.LFE156:
 2969 0f3a 00BF     		.align	2
 2970              		.global	ADC_ChannelOffset4Cmd
 2971              		.thumb
 2972              		.thumb_func
 2974              	ADC_ChannelOffset4Cmd:
 2975              	.LFB157:
1716:../src/stm32f30x_adc.c **** 
1717:../src/stm32f30x_adc.c **** /**
1718:../src/stm32f30x_adc.c ****   * @brief  Enables or disables the Offset4.
1719:../src/stm32f30x_adc.c ****   * @param  ADCx: where x can be 1, 2, 3 or 4 to select the ADC peripheral.
1720:../src/stm32f30x_adc.c ****   * @param  NewState: new state of the ADCx offset4.
1721:../src/stm32f30x_adc.c ****   *   This parameter can be: ENABLE or DISABLE.
1722:../src/stm32f30x_adc.c ****   * @retval None
1723:../src/stm32f30x_adc.c ****   */
1724:../src/stm32f30x_adc.c **** void ADC_ChannelOffset4Cmd(ADC_TypeDef* ADCx, FunctionalState NewState)
1725:../src/stm32f30x_adc.c **** {
 2976              		.loc 1 1725 0
 2977              		.cfi_startproc
 2978              		@ args = 0, pretend = 0, frame = 8
 2979              		@ frame_needed = 1, uses_anonymous_args = 0
 2980              		@ link register save eliminated.
 2981 0f3c 80B4     		push	{r7}
 2982              	.LCFI138:
 2983              		.cfi_def_cfa_offset 4
 2984              		.cfi_offset 7, -4
 2985 0f3e 83B0     		sub	sp, sp, #12
 2986              	.LCFI139:
 2987              		.cfi_def_cfa_offset 16
 2988 0f40 00AF     		add	r7, sp, #0
 2989              	.LCFI140:
 2990              		.cfi_def_cfa_register 7
 2991 0f42 7860     		str	r0, [r7, #4]
 2992 0f44 0B46     		mov	r3, r1
 2993 0f46 FB70     		strb	r3, [r7, #3]
1726:../src/stm32f30x_adc.c ****   /* Check the parameters */
1727:../src/stm32f30x_adc.c ****   assert_param(IS_ADC_ALL_PERIPH(ADCx));
1728:../src/stm32f30x_adc.c ****   assert_param(IS_FUNCTIONAL_STATE(NewState));
1729:../src/stm32f30x_adc.c **** 
1730:../src/stm32f30x_adc.c ****   if (NewState != DISABLE)
 2994              		.loc 1 1730 0
 2995 0f48 FB78     		ldrb	r3, [r7, #3]	@ zero_extendqisi2
 2996 0f4a 002B     		cmp	r3, #0
 2997 0f4c 06D0     		beq	.L115
1731:../src/stm32f30x_adc.c ****   {
1732:../src/stm32f30x_adc.c ****     /* Set the OFFSET1_EN bit */
1733:../src/stm32f30x_adc.c ****     ADCx->OFR4 |= ADC_OFR4_OFFSET4_EN;
 2998              		.loc 1 1733 0
 2999 0f4e 7B68     		ldr	r3, [r7, #4]
 3000 0f50 DB6E     		ldr	r3, [r3, #108]
 3001 0f52 43F00042 		orr	r2, r3, #-2147483648
 3002 0f56 7B68     		ldr	r3, [r7, #4]
 3003 0f58 DA66     		str	r2, [r3, #108]
 3004 0f5a 05E0     		b	.L114
 3005              	.L115:
1734:../src/stm32f30x_adc.c ****   }
1735:../src/stm32f30x_adc.c ****   else
1736:../src/stm32f30x_adc.c ****   {
1737:../src/stm32f30x_adc.c ****     /* Reset the OFFSET1_EN bit */
1738:../src/stm32f30x_adc.c ****     ADCx->OFR4 &= ~(ADC_OFR4_OFFSET4_EN);
 3006              		.loc 1 1738 0
 3007 0f5c 7B68     		ldr	r3, [r7, #4]
 3008 0f5e DB6E     		ldr	r3, [r3, #108]
 3009 0f60 23F00042 		bic	r2, r3, #-2147483648
 3010 0f64 7B68     		ldr	r3, [r7, #4]
 3011 0f66 DA66     		str	r2, [r3, #108]
 3012              	.L114:
1739:../src/stm32f30x_adc.c ****   }
1740:../src/stm32f30x_adc.c **** }
 3013              		.loc 1 1740 0
 3014 0f68 07F10C07 		add	r7, r7, #12
 3015 0f6c BD46     		mov	sp, r7
 3016 0f6e 80BC     		pop	{r7}
 3017 0f70 7047     		bx	lr
 3018              		.cfi_endproc
 3019              	.LFE157:
 3021 0f72 00BF     		.align	2
 3022              		.global	ADC_DMACmd
 3023              		.thumb
 3024              		.thumb_func
 3026              	ADC_DMACmd:
 3027              	.LFB158:
1741:../src/stm32f30x_adc.c **** 
1742:../src/stm32f30x_adc.c **** /**
1743:../src/stm32f30x_adc.c ****   * @}
1744:../src/stm32f30x_adc.c ****   */
1745:../src/stm32f30x_adc.c **** 
1746:../src/stm32f30x_adc.c **** /** @defgroup ADC_Group5 Regular Channels DMA Configuration functions
1747:../src/stm32f30x_adc.c ****  *  @brief   Regular Channels DMA Configuration functions 
1748:../src/stm32f30x_adc.c ****  *
1749:../src/stm32f30x_adc.c **** @verbatim   
1750:../src/stm32f30x_adc.c ****  ===============================================================================
1751:../src/stm32f30x_adc.c ****                    ##### Regular Channels DMA Configuration functions #####
1752:../src/stm32f30x_adc.c ****  ===============================================================================  
1753:../src/stm32f30x_adc.c **** 
1754:../src/stm32f30x_adc.c ****   [..] This section provides functions allowing to configure the DMA for ADC regular 
1755:../src/stm32f30x_adc.c ****   channels. Since converted regular channel values are stored into a unique data register, 
1756:../src/stm32f30x_adc.c ****   it is useful to use DMA for conversion of more than one regular channel. This 
1757:../src/stm32f30x_adc.c ****   avoids the loss of the data already stored in the ADC Data register. 
1758:../src/stm32f30x_adc.c ****   
1759:../src/stm32f30x_adc.c ****   (#) ADC_DMACmd() function is used to enable the ADC DMA mode, after each
1760:../src/stm32f30x_adc.c ****       conversion of a regular channel, a DMA request is generated.
1761:../src/stm32f30x_adc.c ****   (#) ADC_DMAConfig() function is used to select between the oneshot DMA mode 
1762:../src/stm32f30x_adc.c ****       or the circular DMA mode
1763:../src/stm32f30x_adc.c **** 
1764:../src/stm32f30x_adc.c **** @endverbatim
1765:../src/stm32f30x_adc.c ****   * @{
1766:../src/stm32f30x_adc.c ****   */
1767:../src/stm32f30x_adc.c **** 
1768:../src/stm32f30x_adc.c **** /**
1769:../src/stm32f30x_adc.c ****   * @brief  Enables or disables the specified ADC DMA request.
1770:../src/stm32f30x_adc.c ****   * @param  ADCx: where x can be 1, 2, 3 or 4 to select the ADC peripheral.
1771:../src/stm32f30x_adc.c ****   * @param  NewState: new state of the selected ADC DMA transfer.
1772:../src/stm32f30x_adc.c ****   *   This parameter can be: ENABLE or DISABLE.
1773:../src/stm32f30x_adc.c ****   * @retval None
1774:../src/stm32f30x_adc.c ****   */
1775:../src/stm32f30x_adc.c **** void ADC_DMACmd(ADC_TypeDef* ADCx, FunctionalState NewState)
1776:../src/stm32f30x_adc.c **** {
 3028              		.loc 1 1776 0
 3029              		.cfi_startproc
 3030              		@ args = 0, pretend = 0, frame = 8
 3031              		@ frame_needed = 1, uses_anonymous_args = 0
 3032              		@ link register save eliminated.
 3033 0f74 80B4     		push	{r7}
 3034              	.LCFI141:
 3035              		.cfi_def_cfa_offset 4
 3036              		.cfi_offset 7, -4
 3037 0f76 83B0     		sub	sp, sp, #12
 3038              	.LCFI142:
 3039              		.cfi_def_cfa_offset 16
 3040 0f78 00AF     		add	r7, sp, #0
 3041              	.LCFI143:
 3042              		.cfi_def_cfa_register 7
 3043 0f7a 7860     		str	r0, [r7, #4]
 3044 0f7c 0B46     		mov	r3, r1
 3045 0f7e FB70     		strb	r3, [r7, #3]
1777:../src/stm32f30x_adc.c ****   /* Check the parameters */
1778:../src/stm32f30x_adc.c ****   assert_param(IS_ADC_DMA_PERIPH(ADCx));
1779:../src/stm32f30x_adc.c ****   assert_param(IS_FUNCTIONAL_STATE(NewState));
1780:../src/stm32f30x_adc.c ****   if (NewState != DISABLE)
 3046              		.loc 1 1780 0
 3047 0f80 FB78     		ldrb	r3, [r7, #3]	@ zero_extendqisi2
 3048 0f82 002B     		cmp	r3, #0
 3049 0f84 06D0     		beq	.L118
1781:../src/stm32f30x_adc.c ****   {
1782:../src/stm32f30x_adc.c ****     /* Enable the selected ADC DMA request */
1783:../src/stm32f30x_adc.c ****     ADCx->CFGR |= ADC_CFGR_DMAEN;
 3050              		.loc 1 1783 0
 3051 0f86 7B68     		ldr	r3, [r7, #4]
 3052 0f88 DB68     		ldr	r3, [r3, #12]
 3053 0f8a 43F00102 		orr	r2, r3, #1
 3054 0f8e 7B68     		ldr	r3, [r7, #4]
 3055 0f90 DA60     		str	r2, [r3, #12]
 3056 0f92 05E0     		b	.L117
 3057              	.L118:
1784:../src/stm32f30x_adc.c ****   }
1785:../src/stm32f30x_adc.c ****   else
1786:../src/stm32f30x_adc.c ****   {
1787:../src/stm32f30x_adc.c ****     /* Disable the selected ADC DMA request */
1788:../src/stm32f30x_adc.c ****     ADCx->CFGR &= ~(uint32_t)ADC_CFGR_DMAEN;
 3058              		.loc 1 1788 0
 3059 0f94 7B68     		ldr	r3, [r7, #4]
 3060 0f96 DB68     		ldr	r3, [r3, #12]
 3061 0f98 23F00102 		bic	r2, r3, #1
 3062 0f9c 7B68     		ldr	r3, [r7, #4]
 3063 0f9e DA60     		str	r2, [r3, #12]
 3064              	.L117:
1789:../src/stm32f30x_adc.c ****   }
1790:../src/stm32f30x_adc.c **** }
 3065              		.loc 1 1790 0
 3066 0fa0 07F10C07 		add	r7, r7, #12
 3067 0fa4 BD46     		mov	sp, r7
 3068 0fa6 80BC     		pop	{r7}
 3069 0fa8 7047     		bx	lr
 3070              		.cfi_endproc
 3071              	.LFE158:
 3073 0faa 00BF     		.align	2
 3074              		.global	ADC_DMAConfig
 3075              		.thumb
 3076              		.thumb_func
 3078              	ADC_DMAConfig:
 3079              	.LFB159:
1791:../src/stm32f30x_adc.c **** 
1792:../src/stm32f30x_adc.c **** /**
1793:../src/stm32f30x_adc.c ****   * @brief  Enables or disables the specified ADC DMA request.
1794:../src/stm32f30x_adc.c ****   * @param  ADCx: where x can be 1, 2, 3 or 4 to select the ADC peripheral.
1795:../src/stm32f30x_adc.c ****   * @param  NewState: new state of the selected ADC DMA transfer.
1796:../src/stm32f30x_adc.c ****   *   This parameter can be: ENABLE or DISABLE.
1797:../src/stm32f30x_adc.c ****   * @retval None
1798:../src/stm32f30x_adc.c ****   */
1799:../src/stm32f30x_adc.c **** void ADC_DMAConfig(ADC_TypeDef* ADCx, uint32_t ADC_DMAMode)
1800:../src/stm32f30x_adc.c **** {
 3080              		.loc 1 1800 0
 3081              		.cfi_startproc
 3082              		@ args = 0, pretend = 0, frame = 8
 3083              		@ frame_needed = 1, uses_anonymous_args = 0
 3084              		@ link register save eliminated.
 3085 0fac 80B4     		push	{r7}
 3086              	.LCFI144:
 3087              		.cfi_def_cfa_offset 4
 3088              		.cfi_offset 7, -4
 3089 0fae 83B0     		sub	sp, sp, #12
 3090              	.LCFI145:
 3091              		.cfi_def_cfa_offset 16
 3092 0fb0 00AF     		add	r7, sp, #0
 3093              	.LCFI146:
 3094              		.cfi_def_cfa_register 7
 3095 0fb2 7860     		str	r0, [r7, #4]
 3096 0fb4 3960     		str	r1, [r7, #0]
1801:../src/stm32f30x_adc.c ****   /* Check the parameters */
1802:../src/stm32f30x_adc.c ****   assert_param(IS_ADC_DMA_PERIPH(ADCx));
1803:../src/stm32f30x_adc.c ****   assert_param(IS_ADC_DMA_MODE(ADC_DMAMode));
1804:../src/stm32f30x_adc.c **** 
1805:../src/stm32f30x_adc.c ****   /* Set or reset the DMACFG bit */
1806:../src/stm32f30x_adc.c ****    ADCx->CFGR &= ~(uint32_t)ADC_CFGR_DMACFG;
 3097              		.loc 1 1806 0
 3098 0fb6 7B68     		ldr	r3, [r7, #4]
 3099 0fb8 DB68     		ldr	r3, [r3, #12]
 3100 0fba 23F00202 		bic	r2, r3, #2
 3101 0fbe 7B68     		ldr	r3, [r7, #4]
 3102 0fc0 DA60     		str	r2, [r3, #12]
1807:../src/stm32f30x_adc.c ****    ADCx->CFGR |= ADC_DMAMode;
 3103              		.loc 1 1807 0
 3104 0fc2 7B68     		ldr	r3, [r7, #4]
 3105 0fc4 DA68     		ldr	r2, [r3, #12]
 3106 0fc6 3B68     		ldr	r3, [r7, #0]
 3107 0fc8 1A43     		orrs	r2, r2, r3
 3108 0fca 7B68     		ldr	r3, [r7, #4]
 3109 0fcc DA60     		str	r2, [r3, #12]
1808:../src/stm32f30x_adc.c **** }
 3110              		.loc 1 1808 0
 3111 0fce 07F10C07 		add	r7, r7, #12
 3112 0fd2 BD46     		mov	sp, r7
 3113 0fd4 80BC     		pop	{r7}
 3114 0fd6 7047     		bx	lr
 3115              		.cfi_endproc
 3116              	.LFE159:
 3118              		.align	2
 3119              		.global	ADC_InjectedChannelSampleTimeConfig
 3120              		.thumb
 3121              		.thumb_func
 3123              	ADC_InjectedChannelSampleTimeConfig:
 3124              	.LFB160:
1809:../src/stm32f30x_adc.c **** 
1810:../src/stm32f30x_adc.c **** /**
1811:../src/stm32f30x_adc.c ****   * @}
1812:../src/stm32f30x_adc.c ****   */
1813:../src/stm32f30x_adc.c **** 
1814:../src/stm32f30x_adc.c **** /** @defgroup ADC_Group6 Injected channels Configuration functions
1815:../src/stm32f30x_adc.c ****  *  @brief   Injected channels Configuration functions 
1816:../src/stm32f30x_adc.c ****  *
1817:../src/stm32f30x_adc.c **** @verbatim   
1818:../src/stm32f30x_adc.c ****  ===============================================================================
1819:../src/stm32f30x_adc.c ****                      ##### Injected channels Configuration functions #####
1820:../src/stm32f30x_adc.c ****  ===============================================================================  
1821:../src/stm32f30x_adc.c **** 
1822:../src/stm32f30x_adc.c ****   [..] This section provide functions allowing to manage the ADC Injected channels,
1823:../src/stm32f30x_adc.c ****   it is composed of : 
1824:../src/stm32f30x_adc.c ****     
1825:../src/stm32f30x_adc.c ****    (#) Configuration functions for Injected channels sample time
1826:../src/stm32f30x_adc.c ****    (#) Functions to start and stop the injected conversion
1827:../src/stm32f30x_adc.c ****    (#) unction to select the discontinuous mode    
1828:../src/stm32f30x_adc.c ****    (#) Function to get the Specified Injected channel conversion data: This subsection 
1829:../src/stm32f30x_adc.c ****       provides an important function in the ADC peripheral since it returns the 
1830:../src/stm32f30x_adc.c ****       converted data of the specific injected channel.
1831:../src/stm32f30x_adc.c **** 
1832:../src/stm32f30x_adc.c **** @endverbatim
1833:../src/stm32f30x_adc.c ****   * @{
1834:../src/stm32f30x_adc.c ****   */ 
1835:../src/stm32f30x_adc.c **** 
1836:../src/stm32f30x_adc.c **** /**
1837:../src/stm32f30x_adc.c ****   * @brief  Configures for the selected ADC injected channel its corresponding
1838:../src/stm32f30x_adc.c ****   *         sample time.
1839:../src/stm32f30x_adc.c ****   * @param  ADCx: where x can be 1, 2, 3 or 4 to select the ADC peripheral.
1840:../src/stm32f30x_adc.c ****   * @param  ADC_Channel: the ADC channel to configure. 
1841:../src/stm32f30x_adc.c ****   *   This parameter can be one of the following values:
1842:../src/stm32f30x_adc.c ****   *     @arg ADC_InjectedChannel_1: ADC Channel1 selected
1843:../src/stm32f30x_adc.c ****   *     @arg ADC_InjectedChannel_2: ADC Channel2 selected
1844:../src/stm32f30x_adc.c ****   *     @arg ADC_InjectedChannel_3: ADC Channel3 selected
1845:../src/stm32f30x_adc.c ****   *     @arg ADC_InjectedChannel_4: ADC Channel4 selected
1846:../src/stm32f30x_adc.c ****   *     @arg ADC_InjectedChannel_5: ADC Channel5 selected
1847:../src/stm32f30x_adc.c ****   *     @arg ADC_InjectedChannel_6: ADC Channel6 selected
1848:../src/stm32f30x_adc.c ****   *     @arg ADC_InjectedChannel_7: ADC Channel7 selected
1849:../src/stm32f30x_adc.c ****   *     @arg ADC_InjectedChannel_8: ADC Channel8 selected
1850:../src/stm32f30x_adc.c ****   *     @arg ADC_InjectedChannel_9: ADC Channel9 selected
1851:../src/stm32f30x_adc.c ****   *     @arg ADC_InjectedChannel_10: ADC Channel10 selected
1852:../src/stm32f30x_adc.c ****   *     @arg ADC_InjectedChannel_11: ADC Channel11 selected
1853:../src/stm32f30x_adc.c ****   *     @arg ADC_InjectedChannel_12: ADC Channel12 selected
1854:../src/stm32f30x_adc.c ****   *     @arg ADC_InjectedChannel_13: ADC Channel13 selected
1855:../src/stm32f30x_adc.c ****   *     @arg ADC_InjectedChannel_14: ADC Channel14 selected
1856:../src/stm32f30x_adc.c ****   *     @arg ADC_InjectedChannel_15: ADC Channel15 selected
1857:../src/stm32f30x_adc.c ****   *     @arg ADC_InjectedChannel_16: ADC Channel16 selected
1858:../src/stm32f30x_adc.c ****   *     @arg ADC_InjectedChannel_17: ADC Channel17 selected
1859:../src/stm32f30x_adc.c ****   *     @arg ADC_InjectedChannel_18: ADC Channel18 selected
1860:../src/stm32f30x_adc.c ****   * @param  ADC_SampleTime: The sample time value to be set for the selected channel. 
1861:../src/stm32f30x_adc.c ****   *   This parameter can be one of the following values:
1862:../src/stm32f30x_adc.c ****   *     @arg ADC_SampleTime_1Cycles5: Sample time equal to 1.5 cycles
1863:../src/stm32f30x_adc.c ****   *     @arg ADC_SampleTime_2Cycles5: Sample time equal to 2.5 cycles
1864:../src/stm32f30x_adc.c ****   *     @arg ADC_SampleTime_4Cycles5: Sample time equal to 4.5 cycles
1865:../src/stm32f30x_adc.c ****   *     @arg ADC_SampleTime_7Cycles5: Sample time equal to 7.5 cycles	
1866:../src/stm32f30x_adc.c ****   *     @arg ADC_SampleTime_19Cycles5: Sample time equal to 19.5 cycles	
1867:../src/stm32f30x_adc.c ****   *     @arg ADC_SampleTime_61Cycles5: Sample time equal to 61.5 cycles	
1868:../src/stm32f30x_adc.c ****   *     @arg ADC_SampleTime_181Cycles5: Sample time equal to 181.5 cycles	
1869:../src/stm32f30x_adc.c ****   *     @arg ADC_SampleTime_601Cycles5: Sample time equal to 601.5 cycles	
1870:../src/stm32f30x_adc.c ****   * @retval None
1871:../src/stm32f30x_adc.c ****   */
1872:../src/stm32f30x_adc.c **** void ADC_InjectedChannelSampleTimeConfig(ADC_TypeDef* ADCx, uint8_t ADC_InjectedChannel, uint8_t AD
1873:../src/stm32f30x_adc.c **** {
 3125              		.loc 1 1873 0
 3126              		.cfi_startproc
 3127              		@ args = 0, pretend = 0, frame = 16
 3128              		@ frame_needed = 1, uses_anonymous_args = 0
 3129              		@ link register save eliminated.
 3130 0fd8 80B4     		push	{r7}
 3131              	.LCFI147:
 3132              		.cfi_def_cfa_offset 4
 3133              		.cfi_offset 7, -4
 3134 0fda 85B0     		sub	sp, sp, #20
 3135              	.LCFI148:
 3136              		.cfi_def_cfa_offset 24
 3137 0fdc 00AF     		add	r7, sp, #0
 3138              	.LCFI149:
 3139              		.cfi_def_cfa_register 7
 3140 0fde 7860     		str	r0, [r7, #4]
 3141 0fe0 1346     		mov	r3, r2
 3142 0fe2 0A46     		mov	r2, r1
 3143 0fe4 FA70     		strb	r2, [r7, #3]
 3144 0fe6 BB70     		strb	r3, [r7, #2]
1874:../src/stm32f30x_adc.c ****   uint32_t tmpreg1 = 0;
 3145              		.loc 1 1874 0
 3146 0fe8 4FF00003 		mov	r3, #0
 3147 0fec FB60     		str	r3, [r7, #12]
1875:../src/stm32f30x_adc.c ****   /* Check the parameters */
1876:../src/stm32f30x_adc.c ****   assert_param(IS_ADC_ALL_PERIPH(ADCx));
1877:../src/stm32f30x_adc.c ****   assert_param(IS_ADC_INJECTED_CHANNEL(ADC_InjectedChannel));
1878:../src/stm32f30x_adc.c ****   assert_param(IS_ADC_SAMPLE_TIME(ADC_SampleTime));
1879:../src/stm32f30x_adc.c **** 
1880:../src/stm32f30x_adc.c ****   /* Channel sampling configuration */
1881:../src/stm32f30x_adc.c ****   /* if ADC_InjectedChannel_10 ... ADC_InjectedChannel_18 is selected */
1882:../src/stm32f30x_adc.c ****   if (ADC_InjectedChannel > ADC_InjectedChannel_9)
 3148              		.loc 1 1882 0
 3149 0fee FB78     		ldrb	r3, [r7, #3]	@ zero_extendqisi2
 3150 0ff0 092B     		cmp	r3, #9
 3151 0ff2 24D9     		bls	.L122
1883:../src/stm32f30x_adc.c ****   {
1884:../src/stm32f30x_adc.c ****     /* Calculate the mask to clear */
1885:../src/stm32f30x_adc.c ****     tmpreg1 = ADC_SMPR2_SMP10 << (3 * (ADC_InjectedChannel - 10));
 3152              		.loc 1 1885 0
 3153 0ff4 FA78     		ldrb	r2, [r7, #3]	@ zero_extendqisi2
 3154 0ff6 1346     		mov	r3, r2
 3155 0ff8 4FEA4303 		lsl	r3, r3, #1
 3156 0ffc 9B18     		adds	r3, r3, r2
 3157 0ffe A3F11E03 		sub	r3, r3, #30
 3158 1002 4FF00702 		mov	r2, #7
 3159 1006 02FA03F3 		lsl	r3, r2, r3
 3160 100a FB60     		str	r3, [r7, #12]
1886:../src/stm32f30x_adc.c ****     /* Clear the old channel sample time */
1887:../src/stm32f30x_adc.c **** 	ADCx->SMPR2 &= ~tmpreg1;
 3161              		.loc 1 1887 0
 3162 100c 7B68     		ldr	r3, [r7, #4]
 3163 100e 9A69     		ldr	r2, [r3, #24]
 3164 1010 FB68     		ldr	r3, [r7, #12]
 3165 1012 6FEA0303 		mvn	r3, r3
 3166 1016 1A40     		ands	r2, r2, r3
 3167 1018 7B68     		ldr	r3, [r7, #4]
 3168 101a 9A61     		str	r2, [r3, #24]
1888:../src/stm32f30x_adc.c ****     /* Calculate the mask to set */
1889:../src/stm32f30x_adc.c **** 	ADCx->SMPR2 |= (uint32_t)ADC_SampleTime << (3 * (ADC_InjectedChannel - 10));
 3169              		.loc 1 1889 0
 3170 101c 7B68     		ldr	r3, [r7, #4]
 3171 101e 9969     		ldr	r1, [r3, #24]
 3172 1020 B878     		ldrb	r0, [r7, #2]	@ zero_extendqisi2
 3173 1022 FA78     		ldrb	r2, [r7, #3]	@ zero_extendqisi2
 3174 1024 1346     		mov	r3, r2
 3175 1026 4FEA4303 		lsl	r3, r3, #1
 3176 102a 9B18     		adds	r3, r3, r2
 3177 102c A3F11E03 		sub	r3, r3, #30
 3178 1030 00FA03F3 		lsl	r3, r0, r3
 3179 1034 41EA0302 		orr	r2, r1, r3
 3180 1038 7B68     		ldr	r3, [r7, #4]
 3181 103a 9A61     		str	r2, [r3, #24]
 3182 103c 21E0     		b	.L121
 3183              	.L122:
1890:../src/stm32f30x_adc.c **** 
1891:../src/stm32f30x_adc.c ****   }
1892:../src/stm32f30x_adc.c ****   else /* ADC_InjectedChannel include in ADC_InjectedChannel_[0..9] */
1893:../src/stm32f30x_adc.c ****   {
1894:../src/stm32f30x_adc.c ****     /* Calculate the mask to clear */
1895:../src/stm32f30x_adc.c ****     tmpreg1 = ADC_SMPR1_SMP1 << (3 * (ADC_InjectedChannel - 1));
 3184              		.loc 1 1895 0
