   1              		.syntax unified
   2              		.cpu cortex-m4
   3              		.eabi_attribute 27, 3
   4              		.eabi_attribute 28, 1
   5              		.fpu fpv4-sp-d16
   6              		.eabi_attribute 20, 1
   7              		.eabi_attribute 21, 1
   8              		.eabi_attribute 23, 3
   9              		.eabi_attribute 24, 1
  10              		.eabi_attribute 25, 1
  11              		.eabi_attribute 26, 1
  12              		.eabi_attribute 30, 6
  13              		.eabi_attribute 34, 1
  14              		.eabi_attribute 18, 4
  15              		.thumb
  16              		.file	"encoder.c"
  17              		.text
  18              	.Ltext0:
  19              		.cfi_sections	.debug_frame
  20              		.align	2
  21              		.global	TIM8_init_encoder
  22              		.thumb
  23              		.thumb_func
  25              	TIM8_init_encoder:
  26              	.LFB111:
  27              		.file 1 "../src/Robot_SRC/encoder.c"
   1:../src/Robot_SRC/encoder.c **** /*
   2:../src/Robot_SRC/encoder.c ****  * encoder.c
   3:../src/Robot_SRC/encoder.c ****  *
   4:../src/Robot_SRC/encoder.c ****  *  Created on: Feb 19, 2013
   5:../src/Robot_SRC/encoder.c ****  *      Author: root
   6:../src/Robot_SRC/encoder.c ****  */
   7:../src/Robot_SRC/encoder.c **** #include "encoder.h"
   8:../src/Robot_SRC/encoder.c **** 
   9:../src/Robot_SRC/encoder.c **** void TIM8_init_encoder(void)	// PC6, PC7 -> TIM8 CH1 and CH2 mappings:
  10:../src/Robot_SRC/encoder.c **** {
  28              		.loc 1 10 0
  29              		.cfi_startproc
  30              		@ args = 0, pretend = 0, frame = 24
  31              		@ frame_needed = 1, uses_anonymous_args = 0
  32 0000 80B5     		push	{r7, lr}
  33              	.LCFI0:
  34              		.cfi_def_cfa_offset 8
  35              		.cfi_offset 7, -8
  36              		.cfi_offset 14, -4
  37 0002 86B0     		sub	sp, sp, #24
  38              	.LCFI1:
  39              		.cfi_def_cfa_offset 32
  40 0004 00AF     		add	r7, sp, #0
  41              	.LCFI2:
  42              		.cfi_def_cfa_register 7
  11:../src/Robot_SRC/encoder.c **** 	TIM_TimeBaseInitTypeDef TIM_TimeBaseStructure;
  12:../src/Robot_SRC/encoder.c **** 	GPIO_InitTypeDef GPIO_InitStructure;
  13:../src/Robot_SRC/encoder.c **** 	RCC_AHBPeriphClockCmd(RCC_AHBPeriph_GPIOC, ENABLE);
  43              		.loc 1 13 0
  44 0006 4FF40020 		mov	r0, #524288
  45 000a 4FF00101 		mov	r1, #1
  46 000e FFF7FEFF 		bl	RCC_AHBPeriphClockCmd
  14:../src/Robot_SRC/encoder.c **** 	GPIO_InitStructure.GPIO_Pin = GPIO_Pin_6 | GPIO_Pin_7;
  47              		.loc 1 14 0
  48 0012 4FF0C003 		mov	r3, #192
  49 0016 7B60     		str	r3, [r7, #4]
  15:../src/Robot_SRC/encoder.c **** 	GPIO_InitStructure.GPIO_Mode = GPIO_Mode_AF;
  50              		.loc 1 15 0
  51 0018 4FF00203 		mov	r3, #2
  52 001c 3B72     		strb	r3, [r7, #8]
  16:../src/Robot_SRC/encoder.c **** 	GPIO_InitStructure.GPIO_OType = GPIO_OType_PP;
  53              		.loc 1 16 0
  54 001e 4FF00003 		mov	r3, #0
  55 0022 BB72     		strb	r3, [r7, #10]
  17:../src/Robot_SRC/encoder.c **** 	GPIO_InitStructure.GPIO_Speed = GPIO_Speed_50MHz;
  56              		.loc 1 17 0
  57 0024 4FF00303 		mov	r3, #3
  58 0028 7B72     		strb	r3, [r7, #9]
  18:../src/Robot_SRC/encoder.c **** 	GPIO_InitStructure.GPIO_PuPd = GPIO_PuPd_UP;
  59              		.loc 1 18 0
  60 002a 4FF00103 		mov	r3, #1
  61 002e FB72     		strb	r3, [r7, #11]
  19:../src/Robot_SRC/encoder.c **** 	GPIO_Init(GPIOC, &GPIO_InitStructure);
  62              		.loc 1 19 0
  63 0030 07F10403 		add	r3, r7, #4
  64 0034 4FF40060 		mov	r0, #2048
  65 0038 C4F60000 		movt	r0, 18432
  66 003c 1946     		mov	r1, r3
  67 003e FFF7FEFF 		bl	GPIO_Init
  20:../src/Robot_SRC/encoder.c **** 
  21:../src/Robot_SRC/encoder.c **** 	GPIO_PinAFConfig(GPIOC, GPIO_PinSource6, GPIO_AF_4);
  68              		.loc 1 21 0
  69 0042 4FF40060 		mov	r0, #2048
  70 0046 C4F60000 		movt	r0, 18432
  71 004a 4FF00601 		mov	r1, #6
  72 004e 4FF00402 		mov	r2, #4
  73 0052 FFF7FEFF 		bl	GPIO_PinAFConfig
  22:../src/Robot_SRC/encoder.c **** 	GPIO_PinAFConfig(GPIOC, GPIO_PinSource7, GPIO_AF_4);
  74              		.loc 1 22 0
  75 0056 4FF40060 		mov	r0, #2048
  76 005a C4F60000 		movt	r0, 18432
  77 005e 4FF00701 		mov	r1, #7
  78 0062 4FF00402 		mov	r2, #4
  79 0066 FFF7FEFF 		bl	GPIO_PinAFConfig
  23:../src/Robot_SRC/encoder.c **** 
  24:../src/Robot_SRC/encoder.c **** 	RCC_APB2PeriphClockCmd(RCC_APB2Periph_TIM8, ENABLE);
  80              		.loc 1 24 0
  81 006a 4FF40050 		mov	r0, #8192
  82 006e 4FF00101 		mov	r1, #1
  83 0072 FFF7FEFF 		bl	RCC_APB2PeriphClockCmd
  25:../src/Robot_SRC/encoder.c **** 	TIM_TimeBaseStructure.TIM_Period = 0xFFFF;
  84              		.loc 1 25 0
  85 0076 4FF6FF73 		movw	r3, #65535
  86 007a 3B61     		str	r3, [r7, #16]
  26:../src/Robot_SRC/encoder.c **** 	TIM_TimeBaseStructure.TIM_Prescaler = 0;
  87              		.loc 1 26 0
  88 007c 4FF00003 		mov	r3, #0
  89 0080 BB81     		strh	r3, [r7, #12]	@ movhi
  27:../src/Robot_SRC/encoder.c **** 	TIM_TimeBaseStructure.TIM_ClockDivision = 0;
  90              		.loc 1 27 0
  91 0082 4FF00003 		mov	r3, #0
  92 0086 BB82     		strh	r3, [r7, #20]	@ movhi
  28:../src/Robot_SRC/encoder.c **** 	TIM_TimeBaseStructure.TIM_CounterMode = TIM_CounterMode_Up;
  93              		.loc 1 28 0
  94 0088 4FF00003 		mov	r3, #0
  95 008c FB81     		strh	r3, [r7, #14]	@ movhi
  29:../src/Robot_SRC/encoder.c **** 	TIM_EncoderInterfaceConfig(TIM8,TIM_EncoderMode_TI12,TIM_ICPolarity_Falling,
  96              		.loc 1 29 0
  97 008e 4FF45050 		mov	r0, #13312
  98 0092 C4F20100 		movt	r0, 16385
  99 0096 4FF00301 		mov	r1, #3
 100 009a 4FF00202 		mov	r2, #2
 101 009e 4FF00203 		mov	r3, #2
 102 00a2 FFF7FEFF 		bl	TIM_EncoderInterfaceConfig
  30:../src/Robot_SRC/encoder.c **** 	TIM_ICPolarity_Falling);
  31:../src/Robot_SRC/encoder.c **** 	TIM_TimeBaseInit(TIM8, &TIM_TimeBaseStructure);
 103              		.loc 1 31 0
 104 00a6 07F10C03 		add	r3, r7, #12
 105 00aa 4FF45050 		mov	r0, #13312
 106 00ae C4F20100 		movt	r0, 16385
 107 00b2 1946     		mov	r1, r3
 108 00b4 FFF7FEFF 		bl	TIM_TimeBaseInit
  32:../src/Robot_SRC/encoder.c **** 	TIM_Cmd(TIM8, ENABLE);
 109              		.loc 1 32 0
 110 00b8 4FF45050 		mov	r0, #13312
 111 00bc C4F20100 		movt	r0, 16385
 112 00c0 4FF00101 		mov	r1, #1
 113 00c4 FFF7FEFF 		bl	TIM_Cmd
  33:../src/Robot_SRC/encoder.c **** 
  34:../src/Robot_SRC/encoder.c **** 	TIM_SetCounter(TIM8, 0);
 114              		.loc 1 34 0
 115 00c8 4FF45050 		mov	r0, #13312
 116 00cc C4F20100 		movt	r0, 16385
 117 00d0 4FF00001 		mov	r1, #0
 118 00d4 FFF7FEFF 		bl	TIM_SetCounter
  35:../src/Robot_SRC/encoder.c **** }
 119              		.loc 1 35 0
 120 00d8 07F11807 		add	r7, r7, #24
 121 00dc BD46     		mov	sp, r7
 122 00de 80BD     		pop	{r7, pc}
 123              		.cfi_endproc
 124              	.LFE111:
 126              		.align	2
 127              		.global	TIM2_init_encoder
 128              		.thumb
 129              		.thumb_func
 131              	TIM2_init_encoder:
 132              	.LFB112:
  36:../src/Robot_SRC/encoder.c **** 
  37:../src/Robot_SRC/encoder.c **** void TIM2_init_encoder(void) // PA0, PA1 -> TIM2 CH1 and CH2 mappings:
  38:../src/Robot_SRC/encoder.c **** {
 133              		.loc 1 38 0
 134              		.cfi_startproc
 135              		@ args = 0, pretend = 0, frame = 24
 136              		@ frame_needed = 1, uses_anonymous_args = 0
 137 00e0 80B5     		push	{r7, lr}
 138              	.LCFI3:
 139              		.cfi_def_cfa_offset 8
 140              		.cfi_offset 7, -8
 141              		.cfi_offset 14, -4
 142 00e2 86B0     		sub	sp, sp, #24
 143              	.LCFI4:
 144              		.cfi_def_cfa_offset 32
 145 00e4 00AF     		add	r7, sp, #0
 146              	.LCFI5:
 147              		.cfi_def_cfa_register 7
  39:../src/Robot_SRC/encoder.c **** 	TIM_TimeBaseInitTypeDef TIM_TimeBaseStructure;
  40:../src/Robot_SRC/encoder.c **** 	GPIO_InitTypeDef GPIO_InitStructure;
  41:../src/Robot_SRC/encoder.c **** 
  42:../src/Robot_SRC/encoder.c **** 	RCC_AHBPeriphClockCmd(RCC_AHBPeriph_GPIOA, ENABLE);
 148              		.loc 1 42 0
 149 00e6 4FF40030 		mov	r0, #131072
 150 00ea 4FF00101 		mov	r1, #1
 151 00ee FFF7FEFF 		bl	RCC_AHBPeriphClockCmd
  43:../src/Robot_SRC/encoder.c **** 	GPIO_InitStructure.GPIO_Pin = GPIO_Pin_0 | GPIO_Pin_1;
 152              		.loc 1 43 0
 153 00f2 4FF00303 		mov	r3, #3
 154 00f6 7B60     		str	r3, [r7, #4]
  44:../src/Robot_SRC/encoder.c **** 	GPIO_InitStructure.GPIO_Mode = GPIO_Mode_AF;
 155              		.loc 1 44 0
 156 00f8 4FF00203 		mov	r3, #2
 157 00fc 3B72     		strb	r3, [r7, #8]
  45:../src/Robot_SRC/encoder.c **** 	GPIO_InitStructure.GPIO_OType = GPIO_OType_PP;
 158              		.loc 1 45 0
 159 00fe 4FF00003 		mov	r3, #0
 160 0102 BB72     		strb	r3, [r7, #10]
  46:../src/Robot_SRC/encoder.c **** 	GPIO_InitStructure.GPIO_Speed = GPIO_Speed_50MHz;
 161              		.loc 1 46 0
 162 0104 4FF00303 		mov	r3, #3
 163 0108 7B72     		strb	r3, [r7, #9]
  47:../src/Robot_SRC/encoder.c **** 	GPIO_InitStructure.GPIO_PuPd = GPIO_PuPd_UP;
 164              		.loc 1 47 0
 165 010a 4FF00103 		mov	r3, #1
 166 010e FB72     		strb	r3, [r7, #11]
  48:../src/Robot_SRC/encoder.c **** 	GPIO_Init(GPIOA, &GPIO_InitStructure);
 167              		.loc 1 48 0
 168 0110 07F10403 		add	r3, r7, #4
 169 0114 4FF09040 		mov	r0, #1207959552
 170 0118 1946     		mov	r1, r3
 171 011a FFF7FEFF 		bl	GPIO_Init
  49:../src/Robot_SRC/encoder.c **** 
  50:../src/Robot_SRC/encoder.c **** 	GPIO_PinAFConfig(GPIOA, GPIO_PinSource0, GPIO_AF_1);
 172              		.loc 1 50 0
 173 011e 4FF09040 		mov	r0, #1207959552
 174 0122 4FF00001 		mov	r1, #0
 175 0126 4FF00102 		mov	r2, #1
 176 012a FFF7FEFF 		bl	GPIO_PinAFConfig
  51:../src/Robot_SRC/encoder.c **** 	GPIO_PinAFConfig(GPIOA, GPIO_PinSource1, GPIO_AF_1);
 177              		.loc 1 51 0
 178 012e 4FF09040 		mov	r0, #1207959552
 179 0132 4FF00101 		mov	r1, #1
 180 0136 4FF00102 		mov	r2, #1
 181 013a FFF7FEFF 		bl	GPIO_PinAFConfig
  52:../src/Robot_SRC/encoder.c **** 
  53:../src/Robot_SRC/encoder.c **** 	RCC_APB1PeriphClockCmd(RCC_APB1Periph_TIM2, ENABLE);
 182              		.loc 1 53 0
 183 013e 4FF00100 		mov	r0, #1
 184 0142 4FF00101 		mov	r1, #1
 185 0146 FFF7FEFF 		bl	RCC_APB1PeriphClockCmd
  54:../src/Robot_SRC/encoder.c **** 	TIM_TimeBaseStructure.TIM_Period = 0xFFFFFFFF;
 186              		.loc 1 54 0
 187 014a 4FF0FF33 		mov	r3, #-1
 188 014e 3B61     		str	r3, [r7, #16]
  55:../src/Robot_SRC/encoder.c **** 	TIM_TimeBaseStructure.TIM_Prescaler = 0;
 189              		.loc 1 55 0
 190 0150 4FF00003 		mov	r3, #0
 191 0154 BB81     		strh	r3, [r7, #12]	@ movhi
  56:../src/Robot_SRC/encoder.c **** 	TIM_TimeBaseStructure.TIM_ClockDivision = 0;
 192              		.loc 1 56 0
 193 0156 4FF00003 		mov	r3, #0
 194 015a BB82     		strh	r3, [r7, #20]	@ movhi
  57:../src/Robot_SRC/encoder.c **** 	TIM_TimeBaseStructure.TIM_CounterMode = TIM_CounterMode_Up;
 195              		.loc 1 57 0
 196 015c 4FF00003 		mov	r3, #0
 197 0160 FB81     		strh	r3, [r7, #14]	@ movhi
  58:../src/Robot_SRC/encoder.c **** 	TIM_EncoderInterfaceConfig(TIM2,TIM_EncoderMode_TI12,TIM_ICPolarity_Falling,
 198              		.loc 1 58 0
 199 0162 4FF08040 		mov	r0, #1073741824
 200 0166 4FF00301 		mov	r1, #3
 201 016a 4FF00202 		mov	r2, #2
 202 016e 4FF00203 		mov	r3, #2
 203 0172 FFF7FEFF 		bl	TIM_EncoderInterfaceConfig
  59:../src/Robot_SRC/encoder.c **** 	TIM_ICPolarity_Falling);
  60:../src/Robot_SRC/encoder.c **** 	TIM_TimeBaseInit(TIM2, &TIM_TimeBaseStructure);
 204              		.loc 1 60 0
 205 0176 07F10C03 		add	r3, r7, #12
 206 017a 4FF08040 		mov	r0, #1073741824
 207 017e 1946     		mov	r1, r3
 208 0180 FFF7FEFF 		bl	TIM_TimeBaseInit
  61:../src/Robot_SRC/encoder.c **** 	TIM_Cmd(TIM2, ENABLE);
 209              		.loc 1 61 0
 210 0184 4FF08040 		mov	r0, #1073741824
 211 0188 4FF00101 		mov	r1, #1
 212 018c FFF7FEFF 		bl	TIM_Cmd
  62:../src/Robot_SRC/encoder.c **** 
  63:../src/Robot_SRC/encoder.c **** 	TIM_SetCounter(TIM2, 0);
 213              		.loc 1 63 0
 214 0190 4FF08040 		mov	r0, #1073741824
 215 0194 4FF00001 		mov	r1, #0
 216 0198 FFF7FEFF 		bl	TIM_SetCounter
  64:../src/Robot_SRC/encoder.c **** }
 217              		.loc 1 64 0
 218 019c 07F11807 		add	r7, r7, #24
 219 01a0 BD46     		mov	sp, r7
 220 01a2 80BD     		pop	{r7, pc}
 221              		.cfi_endproc
 222              	.LFE112:
 224              		.align	2
 225              		.global	encoder_update_ISR_init
 226              		.thumb
 227              		.thumb_func
 229              	encoder_update_ISR_init:
 230              	.LFB113:
  65:../src/Robot_SRC/encoder.c **** 
  66:../src/Robot_SRC/encoder.c **** // Initializes the ISR that updates the raw state (position, velocity, acceleration) of each encode
  67:../src/Robot_SRC/encoder.c **** // Interrupt Priority: NEXT-HIGHEST (1)
  68:../src/Robot_SRC/encoder.c **** 
  69:../src/Robot_SRC/encoder.c **** void encoder_update_ISR_init(void)
  70:../src/Robot_SRC/encoder.c **** {
 231              		.loc 1 70 0
 232              		.cfi_startproc
 233              		@ args = 0, pretend = 0, frame = 16
 234              		@ frame_needed = 1, uses_anonymous_args = 0
 235 01a4 80B5     		push	{r7, lr}
 236              	.LCFI6:
 237              		.cfi_def_cfa_offset 8
 238              		.cfi_offset 7, -8
 239              		.cfi_offset 14, -4
 240 01a6 84B0     		sub	sp, sp, #16
 241              	.LCFI7:
 242              		.cfi_def_cfa_offset 24
 243 01a8 00AF     		add	r7, sp, #0
 244              	.LCFI8:
 245              		.cfi_def_cfa_register 7
  71:../src/Robot_SRC/encoder.c **** 	NVIC_InitTypeDef nv;
  72:../src/Robot_SRC/encoder.c **** 	TIM_TimeBaseInitTypeDef TIM7_init;
  73:../src/Robot_SRC/encoder.c **** 
  74:../src/Robot_SRC/encoder.c **** 	nv.NVIC_IRQChannel = TIM7_IRQn;
 246              		.loc 1 74 0
 247 01aa 4FF03703 		mov	r3, #55
 248 01ae 3B73     		strb	r3, [r7, #12]
  75:../src/Robot_SRC/encoder.c **** 	nv.NVIC_IRQChannelPreemptionPriority = 1;
 249              		.loc 1 75 0
 250 01b0 4FF00103 		mov	r3, #1
 251 01b4 7B73     		strb	r3, [r7, #13]
  76:../src/Robot_SRC/encoder.c **** 	nv.NVIC_IRQChannelSubPriority = 0;
 252              		.loc 1 76 0
 253 01b6 4FF00003 		mov	r3, #0
 254 01ba BB73     		strb	r3, [r7, #14]
  77:../src/Robot_SRC/encoder.c **** 	nv.NVIC_IRQChannelCmd = ENABLE;
 255              		.loc 1 77 0
 256 01bc 4FF00103 		mov	r3, #1
 257 01c0 FB73     		strb	r3, [r7, #15]
  78:../src/Robot_SRC/encoder.c **** 
  79:../src/Robot_SRC/encoder.c **** 	NVIC_Init(&nv);
 258              		.loc 1 79 0
 259 01c2 07F10C03 		add	r3, r7, #12
 260 01c6 1846     		mov	r0, r3
 261 01c8 FFF7FEFF 		bl	NVIC_Init
  80:../src/Robot_SRC/encoder.c **** 
  81:../src/Robot_SRC/encoder.c **** 	RCC_APB1PeriphClockCmd(RCC_APB1Periph_TIM7, ENABLE); //TIM2 on APB1
 262              		.loc 1 81 0
 263 01cc 4FF02000 		mov	r0, #32
 264 01d0 4FF00101 		mov	r1, #1
 265 01d4 FFF7FEFF 		bl	RCC_APB1PeriphClockCmd
  82:../src/Robot_SRC/encoder.c **** 
  83:../src/Robot_SRC/encoder.c **** 	/*
  84:../src/Robot_SRC/encoder.c **** 	 * UPDATE_FREQUENCY = TIM_CLK/[(PRESCALER+1)(ARR+1)(REPCOUNTER+1)]
  85:../src/Robot_SRC/encoder.c **** 	 * 	  Prescaler -> PRESCALER
  86:../src/Robot_SRC/encoder.c **** 	 * 	  Period -> ARR
  87:../src/Robot_SRC/encoder.c **** 	 * 	  RepetitionCounter -> REPCOUNTER
  88:../src/Robot_SRC/encoder.c **** 	 */
  89:../src/Robot_SRC/encoder.c **** 
  90:../src/Robot_SRC/encoder.c **** 	TIM7_init.TIM_Period = (10*DT_ENCODER)-1;
 266              		.loc 1 90 0
 267 01d8 40F2DB53 		movw	r3, #1499
 268 01dc 7B60     		str	r3, [r7, #4]
  91:../src/Robot_SRC/encoder.c **** 	TIM7_init.TIM_Prescaler = 7199;
 269              		.loc 1 91 0
 270 01de 41F61F43 		movw	r3, #7199
 271 01e2 3B80     		strh	r3, [r7, #0]	@ movhi
  92:../src/Robot_SRC/encoder.c **** 	TIM7_init.TIM_RepetitionCounter = 0;
 272              		.loc 1 92 0
 273 01e4 4FF00003 		mov	r3, #0
 274 01e8 BB72     		strb	r3, [r7, #10]
  93:../src/Robot_SRC/encoder.c **** 	TIM7_init.TIM_ClockDivision = 0;
 275              		.loc 1 93 0
 276 01ea 4FF00003 		mov	r3, #0
 277 01ee 3B81     		strh	r3, [r7, #8]	@ movhi
  94:../src/Robot_SRC/encoder.c **** 	TIM7_init.TIM_CounterMode = TIM_CounterMode_Up;
 278              		.loc 1 94 0
 279 01f0 4FF00003 		mov	r3, #0
 280 01f4 7B80     		strh	r3, [r7, #2]	@ movhi
  95:../src/Robot_SRC/encoder.c **** 
  96:../src/Robot_SRC/encoder.c **** 	TIM_TimeBaseInit(TIM7, &TIM7_init);
 281              		.loc 1 96 0
 282 01f6 3B46     		mov	r3, r7
 283 01f8 4FF4A050 		mov	r0, #5120
 284 01fc C4F20000 		movt	r0, 16384
 285 0200 1946     		mov	r1, r3
 286 0202 FFF7FEFF 		bl	TIM_TimeBaseInit
  97:../src/Robot_SRC/encoder.c **** 
  98:../src/Robot_SRC/encoder.c **** 	TIM_ITConfig(TIM7, TIM_IT_Update, ENABLE);
 287              		.loc 1 98 0
 288 0206 4FF4A050 		mov	r0, #5120
 289 020a C4F20000 		movt	r0, 16384
 290 020e 4FF00101 		mov	r1, #1
 291 0212 4FF00102 		mov	r2, #1
 292 0216 FFF7FEFF 		bl	TIM_ITConfig
  99:../src/Robot_SRC/encoder.c **** 	TIM_Cmd(TIM7, ENABLE);
 293              		.loc 1 99 0
 294 021a 4FF4A050 		mov	r0, #5120
 295 021e C4F20000 		movt	r0, 16384
 296 0222 4FF00101 		mov	r1, #1
 297 0226 FFF7FEFF 		bl	TIM_Cmd
 100:../src/Robot_SRC/encoder.c **** 
 101:../src/Robot_SRC/encoder.c **** }
 298              		.loc 1 101 0
 299 022a 07F11007 		add	r7, r7, #16
 300 022e BD46     		mov	sp, r7
 301 0230 80BD     		pop	{r7, pc}
 302              		.cfi_endproc
 303              	.LFE113:
 305              	.Letext0:
 306              		.file 2 "/home/aghosh01/gcc-arm-none-eabi-4_7-2012q4/bin/../lib/gcc/arm-none-eabi/4.7.3/../../../.
 307              		.file 3 "/home/aghosh01/Embedded/stm32_dev_wkspace/STM32F3x/inc/stm32f30x.h"
 308              		.file 4 "/home/aghosh01/Embedded/stm32_dev_wkspace/STM32F3x/inc/stm32f30x_gpio.h"
 309              		.file 5 "/home/aghosh01/Embedded/stm32_dev_wkspace/STM32F3x/inc/stm32f30x_tim.h"
 310              		.file 6 "/home/aghosh01/Embedded/stm32_dev_wkspace/STM32F3x/inc/stm32f30x_misc.h"
 311              		.file 7 "/home/aghosh01/Embedded/stm32_dev_wkspace/STM32F3x/inc/core_cm4.h"